
uart.elf:     file format elf32-littlearm


Disassembly of section .text:

87800000 <_start>:
87800000:	e59ff120 	ldr	pc, [pc, #288]	; 87800128 <FIQ_Handler+0x8>
87800004:	e59ff120 	ldr	pc, [pc, #288]	; 8780012c <FIQ_Handler+0xc>
87800008:	e59ff120 	ldr	pc, [pc, #288]	; 87800130 <FIQ_Handler+0x10>
8780000c:	e59ff120 	ldr	pc, [pc, #288]	; 87800134 <FIQ_Handler+0x14>
87800010:	e59ff120 	ldr	pc, [pc, #288]	; 87800138 <FIQ_Handler+0x18>
87800014:	e59ff120 	ldr	pc, [pc, #288]	; 8780013c <FIQ_Handler+0x1c>
87800018:	e59ff120 	ldr	pc, [pc, #288]	; 87800140 <FIQ_Handler+0x20>
8780001c:	e59ff120 	ldr	pc, [pc, #288]	; 87800144 <FIQ_Handler+0x24>

87800020 <Reset_Handler>:
87800020:	f10c0080 	cpsid	i
87800024:	ee110f10 	mrc	15, 0, r0, cr1, cr0, {0}
87800028:	e3c00a01 	bic	r0, r0, #4096	; 0x1000
8780002c:	e3c00b02 	bic	r0, r0, #2048	; 0x800
87800030:	e3c00004 	bic	r0, r0, #4
87800034:	e3c00002 	bic	r0, r0, #2
87800038:	e3c00001 	bic	r0, r0, #1
8780003c:	ee010f10 	mcr	15, 0, r0, cr1, cr0, {0}

87800040 <_bss_start>:
87800040:	8780116c 	strhi	r1, [r0, ip, ror #2]

87800044 <_bss_end>:
87800044:	87801670 			; <UNDEFINED> instruction: 0x87801670
87800048:	e51f0010 	ldr	r0, [pc, #-16]	; 87800040 <_bss_start>
8780004c:	e51f1010 	ldr	r1, [pc, #-16]	; 87800044 <_bss_end>
87800050:	e3a02000 	mov	r2, #0

87800054 <bss_loop>:
87800054:	e8a00004 	stmia	r0!, {r2}
87800058:	e1500001 	cmp	r0, r1
8780005c:	dafffffc 	ble	87800054 <bss_loop>
87800060:	e10f0000 	mrs	r0, CPSR
87800064:	e3c0001f 	bic	r0, r0, #31
87800068:	e3800012 	orr	r0, r0, #18
8780006c:	e129f000 	msr	CPSR_fc, r0
87800070:	e59fd0d0 	ldr	sp, [pc, #208]	; 87800148 <FIQ_Handler+0x28>
87800074:	e10f0000 	mrs	r0, CPSR
87800078:	e3c0001f 	bic	r0, r0, #31
8780007c:	e380001f 	orr	r0, r0, #31
87800080:	e129f000 	msr	CPSR_fc, r0
87800084:	e59fd0c0 	ldr	sp, [pc, #192]	; 8780014c <FIQ_Handler+0x2c>
87800088:	e10f0000 	mrs	r0, CPSR
8780008c:	e3c0001f 	bic	r0, r0, #31
87800090:	e3800013 	orr	r0, r0, #19
87800094:	e129f000 	msr	CPSR_fc, r0
87800098:	e59fd0b0 	ldr	sp, [pc, #176]	; 87800150 <FIQ_Handler+0x30>
8780009c:	f1080080 	cpsie	i
878000a0:	ea000400 	b	878010a8 <__main_from_arm>

878000a4 <Undefined_Handler>:
878000a4:	e59f0080 	ldr	r0, [pc, #128]	; 8780012c <FIQ_Handler+0xc>
878000a8:	e12fff10 	bx	r0

878000ac <SVC_Handler>:
878000ac:	e59f007c 	ldr	r0, [pc, #124]	; 87800130 <FIQ_Handler+0x10>
878000b0:	e12fff10 	bx	r0

878000b4 <PreAbort_Handler>:
878000b4:	e59f0078 	ldr	r0, [pc, #120]	; 87800134 <FIQ_Handler+0x14>
878000b8:	e12fff10 	bx	r0

878000bc <DataAbort_Handler>:
878000bc:	e59f0074 	ldr	r0, [pc, #116]	; 87800138 <FIQ_Handler+0x18>
878000c0:	e12fff10 	bx	r0

878000c4 <NotUsed_Handler>:
878000c4:	e59f0070 	ldr	r0, [pc, #112]	; 8780013c <FIQ_Handler+0x1c>
878000c8:	e12fff10 	bx	r0

878000cc <IRQ_Handler>:
878000cc:	e52de004 	push	{lr}		; (str lr, [sp, #-4]!)
878000d0:	e92d100f 	push	{r0, r1, r2, r3, ip}
878000d4:	e14f0000 	mrs	r0, SPSR
878000d8:	e52d0004 	push	{r0}		; (str r0, [sp, #-4]!)
878000dc:	ee9f1f10 	mrc	15, 4, r1, cr15, cr0, {0}
878000e0:	e2811a02 	add	r1, r1, #8192	; 0x2000
878000e4:	e591000c 	ldr	r0, [r1, #12]
878000e8:	e92d0003 	push	{r0, r1}
878000ec:	f1020013 	cps	#19
878000f0:	e52de004 	push	{lr}		; (str lr, [sp, #-4]!)
878000f4:	e59f2058 	ldr	r2, [pc, #88]	; 87800154 <FIQ_Handler+0x34>
878000f8:	e12fff32 	blx	r2
878000fc:	e49de004 	pop	{lr}		; (ldr lr, [sp], #4)
87800100:	f1020012 	cps	#18
87800104:	e8bd0003 	pop	{r0, r1}
87800108:	e5810010 	str	r0, [r1, #16]
8780010c:	e49d0004 	pop	{r0}		; (ldr r0, [sp], #4)
87800110:	e16ff000 	msr	SPSR_fsxc, r0
87800114:	e8bd100f 	pop	{r0, r1, r2, r3, ip}
87800118:	e49de004 	pop	{lr}		; (ldr lr, [sp], #4)
8780011c:	e25ef004 	subs	pc, lr, #4

87800120 <FIQ_Handler>:
87800120:	e59f001c 	ldr	r0, [pc, #28]	; 87800144 <FIQ_Handler+0x24>
87800124:	e12fff10 	bx	r0
87800128:	87800020 	strhi	r0, [r0, r0, lsr #32]
8780012c:	878000a4 	strhi	r0, [r0, r4, lsr #1]
87800130:	878000ac 	strhi	r0, [r0, ip, lsr #1]
87800134:	878000b4 			; <UNDEFINED> instruction: 0x878000b4
87800138:	878000bc 			; <UNDEFINED> instruction: 0x878000bc
8780013c:	878000c4 	strhi	r0, [r0, r4, asr #1]
87800140:	878000cc 	strhi	r0, [r0, ip, asr #1]
87800144:	87800120 	strhi	r0, [r0, r0, lsr #2]
87800148:	80600000 	rsbhi	r0, r0, r0
8780014c:	80400000 	subhi	r0, r0, r0
87800150:	80200000 	eorhi	r0, r0, r0
87800154:	87800799 			; <UNDEFINED> instruction: 0x87800799
87800158:	00000095 	muleq	r0, r5, r0
8780015c:	00260003 	eoreq	r0, r6, r3
87800160:	01020000 	mrseq	r0, (UNDEF: 2)
87800164:	000d0efb 	strdeq	r0, [sp], -fp
87800168:	01010101 	tsteq	r1, r1, lsl #2
8780016c:	01000000 	mrseq	r0, (UNDEF: 0)
87800170:	70010000 	andvc	r0, r1, r0
87800174:	656a6f72 	strbvs	r6, [sl, #-3954]!	; 0xfffff08e
87800178:	00007463 	andeq	r7, r0, r3, ror #8
8780017c:	72617473 	rsbvc	r7, r1, #1929379840	; 0x73000000
87800180:	00532e74 	subseq	r2, r3, r4, ror lr
87800184:	00000001 	andeq	r0, r0, r1
87800188:	00020500 	andeq	r0, r2, r0, lsl #10
8780018c:	17878000 	strne	r8, [r7, r0]
87800190:	2f2f2f2f 	svccs	0x002f2f2f
87800194:	312f2f2f 			; <UNDEFINED> instruction: 0x312f2f2f
87800198:	2f2f2f31 	svccs	0x002f2f31
8780019c:	032f2f2f 			; <UNDEFINED> instruction: 0x032f2f2f
878001a0:	2f2f6611 	svccs	0x002f6611
878001a4:	312f2f31 			; <UNDEFINED> instruction: 0x312f2f31
878001a8:	2f2f2f2f 	svccs	0x002f2f2f
878001ac:	2f2f2f31 	svccs	0x002f2f31
878001b0:	2f2f312f 	svccs	0x002f312f
878001b4:	2f302f2f 	svccs	0x00302f2f
878001b8:	2f312f31 	svccs	0x00312f31
878001bc:	2f312f31 	svccs	0x00312f31
878001c0:	2f312f31 	svccs	0x00312f31
878001c4:	32302f30 	eorscc	r2, r0, #48, 30	; 0xc0
878001c8:	3030322f 	eorscc	r3, r0, pc, lsr #4
878001cc:	2f302f2f 	svccs	0x00302f2f
878001d0:	2f302f2f 	svccs	0x00302f2f
878001d4:	312f2f30 			; <UNDEFINED> instruction: 0x312f2f30
878001d8:	7f81032f 	svcvc	0x0081032f
878001dc:	2f2f2f2e 	svccs	0x002f2f2e
878001e0:	2f2f2f2f 	svccs	0x002f2f2f
878001e4:	352e2b03 	strcc	r2, [lr, #-2819]!	; 0xfffff4fd
878001e8:	2e2e0335 	mcrcs	3, 1, r0, cr14, cr5, {1}
878001ec:	01000202 	tsteq	r0, r2, lsl #4
878001f0:	00002201 	andeq	r2, r0, r1, lsl #4
878001f4:	17000200 	strne	r0, [r0, -r0, lsl #4]
878001f8:	04878002 	streq	r8, [r7], #2
878001fc:	80015801 	andhi	r5, r1, r1, lsl #16
87800200:	80000087 	andhi	r0, r0, r7, lsl #1
87800204:	80015887 	andhi	r5, r1, r7, lsl #17
87800208:	80025087 	andhi	r5, r2, r7, lsl #1
8780020c:	80026087 	andhi	r6, r2, r7, lsl #1
87800210:	80029487 	andhi	r9, r2, r7, lsl #9
87800214:	01800187 	orreq	r0, r0, r7, lsl #3
87800218:	06100011 			; <UNDEFINED> instruction: 0x06100011
8780021c:	01120111 	tsteq	r2, r1, lsl r1
87800220:	0e1b0e03 	cdpeq	14, 1, cr0, cr11, cr3, {0}
87800224:	05130e25 	ldreq	r0, [r3, #-3621]	; 0xfffff1db
	...
87800230:	0000001c 	andeq	r0, r0, ip, lsl r0
87800234:	01f10002 	mvnseq	r0, r2
87800238:	00048780 	andeq	r8, r4, r0, lsl #15
8780023c:	00000000 	andeq	r0, r0, r0
87800240:	87800000 	strhi	r0, [r0, r0]
87800244:	00000158 	andeq	r0, r0, r8, asr r1
	...
87800250:	6a6f7270 	bvs	893dcc18 <__bss_end+0x1bdb5a8>
87800254:	2f746365 	svccs	0x00746365
87800258:	72617473 	rsbvc	r7, r1, #1929379840	; 0x73000000
8780025c:	00532e74 	subseq	r2, r3, r4, ror lr
87800260:	6d6f682f 	stclvs	8, cr6, [pc, #-188]!	; 878001ac <FIQ_Handler+0x8c>
87800264:	68732f65 	ldmdavs	r3!, {r0, r2, r5, r6, r8, r9, sl, fp, sp}^
87800268:	32656e69 	rsbcc	r6, r5, #1680	; 0x690
8780026c:	2f383430 	svccs	0x00383430
87800270:	756e696c 	strbvc	r6, [lr, #-2412]!	; 0xfffff694
87800274:	4d492f78 	stclmi	15, cr2, [r9, #-480]	; 0xfffffe20
87800278:	4c553658 	mrrcmi	6, 5, r3, r5, cr8
8780027c:	6f422f4c 	svcvs	0x00422f4c
87800280:	5f647261 	svcpl	0x00647261
87800284:	76697244 	strbtvc	r7, [r9], -r4, asr #4
87800288:	2f737265 	svccs	0x00737265
8780028c:	755f3331 	ldrbvc	r3, [pc, #-817]	; 877fff63 <shift+0x877fff63>
87800290:	00747261 	rsbseq	r7, r4, r1, ror #4
87800294:	20554e47 	subscs	r4, r5, r7, asr #28
87800298:	32205341 	eorcc	r5, r0, #67108865	; 0x4000001
8780029c:	0034332e 	eorseq	r3, r4, lr, lsr #6
878002a0:	00001e41 	andeq	r1, r0, r1, asr #28
878002a4:	61656100 	cmnvs	r5, r0, lsl #2
878002a8:	01006962 	tsteq	r0, r2, ror #18
878002ac:	00000014 	andeq	r0, r0, r4, lsl r0
878002b0:	412d3705 			; <UNDEFINED> instruction: 0x412d3705
878002b4:	070a0600 	streq	r0, [sl, -r0, lsl #12]
878002b8:	09010841 	stmdbeq	r1, {r0, r6, fp}
878002bc:	00040a02 	andeq	r0, r4, r2, lsl #20

878002c0 <clk_enable>:
878002c0:	f44f 4380 	mov.w	r3, #16384	; 0x4000
878002c4:	f04f 32ff 	mov.w	r2, #4294967295	; 0xffffffff
878002c8:	f2c0 230c 	movt	r3, #524	; 0x20c
878002cc:	669a      	str	r2, [r3, #104]	; 0x68
878002ce:	66da      	str	r2, [r3, #108]	; 0x6c
878002d0:	671a      	str	r2, [r3, #112]	; 0x70
878002d2:	675a      	str	r2, [r3, #116]	; 0x74
878002d4:	679a      	str	r2, [r3, #120]	; 0x78
878002d6:	67da      	str	r2, [r3, #124]	; 0x7c
878002d8:	f8c3 2080 	str.w	r2, [r3, #128]	; 0x80
878002dc:	4770      	bx	lr
878002de:	bf00      	nop

878002e0 <clk_init_imx6ull>:
878002e0:	f44f 4380 	mov.w	r3, #16384	; 0x4000
878002e4:	f2c0 230c 	movt	r3, #524	; 0x20c
878002e8:	68da      	ldr	r2, [r3, #12]
878002ea:	b430      	push	{r4, r5}
878002ec:	0751      	lsls	r1, r2, #29
878002ee:	d407      	bmi.n	87800300 <clk_init_imx6ull+0x20>
878002f0:	68da      	ldr	r2, [r3, #12]
878002f2:	f422 7280 	bic.w	r2, r2, #256	; 0x100
878002f6:	60da      	str	r2, [r3, #12]
878002f8:	68da      	ldr	r2, [r3, #12]
878002fa:	f042 0204 	orr.w	r2, r2, #4
878002fe:	60da      	str	r2, [r3, #12]
87800300:	f44f 4200 	mov.w	r2, #32768	; 0x8000
87800304:	f44f 4380 	mov.w	r3, #16384	; 0x4000
87800308:	f2c0 230c 	movt	r3, #524	; 0x20c
8780030c:	f2c0 220c 	movt	r2, #524	; 0x20c
87800310:	f242 0058 	movw	r0, #8280	; 0x2058
87800314:	2101      	movs	r1, #1
87800316:	6010      	str	r0, [r2, #0]
87800318:	f241 041b 	movw	r4, #4123	; 0x101b
8780031c:	6119      	str	r1, [r3, #16]
8780031e:	f2c2 0418 	movt	r4, #8216	; 0x2018
87800322:	68dd      	ldr	r5, [r3, #12]
87800324:	f241 000c 	movw	r0, #4108	; 0x100c
87800328:	f2c1 3011 	movt	r0, #4881	; 0x1311
8780032c:	4619      	mov	r1, r3
8780032e:	f025 0504 	bic.w	r5, r5, #4
87800332:	60dd      	str	r5, [r3, #12]
87800334:	f8d2 5100 	ldr.w	r5, [r2, #256]	; 0x100
87800338:	f005 35c0 	and.w	r5, r5, #3233857728	; 0xc0c0c0c0
8780033c:	432c      	orrs	r4, r5
8780033e:	f8c2 4100 	str.w	r4, [r2, #256]	; 0x100
87800342:	f8d2 40f0 	ldr.w	r4, [r2, #240]	; 0xf0
87800346:	f004 34c0 	and.w	r4, r4, #3233857728	; 0xc0c0c0c0
8780034a:	4320      	orrs	r0, r4
8780034c:	f8c2 00f0 	str.w	r0, [r2, #240]	; 0xf0
87800350:	699a      	ldr	r2, [r3, #24]
87800352:	f422 2240 	bic.w	r2, r2, #786432	; 0xc0000
87800356:	619a      	str	r2, [r3, #24]
87800358:	699a      	ldr	r2, [r3, #24]
8780035a:	f442 2280 	orr.w	r2, r2, #262144	; 0x40000
8780035e:	619a      	str	r2, [r3, #24]
87800360:	695a      	ldr	r2, [r3, #20]
87800362:	f022 7200 	bic.w	r2, r2, #33554432	; 0x2000000
87800366:	615a      	str	r2, [r3, #20]
87800368:	6c8a      	ldr	r2, [r1, #72]	; 0x48
8780036a:	f44f 4380 	mov.w	r3, #16384	; 0x4000
8780036e:	f2c0 230c 	movt	r3, #524	; 0x20c
87800372:	0692      	lsls	r2, r2, #26
87800374:	d4f8      	bmi.n	87800368 <clk_init_imx6ull+0x88>
87800376:	695a      	ldr	r2, [r3, #20]
87800378:	bc30      	pop	{r4, r5}
8780037a:	f422 7240 	bic.w	r2, r2, #768	; 0x300
8780037e:	615a      	str	r2, [r3, #20]
87800380:	695a      	ldr	r2, [r3, #20]
87800382:	f442 7280 	orr.w	r2, r2, #256	; 0x100
87800386:	615a      	str	r2, [r3, #20]
87800388:	69da      	ldr	r2, [r3, #28]
8780038a:	f022 0240 	bic.w	r2, r2, #64	; 0x40
8780038e:	61da      	str	r2, [r3, #28]
87800390:	69da      	ldr	r2, [r3, #28]
87800392:	f022 023f 	bic.w	r2, r2, #63	; 0x3f
87800396:	61da      	str	r2, [r3, #28]
87800398:	4770      	bx	lr
8780039a:	bf00      	nop

8780039c <delay_init>:
8780039c:	f44f 4300 	mov.w	r3, #32768	; 0x8000
878003a0:	2200      	movs	r2, #0
878003a2:	f2c0 2309 	movt	r3, #521	; 0x209
878003a6:	601a      	str	r2, [r3, #0]
878003a8:	4619      	mov	r1, r3
878003aa:	681a      	ldr	r2, [r3, #0]
878003ac:	f442 4200 	orr.w	r2, r2, #32768	; 0x8000
878003b0:	601a      	str	r2, [r3, #0]
878003b2:	680a      	ldr	r2, [r1, #0]
878003b4:	f44f 4300 	mov.w	r3, #32768	; 0x8000
878003b8:	f2c0 2309 	movt	r3, #521	; 0x209
878003bc:	0412      	lsls	r2, r2, #16
878003be:	d4f8      	bmi.n	878003b2 <delay_init+0x16>
878003c0:	2242      	movs	r2, #66	; 0x42
878003c2:	2141      	movs	r1, #65	; 0x41
878003c4:	601a      	str	r2, [r3, #0]
878003c6:	f04f 32ff 	mov.w	r2, #4294967295	; 0xffffffff
878003ca:	6059      	str	r1, [r3, #4]
878003cc:	611a      	str	r2, [r3, #16]
878003ce:	681a      	ldr	r2, [r3, #0]
878003d0:	f042 0201 	orr.w	r2, r2, #1
878003d4:	601a      	str	r2, [r3, #0]
878003d6:	4770      	bx	lr

878003d8 <delay_short>:
878003d8:	b082      	sub	sp, #8
878003da:	9001      	str	r0, [sp, #4]
878003dc:	9b01      	ldr	r3, [sp, #4]
878003de:	1e5a      	subs	r2, r3, #1
878003e0:	9201      	str	r2, [sp, #4]
878003e2:	2b00      	cmp	r3, #0
878003e4:	d1fa      	bne.n	878003dc <delay_short+0x4>
878003e6:	b002      	add	sp, #8
878003e8:	4770      	bx	lr
878003ea:	bf00      	nop

878003ec <delay_us>:
878003ec:	b430      	push	{r4, r5}
878003ee:	f44f 4500 	mov.w	r5, #32768	; 0x8000
878003f2:	f2c0 2509 	movt	r5, #521	; 0x209
878003f6:	2200      	movs	r2, #0
878003f8:	6a69      	ldr	r1, [r5, #36]	; 0x24
878003fa:	6a6b      	ldr	r3, [r5, #36]	; 0x24
878003fc:	4299      	cmp	r1, r3
878003fe:	eb02 0403 	add.w	r4, r2, r3
87800402:	bf38      	it	cc
87800404:	1a62      	subcc	r2, r4, r1
87800406:	d304      	bcc.n	87800412 <delay_us+0x26>
87800408:	f103 34ff 	add.w	r4, r3, #4294967295	; 0xffffffff
8780040c:	bf84      	itt	hi
8780040e:	1912      	addhi	r2, r2, r4
87800410:	1a52      	subhi	r2, r2, r1
87800412:	4282      	cmp	r2, r0
87800414:	4619      	mov	r1, r3
87800416:	d3f0      	bcc.n	878003fa <delay_us+0xe>
87800418:	bc30      	pop	{r4, r5}
8780041a:	4770      	bx	lr

8780041c <delay_ms>:
8780041c:	b430      	push	{r4, r5}
8780041e:	f44f 4500 	mov.w	r5, #32768	; 0x8000
87800422:	f2c0 2509 	movt	r5, #521	; 0x209
87800426:	f110 30ff 	adds.w	r0, r0, #4294967295	; 0xffffffff
8780042a:	d312      	bcc.n	87800452 <delay_ms+0x36>
8780042c:	6a69      	ldr	r1, [r5, #36]	; 0x24
8780042e:	2200      	movs	r2, #0
87800430:	6a6b      	ldr	r3, [r5, #36]	; 0x24
87800432:	428b      	cmp	r3, r1
87800434:	eb02 0403 	add.w	r4, r2, r3
87800438:	bf88      	it	hi
8780043a:	1a62      	subhi	r2, r4, r1
8780043c:	d804      	bhi.n	87800448 <delay_ms+0x2c>
8780043e:	f103 34ff 	add.w	r4, r3, #4294967295	; 0xffffffff
87800442:	d204      	bcs.n	8780044e <delay_ms+0x32>
87800444:	4422      	add	r2, r4
87800446:	1a52      	subs	r2, r2, r1
87800448:	f5b2 7f7a 	cmp.w	r2, #1000	; 0x3e8
8780044c:	d2eb      	bcs.n	87800426 <delay_ms+0xa>
8780044e:	4619      	mov	r1, r3
87800450:	e7ee      	b.n	87800430 <delay_ms+0x14>
87800452:	bc30      	pop	{r4, r5}
87800454:	4770      	bx	lr
87800456:	bf00      	nop

87800458 <led_init>:
87800458:	2168      	movs	r1, #104	; 0x68
8780045a:	f44f 723d 	mov.w	r2, #756	; 0x2f4
8780045e:	f44f 4340 	mov.w	r3, #49152	; 0xc000
87800462:	f2c0 210e 	movt	r1, #526	; 0x20e
87800466:	b410      	push	{r4}
87800468:	f2c0 220e 	movt	r2, #526	; 0x20e
8780046c:	f2c0 2309 	movt	r3, #521	; 0x209
87800470:	2405      	movs	r4, #5
87800472:	f241 00b0 	movw	r0, #4272	; 0x10b0
87800476:	600c      	str	r4, [r1, #0]
87800478:	6010      	str	r0, [r2, #0]
8780047a:	2108      	movs	r1, #8
8780047c:	2200      	movs	r2, #0
8780047e:	6059      	str	r1, [r3, #4]
87800480:	f85d 4b04 	ldr.w	r4, [sp], #4
87800484:	601a      	str	r2, [r3, #0]
87800486:	4770      	bx	lr

87800488 <led_on>:
87800488:	f44f 4340 	mov.w	r3, #49152	; 0xc000
8780048c:	f2c0 2309 	movt	r3, #521	; 0x209
87800490:	681a      	ldr	r2, [r3, #0]
87800492:	f022 0208 	bic.w	r2, r2, #8
87800496:	601a      	str	r2, [r3, #0]
87800498:	4770      	bx	lr
8780049a:	bf00      	nop

8780049c <led_off>:
8780049c:	f44f 4340 	mov.w	r3, #49152	; 0xc000
878004a0:	f2c0 2309 	movt	r3, #521	; 0x209
878004a4:	681a      	ldr	r2, [r3, #0]
878004a6:	f042 0208 	orr.w	r2, r2, #8
878004aa:	601a      	str	r2, [r3, #0]
878004ac:	4770      	bx	lr
878004ae:	bf00      	nop

878004b0 <led_toggle>:
878004b0:	f44f 4340 	mov.w	r3, #49152	; 0xc000
878004b4:	f2c0 2309 	movt	r3, #521	; 0x209
878004b8:	681a      	ldr	r2, [r3, #0]
878004ba:	f082 0208 	eor.w	r2, r2, #8
878004be:	601a      	str	r2, [r3, #0]
878004c0:	4770      	bx	lr
878004c2:	bf00      	nop

878004c4 <beep_init>:
878004c4:	210c      	movs	r1, #12
878004c6:	2250      	movs	r2, #80	; 0x50
878004c8:	f44f 4340 	mov.w	r3, #49152	; 0xc000
878004cc:	f2c0 2229 	movt	r2, #553	; 0x229
878004d0:	f2c0 230a 	movt	r3, #522	; 0x20a
878004d4:	f2c0 2129 	movt	r1, #553	; 0x229
878004d8:	b410      	push	{r4}
878004da:	f241 00b0 	movw	r0, #4272	; 0x10b0
878004de:	2405      	movs	r4, #5
878004e0:	600c      	str	r4, [r1, #0]
878004e2:	6010      	str	r0, [r2, #0]
878004e4:	685a      	ldr	r2, [r3, #4]
878004e6:	f85d 4b04 	ldr.w	r4, [sp], #4
878004ea:	f042 0202 	orr.w	r2, r2, #2
878004ee:	605a      	str	r2, [r3, #4]
878004f0:	681a      	ldr	r2, [r3, #0]
878004f2:	f042 0202 	orr.w	r2, r2, #2
878004f6:	601a      	str	r2, [r3, #0]
878004f8:	4770      	bx	lr
878004fa:	bf00      	nop

878004fc <beep_on>:
878004fc:	f44f 4340 	mov.w	r3, #49152	; 0xc000
87800500:	f2c0 230a 	movt	r3, #522	; 0x20a
87800504:	681a      	ldr	r2, [r3, #0]
87800506:	f022 0202 	bic.w	r2, r2, #2
8780050a:	601a      	str	r2, [r3, #0]
8780050c:	4770      	bx	lr
8780050e:	bf00      	nop

87800510 <beep_off>:
87800510:	f44f 4340 	mov.w	r3, #49152	; 0xc000
87800514:	f2c0 230a 	movt	r3, #522	; 0x20a
87800518:	681a      	ldr	r2, [r3, #0]
8780051a:	f042 0202 	orr.w	r2, r2, #2
8780051e:	601a      	str	r2, [r3, #0]
87800520:	4770      	bx	lr
87800522:	bf00      	nop

87800524 <beep_toggle>:
87800524:	f44f 4340 	mov.w	r3, #49152	; 0xc000
87800528:	f2c0 230a 	movt	r3, #522	; 0x20a
8780052c:	681a      	ldr	r2, [r3, #0]
8780052e:	f082 0202 	eor.w	r2, r2, #2
87800532:	601a      	str	r2, [r3, #0]
87800534:	4770      	bx	lr
87800536:	bf00      	nop

87800538 <key_init>:
87800538:	228c      	movs	r2, #140	; 0x8c
8780053a:	f44f 7346 	mov.w	r3, #792	; 0x318
8780053e:	b510      	push	{r4, lr}
87800540:	f2c0 220e 	movt	r2, #526	; 0x20e
87800544:	b084      	sub	sp, #16
87800546:	f2c0 230e 	movt	r3, #526	; 0x20e
8780054a:	f44f 4040 	mov.w	r0, #49152	; 0xc000
8780054e:	2405      	movs	r4, #5
87800550:	f24f 0180 	movw	r1, #61568	; 0xf080
87800554:	6014      	str	r4, [r2, #0]
87800556:	f2c0 2009 	movt	r0, #521	; 0x209
8780055a:	6019      	str	r1, [r3, #0]
8780055c:	aa01      	add	r2, sp, #4
8780055e:	2112      	movs	r1, #18
87800560:	2300      	movs	r3, #0
87800562:	9301      	str	r3, [sp, #4]
87800564:	9302      	str	r3, [sp, #8]
87800566:	9303      	str	r3, [sp, #12]
87800568:	f000 f87e 	bl	87800668 <gpio_init>
8780056c:	b004      	add	sp, #16
8780056e:	bd10      	pop	{r4, pc}

87800570 <key_getValue>:
87800570:	b538      	push	{r3, r4, r5, lr}
87800572:	f241 1468 	movw	r4, #4456	; 0x1168
87800576:	f2c8 7480 	movt	r4, #34688	; 0x8780
8780057a:	7823      	ldrb	r3, [r4, #0]
8780057c:	b143      	cbz	r3, 87800590 <key_getValue+0x20>
8780057e:	f44f 4040 	mov.w	r0, #49152	; 0xc000
87800582:	2112      	movs	r1, #18
87800584:	f2c0 2009 	movt	r0, #521	; 0x209
87800588:	f000 f8a2 	bl	878006d0 <gpio_readPin>
8780058c:	4605      	mov	r5, r0
8780058e:	b158      	cbz	r0, 878005a8 <key_getValue+0x38>
87800590:	f44f 4040 	mov.w	r0, #49152	; 0xc000
87800594:	2112      	movs	r1, #18
87800596:	f2c0 2009 	movt	r0, #521	; 0x209
8780059a:	f000 f899 	bl	878006d0 <gpio_readPin>
8780059e:	2801      	cmp	r0, #1
878005a0:	bf08      	it	eq
878005a2:	7020      	strbeq	r0, [r4, #0]
878005a4:	2000      	movs	r0, #0
878005a6:	bd38      	pop	{r3, r4, r5, pc}
878005a8:	200a      	movs	r0, #10
878005aa:	f7ff ff37 	bl	8780041c <delay_ms>
878005ae:	f44f 4040 	mov.w	r0, #49152	; 0xc000
878005b2:	2112      	movs	r1, #18
878005b4:	f2c0 2009 	movt	r0, #521	; 0x209
878005b8:	7025      	strb	r5, [r4, #0]
878005ba:	f000 f889 	bl	878006d0 <gpio_readPin>
878005be:	fab0 f080 	clz	r0, r0
878005c2:	0940      	lsrs	r0, r0, #5
878005c4:	bd38      	pop	{r3, r4, r5, pc}
878005c6:	bf00      	nop

878005c8 <gpio_interrupt_enable>:
878005c8:	6943      	ldr	r3, [r0, #20]
878005ca:	2201      	movs	r2, #1
878005cc:	408a      	lsls	r2, r1
878005ce:	4313      	orrs	r3, r2
878005d0:	6143      	str	r3, [r0, #20]
878005d2:	4770      	bx	lr

878005d4 <gpio_interrupt_disable>:
878005d4:	6943      	ldr	r3, [r0, #20]
878005d6:	2201      	movs	r2, #1
878005d8:	408a      	lsls	r2, r1
878005da:	ea23 0302 	bic.w	r3, r3, r2
878005de:	6143      	str	r3, [r0, #20]
878005e0:	4770      	bx	lr
878005e2:	bf00      	nop

878005e4 <gpio_interrupt_clear_flag>:
878005e4:	6983      	ldr	r3, [r0, #24]
878005e6:	2201      	movs	r2, #1
878005e8:	408a      	lsls	r2, r1
878005ea:	4313      	orrs	r3, r2
878005ec:	6183      	str	r3, [r0, #24]
878005ee:	4770      	bx	lr

878005f0 <gpio_interrupt_init>:
878005f0:	290f      	cmp	r1, #15
878005f2:	f04f 0301 	mov.w	r3, #1
878005f6:	b470      	push	{r4, r5, r6}
878005f8:	fa03 f301 	lsl.w	r3, r3, r1
878005fc:	69c4      	ldr	r4, [r0, #28]
878005fe:	bf8a      	itet	hi
87800600:	3910      	subhi	r1, #16
87800602:	f100 060c 	addls.w	r6, r0, #12
87800606:	f100 0610 	addhi.w	r6, r0, #16
8780060a:	ea24 0403 	bic.w	r4, r4, r3
8780060e:	ea4f 0141 	mov.w	r1, r1, lsl #1
87800612:	61c4      	str	r4, [r0, #28]
87800614:	f04f 0403 	mov.w	r4, #3
87800618:	bf98      	it	ls
8780061a:	68c5      	ldrls	r5, [r0, #12]
8780061c:	fa04 f401 	lsl.w	r4, r4, r1
87800620:	bf88      	it	hi
87800622:	6905      	ldrhi	r5, [r0, #16]
87800624:	3a02      	subs	r2, #2
87800626:	ea25 0504 	bic.w	r5, r5, r4
8780062a:	6035      	str	r5, [r6, #0]
8780062c:	2a03      	cmp	r2, #3
8780062e:	d806      	bhi.n	8780063e <gpio_interrupt_init+0x4e>
87800630:	e8df f002 	tbb	[pc, r2]
87800634:	02070c13 	andeq	r0, r7, #4864	; 0x1300
87800638:	69c2      	ldr	r2, [r0, #28]
8780063a:	4313      	orrs	r3, r2
8780063c:	61c3      	str	r3, [r0, #28]
8780063e:	bc70      	pop	{r4, r5, r6}
87800640:	4770      	bx	lr
87800642:	6833      	ldr	r3, [r6, #0]
87800644:	431c      	orrs	r4, r3
87800646:	6034      	str	r4, [r6, #0]
87800648:	bc70      	pop	{r4, r5, r6}
8780064a:	4770      	bx	lr
8780064c:	6832      	ldr	r2, [r6, #0]
8780064e:	2302      	movs	r3, #2
87800650:	408b      	lsls	r3, r1
87800652:	4313      	orrs	r3, r2
87800654:	6033      	str	r3, [r6, #0]
87800656:	bc70      	pop	{r4, r5, r6}
87800658:	4770      	bx	lr
8780065a:	6832      	ldr	r2, [r6, #0]
8780065c:	2301      	movs	r3, #1
8780065e:	408b      	lsls	r3, r1
87800660:	4313      	orrs	r3, r2
87800662:	6033      	str	r3, [r6, #0]
87800664:	bc70      	pop	{r4, r5, r6}
87800666:	4770      	bx	lr

87800668 <gpio_init>:
87800668:	6813      	ldr	r3, [r2, #0]
8780066a:	b410      	push	{r4}
8780066c:	b173      	cbz	r3, 8780068c <gpio_init+0x24>
8780066e:	6844      	ldr	r4, [r0, #4]
87800670:	2301      	movs	r3, #1
87800672:	408b      	lsls	r3, r1
87800674:	431c      	orrs	r4, r3
87800676:	6044      	str	r4, [r0, #4]
87800678:	7914      	ldrb	r4, [r2, #4]
8780067a:	b194      	cbz	r4, 878006a2 <gpio_init+0x3a>
8780067c:	6804      	ldr	r4, [r0, #0]
8780067e:	6892      	ldr	r2, [r2, #8]
87800680:	4323      	orrs	r3, r4
87800682:	f85d 4b04 	ldr.w	r4, [sp], #4
87800686:	6003      	str	r3, [r0, #0]
87800688:	f7ff bfb2 	b.w	878005f0 <gpio_interrupt_init>
8780068c:	6844      	ldr	r4, [r0, #4]
8780068e:	2301      	movs	r3, #1
87800690:	408b      	lsls	r3, r1
87800692:	6892      	ldr	r2, [r2, #8]
87800694:	ea24 0303 	bic.w	r3, r4, r3
87800698:	f85d 4b04 	ldr.w	r4, [sp], #4
8780069c:	6043      	str	r3, [r0, #4]
8780069e:	f7ff bfa7 	b.w	878005f0 <gpio_interrupt_init>
878006a2:	6804      	ldr	r4, [r0, #0]
878006a4:	6892      	ldr	r2, [r2, #8]
878006a6:	ea24 0303 	bic.w	r3, r4, r3
878006aa:	f85d 4b04 	ldr.w	r4, [sp], #4
878006ae:	6003      	str	r3, [r0, #0]
878006b0:	f7ff bf9e 	b.w	878005f0 <gpio_interrupt_init>

878006b4 <gpio_writePin>:
878006b4:	2301      	movs	r3, #1
878006b6:	b122      	cbz	r2, 878006c2 <gpio_writePin+0xe>
878006b8:	6802      	ldr	r2, [r0, #0]
878006ba:	408b      	lsls	r3, r1
878006bc:	4313      	orrs	r3, r2
878006be:	6003      	str	r3, [r0, #0]
878006c0:	4770      	bx	lr
878006c2:	6802      	ldr	r2, [r0, #0]
878006c4:	408b      	lsls	r3, r1
878006c6:	ea22 0303 	bic.w	r3, r2, r3
878006ca:	6003      	str	r3, [r0, #0]
878006cc:	4770      	bx	lr
878006ce:	bf00      	nop

878006d0 <gpio_readPin>:
878006d0:	6800      	ldr	r0, [r0, #0]
878006d2:	40c8      	lsrs	r0, r1
878006d4:	f000 0001 	and.w	r0, r0, #1
878006d8:	4770      	bx	lr
878006da:	bf00      	nop

878006dc <default_irqhandler>:
878006dc:	e7fe      	b.n	878006dc <default_irqhandler>
878006de:	bf00      	nop

878006e0 <system_irqtable_init>:
878006e0:	f241 136c 	movw	r3, #4460	; 0x116c
878006e4:	f240 62dd 	movw	r2, #1757	; 0x6dd
878006e8:	f2c8 7380 	movt	r3, #34688	; 0x8780
878006ec:	f503 60a0 	add.w	r0, r3, #1280	; 0x500
878006f0:	f2c8 7280 	movt	r2, #34688	; 0x8780
878006f4:	2100      	movs	r1, #0
878006f6:	601a      	str	r2, [r3, #0]
878006f8:	3308      	adds	r3, #8
878006fa:	f843 1c04 	str.w	r1, [r3, #-4]
878006fe:	4283      	cmp	r3, r0
87800700:	d1f9      	bne.n	878006f6 <system_irqtable_init+0x16>
87800702:	4770      	bx	lr

87800704 <system_register_irqhandler>:
87800704:	f241 136c 	movw	r3, #4460	; 0x116c
87800708:	b410      	push	{r4}
8780070a:	f2c8 7380 	movt	r3, #34688	; 0x8780
8780070e:	eb03 04c0 	add.w	r4, r3, r0, lsl #3
87800712:	f843 1030 	str.w	r1, [r3, r0, lsl #3]
87800716:	6062      	str	r2, [r4, #4]
87800718:	f85d 4b04 	ldr.w	r4, [sp], #4
8780071c:	4770      	bx	lr
8780071e:	bf00      	nop

87800720 <int_init>:
87800720:	b4f0      	push	{r4, r5, r6, r7}
87800722:	ee9f 1f10 	mrc	15, 4, r1, cr15, cr0, {0}
87800726:	0c09      	lsrs	r1, r1, #16
87800728:	f241 0204 	movw	r2, #4100	; 0x1004
8780072c:	2300      	movs	r3, #0
8780072e:	f04f 34ff 	mov.w	r4, #4294967295	; 0xffffffff
87800732:	0409      	lsls	r1, r1, #16
87800734:	5888      	ldr	r0, [r1, r2]
87800736:	f000 001f 	and.w	r0, r0, #31
8780073a:	3001      	adds	r0, #1
8780073c:	f503 628c 	add.w	r2, r3, #1120	; 0x460
87800740:	3301      	adds	r3, #1
87800742:	4298      	cmp	r0, r3
87800744:	f841 4022 	str.w	r4, [r1, r2, lsl #2]
87800748:	d1f8      	bne.n	8780073c <int_init+0x1c>
8780074a:	f242 0404 	movw	r4, #8196	; 0x2004
8780074e:	f241 136c 	movw	r3, #4460	; 0x116c
87800752:	f501 5680 	add.w	r6, r1, #4096	; 0x1000
87800756:	f501 5500 	add.w	r5, r1, #8192	; 0x2000
8780075a:	27f8      	movs	r7, #248	; 0xf8
8780075c:	f2c8 7380 	movt	r3, #34688	; 0x8780
87800760:	510f      	str	r7, [r1, r4]
87800762:	f240 62dd 	movw	r2, #1757	; 0x6dd
87800766:	f242 0408 	movw	r4, #8200	; 0x2008
8780076a:	f503 60a0 	add.w	r0, r3, #1280	; 0x500
8780076e:	2702      	movs	r7, #2
87800770:	f2c8 7280 	movt	r2, #34688	; 0x8780
87800774:	510f      	str	r7, [r1, r4]
87800776:	2100      	movs	r1, #0
87800778:	2401      	movs	r4, #1
8780077a:	6034      	str	r4, [r6, #0]
8780077c:	602c      	str	r4, [r5, #0]
8780077e:	601a      	str	r2, [r3, #0]
87800780:	3308      	adds	r3, #8
87800782:	f843 1c04 	str.w	r1, [r3, #-4]
87800786:	4283      	cmp	r3, r0
87800788:	d1f9      	bne.n	8780077e <int_init+0x5e>
8780078a:	2300      	movs	r3, #0
8780078c:	f2c8 7380 	movt	r3, #34688	; 0x8780
87800790:	ee0c 3f10 	mcr	15, 0, r3, cr12, cr0, {0}
87800794:	bcf0      	pop	{r4, r5, r6, r7}
87800796:	4770      	bx	lr

87800798 <system_irqhandler>:
87800798:	f3c0 0209 	ubfx	r2, r0, #0, #10
8780079c:	2a9f      	cmp	r2, #159	; 0x9f
8780079e:	d900      	bls.n	878007a2 <system_irqhandler+0xa>
878007a0:	4770      	bx	lr
878007a2:	b510      	push	{r4, lr}
878007a4:	f241 146c 	movw	r4, #4460	; 0x116c
878007a8:	f2c8 7480 	movt	r4, #34688	; 0x8780
878007ac:	eb04 01c0 	add.w	r1, r4, r0, lsl #3
878007b0:	f8d4 2500 	ldr.w	r2, [r4, #1280]	; 0x500
878007b4:	f854 3030 	ldr.w	r3, [r4, r0, lsl #3]
878007b8:	6849      	ldr	r1, [r1, #4]
878007ba:	3201      	adds	r2, #1
878007bc:	f8c4 2500 	str.w	r2, [r4, #1280]	; 0x500
878007c0:	4798      	blx	r3
878007c2:	f8d4 3500 	ldr.w	r3, [r4, #1280]	; 0x500
878007c6:	3b01      	subs	r3, #1
878007c8:	f8c4 3500 	str.w	r3, [r4, #1280]	; 0x500
878007cc:	bd10      	pop	{r4, pc}
878007ce:	bf00      	nop

878007d0 <gpio1_io16_io31_irqhandler>:
878007d0:	b508      	push	{r3, lr}
878007d2:	200a      	movs	r0, #10
878007d4:	f7ff fe22 	bl	8780041c <delay_ms>
878007d8:	f44f 4040 	mov.w	r0, #49152	; 0xc000
878007dc:	f2c0 2009 	movt	r0, #521	; 0x209
878007e0:	2112      	movs	r1, #18
878007e2:	f7ff ff75 	bl	878006d0 <gpio_readPin>
878007e6:	b908      	cbnz	r0, 878007ec <gpio1_io16_io31_irqhandler+0x1c>
878007e8:	f7ff fe9c 	bl	87800524 <beep_toggle>
878007ec:	f44f 4040 	mov.w	r0, #49152	; 0xc000
878007f0:	2112      	movs	r1, #18
878007f2:	f2c0 2009 	movt	r0, #521	; 0x209
878007f6:	e8bd 4008 	ldmia.w	sp!, {r3, lr}
878007fa:	f7ff bef3 	b.w	878005e4 <gpio_interrupt_clear_flag>
878007fe:	bf00      	nop

87800800 <exti_init>:
87800800:	b570      	push	{r4, r5, r6, lr}
87800802:	228c      	movs	r2, #140	; 0x8c
87800804:	f44f 7346 	mov.w	r3, #792	; 0x318
87800808:	f44f 4440 	mov.w	r4, #49152	; 0xc000
8780080c:	b084      	sub	sp, #16
8780080e:	f2c0 220e 	movt	r2, #526	; 0x20e
87800812:	f2c0 230e 	movt	r3, #526	; 0x20e
87800816:	f2c0 2409 	movt	r4, #521	; 0x209
8780081a:	2005      	movs	r0, #5
8780081c:	f24f 0180 	movw	r1, #61568	; 0xf080
87800820:	6010      	str	r0, [r2, #0]
87800822:	4620      	mov	r0, r4
87800824:	6019      	str	r1, [r3, #0]
87800826:	aa01      	add	r2, sp, #4
87800828:	2112      	movs	r1, #18
8780082a:	2500      	movs	r5, #0
8780082c:	2304      	movs	r3, #4
8780082e:	9501      	str	r5, [sp, #4]
87800830:	9502      	str	r5, [sp, #8]
87800832:	9303      	str	r3, [sp, #12]
87800834:	f7ff ff18 	bl	87800668 <gpio_init>
87800838:	ee9f 3f10 	mrc	15, 4, r3, cr15, cr0, {0}
8780083c:	0c1b      	lsrs	r3, r3, #16
8780083e:	f241 160c 	movw	r6, #4364	; 0x110c
87800842:	f240 71d1 	movw	r1, #2001	; 0x7d1
87800846:	462a      	mov	r2, r5
87800848:	041b      	lsls	r3, r3, #16
8780084a:	2508      	movs	r5, #8
8780084c:	f2c8 7180 	movt	r1, #34688	; 0x8780
87800850:	2063      	movs	r0, #99	; 0x63
87800852:	519d      	str	r5, [r3, r6]
87800854:	f7ff ff56 	bl	87800704 <system_register_irqhandler>
87800858:	4620      	mov	r0, r4
8780085a:	2112      	movs	r1, #18
8780085c:	f7ff feb4 	bl	878005c8 <gpio_interrupt_enable>
87800860:	b004      	add	sp, #16
87800862:	bd70      	pop	{r4, r5, r6, pc}

87800864 <timer_irqhandler>:
87800864:	b508      	push	{r3, lr}
87800866:	2300      	movs	r3, #0
87800868:	f2c0 230d 	movt	r3, #525	; 0x20d
8780086c:	685b      	ldr	r3, [r3, #4]
8780086e:	07db      	lsls	r3, r3, #31
87800870:	d501      	bpl.n	87800876 <timer_irqhandler+0x12>
87800872:	f7ff fe1d 	bl	878004b0 <led_toggle>
87800876:	2300      	movs	r3, #0
87800878:	f2c0 230d 	movt	r3, #525	; 0x20d
8780087c:	685a      	ldr	r2, [r3, #4]
8780087e:	f042 0201 	orr.w	r2, r2, #1
87800882:	605a      	str	r2, [r3, #4]
87800884:	bd08      	pop	{r3, pc}
87800886:	bf00      	nop

87800888 <epit_init>:
87800888:	f5b0 5f80 	cmp.w	r0, #4096	; 0x1000
8780088c:	f04f 0200 	mov.w	r2, #0
87800890:	b570      	push	{r4, r5, r6, lr}
87800892:	bf28      	it	cs
87800894:	f44f 5080 	movcs.w	r0, #4096	; 0x1000
87800898:	3801      	subs	r0, #1
8780089a:	2400      	movs	r4, #0
8780089c:	f2c0 240d 	movt	r4, #525	; 0x20d
878008a0:	0100      	lsls	r0, r0, #4
878008a2:	6022      	str	r2, [r4, #0]
878008a4:	f040 7080 	orr.w	r0, r0, #16777216	; 0x1000000
878008a8:	f040 000e 	orr.w	r0, r0, #14
878008ac:	6020      	str	r0, [r4, #0]
878008ae:	60a1      	str	r1, [r4, #8]
878008b0:	60e2      	str	r2, [r4, #12]
878008b2:	ee9f 3f10 	mrc	15, 4, r3, cr15, cr0, {0}
878008b6:	0c1b      	lsrs	r3, r3, #16
878008b8:	f241 1508 	movw	r5, #4360	; 0x1108
878008bc:	f640 0165 	movw	r1, #2149	; 0x865
878008c0:	f04f 7680 	mov.w	r6, #16777216	; 0x1000000
878008c4:	041b      	lsls	r3, r3, #16
878008c6:	f2c8 7180 	movt	r1, #34688	; 0x8780
878008ca:	2058      	movs	r0, #88	; 0x58
878008cc:	515e      	str	r6, [r3, r5]
878008ce:	f7ff ff19 	bl	87800704 <system_register_irqhandler>
878008d2:	6823      	ldr	r3, [r4, #0]
878008d4:	f043 0301 	orr.w	r3, r3, #1
878008d8:	6023      	str	r3, [r4, #0]
878008da:	bd70      	pop	{r4, r5, r6, pc}

878008dc <timer_irqhandler>:
878008dc:	b508      	push	{r3, lr}
878008de:	2300      	movs	r3, #0
878008e0:	f2c0 230d 	movt	r3, #525	; 0x20d
878008e4:	685a      	ldr	r2, [r3, #4]
878008e6:	07d2      	lsls	r2, r2, #31
878008e8:	d505      	bpl.n	878008f6 <timer_irqhandler+0x1a>
878008ea:	681a      	ldr	r2, [r3, #0]
878008ec:	f022 0201 	bic.w	r2, r2, #1
878008f0:	601a      	str	r2, [r3, #0]
878008f2:	f7ff fe17 	bl	87800524 <beep_toggle>
878008f6:	2300      	movs	r3, #0
878008f8:	f2c0 230d 	movt	r3, #525	; 0x20d
878008fc:	685a      	ldr	r2, [r3, #4]
878008fe:	f042 0201 	orr.w	r2, r2, #1
87800902:	605a      	str	r2, [r3, #4]
87800904:	bd08      	pop	{r3, pc}
87800906:	bf00      	nop

87800908 <gpio1_io16_io31_irqhandler>:
87800908:	2300      	movs	r3, #0
8780090a:	f44f 4040 	mov.w	r0, #49152	; 0xc000
8780090e:	f2c0 230d 	movt	r3, #525	; 0x20d
87800912:	f2c0 2009 	movt	r0, #521	; 0x209
87800916:	681a      	ldr	r2, [r3, #0]
87800918:	2112      	movs	r1, #18
8780091a:	b410      	push	{r4}
8780091c:	f44f 5411 	mov.w	r4, #9280	; 0x2440
87800920:	f2c0 0414 	movt	r4, #20
87800924:	f022 0201 	bic.w	r2, r2, #1
87800928:	601a      	str	r2, [r3, #0]
8780092a:	609c      	str	r4, [r3, #8]
8780092c:	681a      	ldr	r2, [r3, #0]
8780092e:	f85d 4b04 	ldr.w	r4, [sp], #4
87800932:	f042 0201 	orr.w	r2, r2, #1
87800936:	601a      	str	r2, [r3, #0]
87800938:	f7ff be54 	b.w	878005e4 <gpio_interrupt_clear_flag>

8780093c <key_filter_init>:
8780093c:	b5f0      	push	{r4, r5, r6, r7, lr}
8780093e:	228c      	movs	r2, #140	; 0x8c
87800940:	f44f 7346 	mov.w	r3, #792	; 0x318
87800944:	f44f 4540 	mov.w	r5, #49152	; 0xc000
87800948:	b085      	sub	sp, #20
8780094a:	f2c0 220e 	movt	r2, #526	; 0x20e
8780094e:	f2c0 230e 	movt	r3, #526	; 0x20e
87800952:	f2c0 2509 	movt	r5, #521	; 0x209
87800956:	2005      	movs	r0, #5
87800958:	f24f 0180 	movw	r1, #61568	; 0xf080
8780095c:	6010      	str	r0, [r2, #0]
8780095e:	4628      	mov	r0, r5
87800960:	6019      	str	r1, [r3, #0]
87800962:	aa01      	add	r2, sp, #4
87800964:	2112      	movs	r1, #18
87800966:	2400      	movs	r4, #0
87800968:	2304      	movs	r3, #4
8780096a:	9401      	str	r4, [sp, #4]
8780096c:	9402      	str	r4, [sp, #8]
8780096e:	9303      	str	r3, [sp, #12]
87800970:	f7ff fe7a 	bl	87800668 <gpio_init>
87800974:	ee9f 3f10 	mrc	15, 4, r3, cr15, cr0, {0}
87800978:	0c1b      	lsrs	r3, r3, #16
8780097a:	f241 160c 	movw	r6, #4364	; 0x110c
8780097e:	f640 1109 	movw	r1, #2313	; 0x909
87800982:	4622      	mov	r2, r4
87800984:	041b      	lsls	r3, r3, #16
87800986:	2708      	movs	r7, #8
87800988:	f2c8 7180 	movt	r1, #34688	; 0x8780
8780098c:	2063      	movs	r0, #99	; 0x63
8780098e:	519f      	str	r7, [r3, r6]
87800990:	f7ff feb8 	bl	87800704 <system_register_irqhandler>
87800994:	4628      	mov	r0, r5
87800996:	2112      	movs	r1, #18
87800998:	f7ff fe16 	bl	878005c8 <gpio_interrupt_enable>
8780099c:	4623      	mov	r3, r4
8780099e:	f2c0 230d 	movt	r3, #525	; 0x20d
878009a2:	210e      	movs	r1, #14
878009a4:	f44f 5211 	mov.w	r2, #9280	; 0x2440
878009a8:	601c      	str	r4, [r3, #0]
878009aa:	f2c0 1100 	movt	r1, #256	; 0x100
878009ae:	f2c0 0214 	movt	r2, #20
878009b2:	6019      	str	r1, [r3, #0]
878009b4:	609a      	str	r2, [r3, #8]
878009b6:	60dc      	str	r4, [r3, #12]
878009b8:	ee9f 3f10 	mrc	15, 4, r3, cr15, cr0, {0}
878009bc:	0c1b      	lsrs	r3, r3, #16
878009be:	f241 1508 	movw	r5, #4360	; 0x1108
878009c2:	f640 01dd 	movw	r1, #2269	; 0x8dd
878009c6:	4622      	mov	r2, r4
878009c8:	041b      	lsls	r3, r3, #16
878009ca:	f04f 7480 	mov.w	r4, #16777216	; 0x1000000
878009ce:	f2c8 7180 	movt	r1, #34688	; 0x8780
878009d2:	2058      	movs	r0, #88	; 0x58
878009d4:	515c      	str	r4, [r3, r5]
878009d6:	f7ff fe95 	bl	87800704 <system_register_irqhandler>
878009da:	b005      	add	sp, #20
878009dc:	bdf0      	pop	{r4, r5, r6, r7, pc}
878009de:	bf00      	nop

878009e0 <uart_setbaudrate>:
878009e0:	e92d 4ff0 	stmdb	sp!, {r4, r5, r6, r7, r8, r9, sl, fp, lr}
878009e4:	010d      	lsls	r5, r1, #4
878009e6:	b085      	sub	sp, #20
878009e8:	460f      	mov	r7, r1
878009ea:	4682      	mov	sl, r0
878009ec:	4691      	mov	r9, r2
878009ee:	f000 80f0 	beq.w	87800bd2 <uart_setbaudrate+0x1f2>
878009f2:	462c      	mov	r4, r5
878009f4:	4610      	mov	r0, r2
878009f6:	e000      	b.n	878009fa <uart_setbaudrate+0x1a>
878009f8:	460c      	mov	r4, r1
878009fa:	4621      	mov	r1, r4
878009fc:	f000 fa9e 	bl	87800f3c <__aeabi_uidivmod>
87800a00:	4620      	mov	r0, r4
87800a02:	2900      	cmp	r1, #0
87800a04:	d1f8      	bne.n	878009f8 <uart_setbaudrate+0x18>
87800a06:	4621      	mov	r1, r4
87800a08:	4648      	mov	r0, r9
87800a0a:	f000 f969 	bl	87800ce0 <__udivsi3>
87800a0e:	4621      	mov	r1, r4
87800a10:	4606      	mov	r6, r0
87800a12:	4628      	mov	r0, r5
87800a14:	f000 f964 	bl	87800ce0 <__udivsi3>
87800a18:	f64f 73f9 	movw	r3, #65529	; 0xfff9
87800a1c:	f2c0 0306 	movt	r3, #6
87800a20:	429e      	cmp	r6, r3
87800a22:	bf98      	it	ls
87800a24:	f5b0 3f80 	cmpls.w	r0, #65536	; 0x10000
87800a28:	4605      	mov	r5, r0
87800a2a:	bf2c      	ite	cs
87800a2c:	2301      	movcs	r3, #1
87800a2e:	2300      	movcc	r3, #0
87800a30:	d276      	bcs.n	87800b20 <uart_setbaudrate+0x140>
87800a32:	f248 0101 	movw	r1, #32769	; 0x8001
87800a36:	1e72      	subs	r2, r6, #1
87800a38:	f2c8 0100 	movt	r1, #32768	; 0x8000
87800a3c:	9301      	str	r3, [sp, #4]
87800a3e:	fba2 2301 	umull	r2, r3, r2, r1
87800a42:	ea4f 1b06 	mov.w	fp, r6, lsl #4
87800a46:	4680      	mov	r8, r0
87800a48:	0bda      	lsrs	r2, r3, #15
87800a4a:	1e53      	subs	r3, r2, #1
87800a4c:	3201      	adds	r2, #1
87800a4e:	9203      	str	r2, [sp, #12]
87800a50:	2b05      	cmp	r3, #5
87800a52:	4648      	mov	r0, r9
87800a54:	f04f 0100 	mov.w	r1, #0
87800a58:	bf97      	itett	ls
87800a5a:	f241 1248 	movwls	r2, #4424	; 0x1148
87800a5e:	2305      	movhi	r3, #5
87800a60:	f2c8 7280 	movtls	r2, #34688	; 0x8780
87800a64:	f852 3023 	ldrls.w	r3, [r2, r3, lsl #2]
87800a68:	9302      	str	r3, [sp, #8]
87800a6a:	f1bb 0f00 	cmp.w	fp, #0
87800a6e:	f000 80ae 	beq.w	87800bce <uart_setbaudrate+0x1ee>
87800a72:	465c      	mov	r4, fp
87800a74:	e000      	b.n	87800a78 <uart_setbaudrate+0x98>
87800a76:	4614      	mov	r4, r2
87800a78:	4622      	mov	r2, r4
87800a7a:	2300      	movs	r3, #0
87800a7c:	f000 fa6c 	bl	87800f58 <__aeabi_uldivmod>
87800a80:	4620      	mov	r0, r4
87800a82:	2100      	movs	r1, #0
87800a84:	2a00      	cmp	r2, #0
87800a86:	d1f6      	bne.n	87800a76 <uart_setbaudrate+0x96>
87800a88:	4648      	mov	r0, r9
87800a8a:	4621      	mov	r1, r4
87800a8c:	f000 f928 	bl	87800ce0 <__udivsi3>
87800a90:	9a01      	ldr	r2, [sp, #4]
87800a92:	4621      	mov	r1, r4
87800a94:	fba0 8908 	umull	r8, r9, r0, r8
87800a98:	4603      	mov	r3, r0
87800a9a:	4658      	mov	r0, fp
87800a9c:	fb03 9902 	mla	r9, r3, r2, r9
87800aa0:	f000 f91e 	bl	87800ce0 <__udivsi3>
87800aa4:	2300      	movs	r3, #0
87800aa6:	4649      	mov	r1, r9
87800aa8:	4602      	mov	r2, r0
87800aaa:	4640      	mov	r0, r8
87800aac:	f000 fa54 	bl	87800f58 <__aeabi_uldivmod>
87800ab0:	2300      	movs	r3, #0
87800ab2:	4299      	cmp	r1, r3
87800ab4:	bf08      	it	eq
87800ab6:	42b8      	cmpeq	r0, r7
87800ab8:	d32e      	bcc.n	87800b18 <uart_setbaudrate+0x138>
87800aba:	1bc0      	subs	r0, r0, r7
87800abc:	eb61 0103 	sbc.w	r1, r1, r3
87800ac0:	f248 521f 	movw	r2, #34079	; 0x851f
87800ac4:	f2c5 12eb 	movt	r2, #20971	; 0x51eb
87800ac8:	fba7 2302 	umull	r2, r3, r7, r2
87800acc:	095a      	lsrs	r2, r3, #5
87800ace:	2300      	movs	r3, #0
87800ad0:	4299      	cmp	r1, r3
87800ad2:	eb02 0242 	add.w	r2, r2, r2, lsl #1
87800ad6:	bf08      	it	eq
87800ad8:	4290      	cmpeq	r0, r2
87800ada:	d21a      	bcs.n	87800b12 <uart_setbaudrate+0x132>
87800adc:	9b02      	ldr	r3, [sp, #8]
87800ade:	3d01      	subs	r5, #1
87800ae0:	f8da 1090 	ldr.w	r1, [sl, #144]	; 0x90
87800ae4:	4630      	mov	r0, r6
87800ae6:	b2ad      	uxth	r5, r5
87800ae8:	01db      	lsls	r3, r3, #7
87800aea:	f403 7260 	and.w	r2, r3, #896	; 0x380
87800aee:	f421 7360 	bic.w	r3, r1, #896	; 0x380
87800af2:	f8ca 3090 	str.w	r3, [sl, #144]	; 0x90
87800af6:	f8da 3090 	ldr.w	r3, [sl, #144]	; 0x90
87800afa:	9903      	ldr	r1, [sp, #12]
87800afc:	4313      	orrs	r3, r2
87800afe:	f8ca 3090 	str.w	r3, [sl, #144]	; 0x90
87800b02:	f8ca 50a4 	str.w	r5, [sl, #164]	; 0xa4
87800b06:	f000 f8eb 	bl	87800ce0 <__udivsi3>
87800b0a:	3801      	subs	r0, #1
87800b0c:	b280      	uxth	r0, r0
87800b0e:	f8ca 00a8 	str.w	r0, [sl, #168]	; 0xa8
87800b12:	b005      	add	sp, #20
87800b14:	e8bd 8ff0 	ldmia.w	sp!, {r4, r5, r6, r7, r8, r9, sl, fp, pc}
87800b18:	1a38      	subs	r0, r7, r0
87800b1a:	eb63 0101 	sbc.w	r1, r3, r1
87800b1e:	e7cf      	b.n	87800ac0 <uart_setbaudrate+0xe0>
87800b20:	1e71      	subs	r1, r6, #1
87800b22:	f646 52b9 	movw	r2, #28089	; 0x6db9
87800b26:	f100 3bff 	add.w	fp, r0, #4294967295	; 0xffffffff
87800b2a:	f2c2 4293 	movt	r2, #9363	; 0x2493
87800b2e:	f248 0401 	movw	r4, #32769	; 0x8001
87800b32:	4630      	mov	r0, r6
87800b34:	fba1 2302 	umull	r2, r3, r1, r2
87800b38:	f2c8 0400 	movt	r4, #32768	; 0x8000
87800b3c:	fbab bc04 	umull	fp, ip, fp, r4
87800b40:	1ac9      	subs	r1, r1, r3
87800b42:	eb03 0351 	add.w	r3, r3, r1, lsr #1
87800b46:	0c9b      	lsrs	r3, r3, #18
87800b48:	ea4f 38dc 	mov.w	r8, ip, lsr #15
87800b4c:	3301      	adds	r3, #1
87800b4e:	f108 0801 	add.w	r8, r8, #1
87800b52:	4598      	cmp	r8, r3
87800b54:	bf38      	it	cc
87800b56:	4698      	movcc	r8, r3
87800b58:	4641      	mov	r1, r8
87800b5a:	f000 f8c1 	bl	87800ce0 <__udivsi3>
87800b5e:	4641      	mov	r1, r8
87800b60:	4606      	mov	r6, r0
87800b62:	4628      	mov	r0, r5
87800b64:	f000 f8bc 	bl	87800ce0 <__udivsi3>
87800b68:	4605      	mov	r5, r0
87800b6a:	b976      	cbnz	r6, 87800b8a <uart_setbaudrate+0x1aa>
87800b6c:	bb40      	cbnz	r0, 87800bc0 <uart_setbaudrate+0x1e0>
87800b6e:	f04f 0801 	mov.w	r8, #1
87800b72:	4601      	mov	r1, r0
87800b74:	9001      	str	r0, [sp, #4]
87800b76:	2305      	movs	r3, #5
87800b78:	4646      	mov	r6, r8
87800b7a:	f8cd 800c 	str.w	r8, [sp, #12]
87800b7e:	4645      	mov	r5, r8
87800b80:	4648      	mov	r0, r9
87800b82:	f04f 0b10 	mov.w	fp, #16
87800b86:	9302      	str	r3, [sp, #8]
87800b88:	e773      	b.n	87800a72 <uart_setbaudrate+0x92>
87800b8a:	1e72      	subs	r2, r6, #1
87800b8c:	b158      	cbz	r0, 87800ba6 <uart_setbaudrate+0x1c6>
87800b8e:	fba2 2304 	umull	r2, r3, r2, r4
87800b92:	ea4f 1b06 	mov.w	fp, r6, lsl #4
87800b96:	0bda      	lsrs	r2, r3, #15
87800b98:	1e53      	subs	r3, r2, #1
87800b9a:	3201      	adds	r2, #1
87800b9c:	9203      	str	r2, [sp, #12]
87800b9e:	46a8      	mov	r8, r5
87800ba0:	2200      	movs	r2, #0
87800ba2:	9201      	str	r2, [sp, #4]
87800ba4:	e754      	b.n	87800a50 <uart_setbaudrate+0x70>
87800ba6:	fba2 2304 	umull	r2, r3, r2, r4
87800baa:	f04f 0801 	mov.w	r8, #1
87800bae:	9001      	str	r0, [sp, #4]
87800bb0:	ea4f 1b06 	mov.w	fp, r6, lsl #4
87800bb4:	4645      	mov	r5, r8
87800bb6:	0bda      	lsrs	r2, r3, #15
87800bb8:	1e53      	subs	r3, r2, #1
87800bba:	4442      	add	r2, r8
87800bbc:	9203      	str	r2, [sp, #12]
87800bbe:	e747      	b.n	87800a50 <uart_setbaudrate+0x70>
87800bc0:	2201      	movs	r2, #1
87800bc2:	f04f 0b10 	mov.w	fp, #16
87800bc6:	4616      	mov	r6, r2
87800bc8:	f04f 33ff 	mov.w	r3, #4294967295	; 0xffffffff
87800bcc:	e7e6      	b.n	87800b9c <uart_setbaudrate+0x1bc>
87800bce:	2401      	movs	r4, #1
87800bd0:	e75a      	b.n	87800a88 <uart_setbaudrate+0xa8>
87800bd2:	2401      	movs	r4, #1
87800bd4:	e717      	b.n	87800a06 <uart_setbaudrate+0x26>
87800bd6:	bf00      	nop

87800bd8 <uart1_init>:
87800bd8:	b570      	push	{r4, r5, r6, lr}
87800bda:	2084      	movs	r0, #132	; 0x84
87800bdc:	f44f 7644 	mov.w	r6, #784	; 0x310
87800be0:	2488      	movs	r4, #136	; 0x88
87800be2:	f240 6224 	movw	r2, #1572	; 0x624
87800be6:	f44f 7145 	mov.w	r1, #788	; 0x314
87800bea:	2300      	movs	r3, #0
87800bec:	f2c0 200e 	movt	r0, #526	; 0x20e
87800bf0:	f2c0 2302 	movt	r3, #514	; 0x202
87800bf4:	f2c0 260e 	movt	r6, #526	; 0x20e
87800bf8:	f2c0 220e 	movt	r2, #526	; 0x20e
87800bfc:	f2c0 210e 	movt	r1, #526	; 0x20e
87800c00:	f2c0 240e 	movt	r4, #526	; 0x20e
87800c04:	2500      	movs	r5, #0
87800c06:	6005      	str	r5, [r0, #0]
87800c08:	f241 00b0 	movw	r0, #4272	; 0x10b0
87800c0c:	6030      	str	r0, [r6, #0]
87800c0e:	2603      	movs	r6, #3
87800c10:	6025      	str	r5, [r4, #0]
87800c12:	6016      	str	r6, [r2, #0]
87800c14:	461a      	mov	r2, r3
87800c16:	6008      	str	r0, [r1, #0]
87800c18:	f8d3 1080 	ldr.w	r1, [r3, #128]	; 0x80
87800c1c:	f021 0101 	bic.w	r1, r1, #1
87800c20:	f8c3 1080 	str.w	r1, [r3, #128]	; 0x80
87800c24:	f8d3 1084 	ldr.w	r1, [r3, #132]	; 0x84
87800c28:	f021 0101 	bic.w	r1, r1, #1
87800c2c:	f8c3 1084 	str.w	r1, [r3, #132]	; 0x84
87800c30:	f8d2 3084 	ldr.w	r3, [r2, #132]	; 0x84
87800c34:	2400      	movs	r4, #0
87800c36:	f2c0 2402 	movt	r4, #514	; 0x202
87800c3a:	07db      	lsls	r3, r3, #31
87800c3c:	d5f8      	bpl.n	87800c30 <uart1_init+0x58>
87800c3e:	2300      	movs	r3, #0
87800c40:	f244 0126 	movw	r1, #16422	; 0x4026
87800c44:	f8c4 3080 	str.w	r3, [r4, #128]	; 0x80
87800c48:	f44f 4234 	mov.w	r2, #46080	; 0xb400
87800c4c:	f8c4 3084 	str.w	r3, [r4, #132]	; 0x84
87800c50:	f2c0 42c4 	movt	r2, #1220	; 0x4c4
87800c54:	f8c4 1084 	str.w	r1, [r4, #132]	; 0x84
87800c58:	4620      	mov	r0, r4
87800c5a:	f8d4 3088 	ldr.w	r3, [r4, #136]	; 0x88
87800c5e:	f44f 31e1 	mov.w	r1, #115200	; 0x1c200
87800c62:	f043 0304 	orr.w	r3, r3, #4
87800c66:	f8c4 3088 	str.w	r3, [r4, #136]	; 0x88
87800c6a:	f7ff feb9 	bl	878009e0 <uart_setbaudrate>
87800c6e:	f8d4 3080 	ldr.w	r3, [r4, #128]	; 0x80
87800c72:	f043 0301 	orr.w	r3, r3, #1
87800c76:	f8c4 3080 	str.w	r3, [r4, #128]	; 0x80
87800c7a:	bd70      	pop	{r4, r5, r6, pc}

87800c7c <uart1_putc>:
87800c7c:	2100      	movs	r1, #0
87800c7e:	f2c0 2102 	movt	r1, #514	; 0x202
87800c82:	f8d1 2098 	ldr.w	r2, [r1, #152]	; 0x98
87800c86:	2300      	movs	r3, #0
87800c88:	f2c0 2302 	movt	r3, #514	; 0x202
87800c8c:	0712      	lsls	r2, r2, #28
87800c8e:	d5f8      	bpl.n	87800c82 <uart1_putc+0x6>
87800c90:	6418      	str	r0, [r3, #64]	; 0x40
87800c92:	4770      	bx	lr

87800c94 <uart1_getc>:
87800c94:	2100      	movs	r1, #0
87800c96:	f2c0 2102 	movt	r1, #514	; 0x202
87800c9a:	f8d1 2098 	ldr.w	r2, [r1, #152]	; 0x98
87800c9e:	2300      	movs	r3, #0
87800ca0:	f2c0 2302 	movt	r3, #514	; 0x202
87800ca4:	07d2      	lsls	r2, r2, #31
87800ca6:	d5f8      	bpl.n	87800c9a <uart1_getc+0x6>
87800ca8:	6818      	ldr	r0, [r3, #0]
87800caa:	b2c0      	uxtb	r0, r0
87800cac:	4770      	bx	lr
87800cae:	bf00      	nop

87800cb0 <uart1_puts>:
87800cb0:	7801      	ldrb	r1, [r0, #0]
87800cb2:	b179      	cbz	r1, 87800cd4 <uart1_puts+0x24>
87800cb4:	2200      	movs	r2, #0
87800cb6:	f2c0 2202 	movt	r2, #514	; 0x202
87800cba:	b410      	push	{r4}
87800cbc:	4614      	mov	r4, r2
87800cbe:	f8d2 3098 	ldr.w	r3, [r2, #152]	; 0x98
87800cc2:	071b      	lsls	r3, r3, #28
87800cc4:	d5fb      	bpl.n	87800cbe <uart1_puts+0xe>
87800cc6:	6421      	str	r1, [r4, #64]	; 0x40
87800cc8:	f810 1f01 	ldrb.w	r1, [r0, #1]!
87800ccc:	2900      	cmp	r1, #0
87800cce:	d1f6      	bne.n	87800cbe <uart1_puts+0xe>
87800cd0:	f85d 4b04 	ldr.w	r4, [sp], #4
87800cd4:	4770      	bx	lr
87800cd6:	bf00      	nop

87800cd8 <raise>:
87800cd8:	4770      	bx	lr
87800cda:	bf00      	nop
87800cdc:	0000      	movs	r0, r0
	...

87800ce0 <__udivsi3>:
87800ce0:	1e4a      	subs	r2, r1, #1
87800ce2:	bf08      	it	eq
87800ce4:	4770      	bxeq	lr
87800ce6:	f0c0 8124 	bcc.w	87800f32 <__udivsi3+0x252>
87800cea:	4288      	cmp	r0, r1
87800cec:	f240 8116 	bls.w	87800f1c <__udivsi3+0x23c>
87800cf0:	4211      	tst	r1, r2
87800cf2:	f000 8117 	beq.w	87800f24 <__udivsi3+0x244>
87800cf6:	fab0 f380 	clz	r3, r0
87800cfa:	fab1 f281 	clz	r2, r1
87800cfe:	eba2 0303 	sub.w	r3, r2, r3
87800d02:	f1c3 031f 	rsb	r3, r3, #31
87800d06:	a204      	add	r2, pc, #16	; (adr r2, 87800d18 <__udivsi3+0x38>)
87800d08:	eb02 1303 	add.w	r3, r2, r3, lsl #4
87800d0c:	f04f 0200 	mov.w	r2, #0
87800d10:	469f      	mov	pc, r3
87800d12:	bf00      	nop
87800d14:	f3af 8000 	nop.w
87800d18:	ebb0 7fc1 	cmp.w	r0, r1, lsl #31
87800d1c:	bf00      	nop
87800d1e:	eb42 0202 	adc.w	r2, r2, r2
87800d22:	bf28      	it	cs
87800d24:	eba0 70c1 	subcs.w	r0, r0, r1, lsl #31
87800d28:	ebb0 7f81 	cmp.w	r0, r1, lsl #30
87800d2c:	bf00      	nop
87800d2e:	eb42 0202 	adc.w	r2, r2, r2
87800d32:	bf28      	it	cs
87800d34:	eba0 7081 	subcs.w	r0, r0, r1, lsl #30
87800d38:	ebb0 7f41 	cmp.w	r0, r1, lsl #29
87800d3c:	bf00      	nop
87800d3e:	eb42 0202 	adc.w	r2, r2, r2
87800d42:	bf28      	it	cs
87800d44:	eba0 7041 	subcs.w	r0, r0, r1, lsl #29
87800d48:	ebb0 7f01 	cmp.w	r0, r1, lsl #28
87800d4c:	bf00      	nop
87800d4e:	eb42 0202 	adc.w	r2, r2, r2
87800d52:	bf28      	it	cs
87800d54:	eba0 7001 	subcs.w	r0, r0, r1, lsl #28
87800d58:	ebb0 6fc1 	cmp.w	r0, r1, lsl #27
87800d5c:	bf00      	nop
87800d5e:	eb42 0202 	adc.w	r2, r2, r2
87800d62:	bf28      	it	cs
87800d64:	eba0 60c1 	subcs.w	r0, r0, r1, lsl #27
87800d68:	ebb0 6f81 	cmp.w	r0, r1, lsl #26
87800d6c:	bf00      	nop
87800d6e:	eb42 0202 	adc.w	r2, r2, r2
87800d72:	bf28      	it	cs
87800d74:	eba0 6081 	subcs.w	r0, r0, r1, lsl #26
87800d78:	ebb0 6f41 	cmp.w	r0, r1, lsl #25
87800d7c:	bf00      	nop
87800d7e:	eb42 0202 	adc.w	r2, r2, r2
87800d82:	bf28      	it	cs
87800d84:	eba0 6041 	subcs.w	r0, r0, r1, lsl #25
87800d88:	ebb0 6f01 	cmp.w	r0, r1, lsl #24
87800d8c:	bf00      	nop
87800d8e:	eb42 0202 	adc.w	r2, r2, r2
87800d92:	bf28      	it	cs
87800d94:	eba0 6001 	subcs.w	r0, r0, r1, lsl #24
87800d98:	ebb0 5fc1 	cmp.w	r0, r1, lsl #23
87800d9c:	bf00      	nop
87800d9e:	eb42 0202 	adc.w	r2, r2, r2
87800da2:	bf28      	it	cs
87800da4:	eba0 50c1 	subcs.w	r0, r0, r1, lsl #23
87800da8:	ebb0 5f81 	cmp.w	r0, r1, lsl #22
87800dac:	bf00      	nop
87800dae:	eb42 0202 	adc.w	r2, r2, r2
87800db2:	bf28      	it	cs
87800db4:	eba0 5081 	subcs.w	r0, r0, r1, lsl #22
87800db8:	ebb0 5f41 	cmp.w	r0, r1, lsl #21
87800dbc:	bf00      	nop
87800dbe:	eb42 0202 	adc.w	r2, r2, r2
87800dc2:	bf28      	it	cs
87800dc4:	eba0 5041 	subcs.w	r0, r0, r1, lsl #21
87800dc8:	ebb0 5f01 	cmp.w	r0, r1, lsl #20
87800dcc:	bf00      	nop
87800dce:	eb42 0202 	adc.w	r2, r2, r2
87800dd2:	bf28      	it	cs
87800dd4:	eba0 5001 	subcs.w	r0, r0, r1, lsl #20
87800dd8:	ebb0 4fc1 	cmp.w	r0, r1, lsl #19
87800ddc:	bf00      	nop
87800dde:	eb42 0202 	adc.w	r2, r2, r2
87800de2:	bf28      	it	cs
87800de4:	eba0 40c1 	subcs.w	r0, r0, r1, lsl #19
87800de8:	ebb0 4f81 	cmp.w	r0, r1, lsl #18
87800dec:	bf00      	nop
87800dee:	eb42 0202 	adc.w	r2, r2, r2
87800df2:	bf28      	it	cs
87800df4:	eba0 4081 	subcs.w	r0, r0, r1, lsl #18
87800df8:	ebb0 4f41 	cmp.w	r0, r1, lsl #17
87800dfc:	bf00      	nop
87800dfe:	eb42 0202 	adc.w	r2, r2, r2
87800e02:	bf28      	it	cs
87800e04:	eba0 4041 	subcs.w	r0, r0, r1, lsl #17
87800e08:	ebb0 4f01 	cmp.w	r0, r1, lsl #16
87800e0c:	bf00      	nop
87800e0e:	eb42 0202 	adc.w	r2, r2, r2
87800e12:	bf28      	it	cs
87800e14:	eba0 4001 	subcs.w	r0, r0, r1, lsl #16
87800e18:	ebb0 3fc1 	cmp.w	r0, r1, lsl #15
87800e1c:	bf00      	nop
87800e1e:	eb42 0202 	adc.w	r2, r2, r2
87800e22:	bf28      	it	cs
87800e24:	eba0 30c1 	subcs.w	r0, r0, r1, lsl #15
87800e28:	ebb0 3f81 	cmp.w	r0, r1, lsl #14
87800e2c:	bf00      	nop
87800e2e:	eb42 0202 	adc.w	r2, r2, r2
87800e32:	bf28      	it	cs
87800e34:	eba0 3081 	subcs.w	r0, r0, r1, lsl #14
87800e38:	ebb0 3f41 	cmp.w	r0, r1, lsl #13
87800e3c:	bf00      	nop
87800e3e:	eb42 0202 	adc.w	r2, r2, r2
87800e42:	bf28      	it	cs
87800e44:	eba0 3041 	subcs.w	r0, r0, r1, lsl #13
87800e48:	ebb0 3f01 	cmp.w	r0, r1, lsl #12
87800e4c:	bf00      	nop
87800e4e:	eb42 0202 	adc.w	r2, r2, r2
87800e52:	bf28      	it	cs
87800e54:	eba0 3001 	subcs.w	r0, r0, r1, lsl #12
87800e58:	ebb0 2fc1 	cmp.w	r0, r1, lsl #11
87800e5c:	bf00      	nop
87800e5e:	eb42 0202 	adc.w	r2, r2, r2
87800e62:	bf28      	it	cs
87800e64:	eba0 20c1 	subcs.w	r0, r0, r1, lsl #11
87800e68:	ebb0 2f81 	cmp.w	r0, r1, lsl #10
87800e6c:	bf00      	nop
87800e6e:	eb42 0202 	adc.w	r2, r2, r2
87800e72:	bf28      	it	cs
87800e74:	eba0 2081 	subcs.w	r0, r0, r1, lsl #10
87800e78:	ebb0 2f41 	cmp.w	r0, r1, lsl #9
87800e7c:	bf00      	nop
87800e7e:	eb42 0202 	adc.w	r2, r2, r2
87800e82:	bf28      	it	cs
87800e84:	eba0 2041 	subcs.w	r0, r0, r1, lsl #9
87800e88:	ebb0 2f01 	cmp.w	r0, r1, lsl #8
87800e8c:	bf00      	nop
87800e8e:	eb42 0202 	adc.w	r2, r2, r2
87800e92:	bf28      	it	cs
87800e94:	eba0 2001 	subcs.w	r0, r0, r1, lsl #8
87800e98:	ebb0 1fc1 	cmp.w	r0, r1, lsl #7
87800e9c:	bf00      	nop
87800e9e:	eb42 0202 	adc.w	r2, r2, r2
87800ea2:	bf28      	it	cs
87800ea4:	eba0 10c1 	subcs.w	r0, r0, r1, lsl #7
87800ea8:	ebb0 1f81 	cmp.w	r0, r1, lsl #6
87800eac:	bf00      	nop
87800eae:	eb42 0202 	adc.w	r2, r2, r2
87800eb2:	bf28      	it	cs
87800eb4:	eba0 1081 	subcs.w	r0, r0, r1, lsl #6
87800eb8:	ebb0 1f41 	cmp.w	r0, r1, lsl #5
87800ebc:	bf00      	nop
87800ebe:	eb42 0202 	adc.w	r2, r2, r2
87800ec2:	bf28      	it	cs
87800ec4:	eba0 1041 	subcs.w	r0, r0, r1, lsl #5
87800ec8:	ebb0 1f01 	cmp.w	r0, r1, lsl #4
87800ecc:	bf00      	nop
87800ece:	eb42 0202 	adc.w	r2, r2, r2
87800ed2:	bf28      	it	cs
87800ed4:	eba0 1001 	subcs.w	r0, r0, r1, lsl #4
87800ed8:	ebb0 0fc1 	cmp.w	r0, r1, lsl #3
87800edc:	bf00      	nop
87800ede:	eb42 0202 	adc.w	r2, r2, r2
87800ee2:	bf28      	it	cs
87800ee4:	eba0 00c1 	subcs.w	r0, r0, r1, lsl #3
87800ee8:	ebb0 0f81 	cmp.w	r0, r1, lsl #2
87800eec:	bf00      	nop
87800eee:	eb42 0202 	adc.w	r2, r2, r2
87800ef2:	bf28      	it	cs
87800ef4:	eba0 0081 	subcs.w	r0, r0, r1, lsl #2
87800ef8:	ebb0 0f41 	cmp.w	r0, r1, lsl #1
87800efc:	bf00      	nop
87800efe:	eb42 0202 	adc.w	r2, r2, r2
87800f02:	bf28      	it	cs
87800f04:	eba0 0041 	subcs.w	r0, r0, r1, lsl #1
87800f08:	ebb0 0f01 	cmp.w	r0, r1
87800f0c:	bf00      	nop
87800f0e:	eb42 0202 	adc.w	r2, r2, r2
87800f12:	bf28      	it	cs
87800f14:	eba0 0001 	subcs.w	r0, r0, r1
87800f18:	4610      	mov	r0, r2
87800f1a:	4770      	bx	lr
87800f1c:	bf0c      	ite	eq
87800f1e:	2001      	moveq	r0, #1
87800f20:	2000      	movne	r0, #0
87800f22:	4770      	bx	lr
87800f24:	fab1 f281 	clz	r2, r1
87800f28:	f1c2 021f 	rsb	r2, r2, #31
87800f2c:	fa20 f002 	lsr.w	r0, r0, r2
87800f30:	4770      	bx	lr
87800f32:	b108      	cbz	r0, 87800f38 <__udivsi3+0x258>
87800f34:	f04f 30ff 	mov.w	r0, #4294967295	; 0xffffffff
87800f38:	f000 b826 	b.w	87800f88 <__aeabi_idiv0>

87800f3c <__aeabi_uidivmod>:
87800f3c:	2900      	cmp	r1, #0
87800f3e:	d0f8      	beq.n	87800f32 <__udivsi3+0x252>
87800f40:	e92d 4003 	stmdb	sp!, {r0, r1, lr}
87800f44:	f7ff fecc 	bl	87800ce0 <__udivsi3>
87800f48:	e8bd 4006 	ldmia.w	sp!, {r1, r2, lr}
87800f4c:	fb02 f300 	mul.w	r3, r2, r0
87800f50:	eba1 0103 	sub.w	r1, r1, r3
87800f54:	4770      	bx	lr
87800f56:	bf00      	nop

87800f58 <__aeabi_uldivmod>:
87800f58:	b953      	cbnz	r3, 87800f70 <__aeabi_uldivmod+0x18>
87800f5a:	b94a      	cbnz	r2, 87800f70 <__aeabi_uldivmod+0x18>
87800f5c:	2900      	cmp	r1, #0
87800f5e:	bf08      	it	eq
87800f60:	2800      	cmpeq	r0, #0
87800f62:	bf1c      	itt	ne
87800f64:	f04f 31ff 	movne.w	r1, #4294967295	; 0xffffffff
87800f68:	f04f 30ff 	movne.w	r0, #4294967295	; 0xffffffff
87800f6c:	f000 b80c 	b.w	87800f88 <__aeabi_idiv0>
87800f70:	f1ad 0c08 	sub.w	ip, sp, #8
87800f74:	e96d ce04 	strd	ip, lr, [sp, #-16]!
87800f78:	f000 f80c 	bl	87800f94 <__udivmoddi4>
87800f7c:	f8dd e004 	ldr.w	lr, [sp, #4]
87800f80:	e9dd 2302 	ldrd	r2, r3, [sp, #8]
87800f84:	b004      	add	sp, #16
87800f86:	4770      	bx	lr

87800f88 <__aeabi_idiv0>:
87800f88:	b502      	push	{r1, lr}
87800f8a:	f04f 0008 	mov.w	r0, #8
87800f8e:	f7ff fea3 	bl	87800cd8 <raise>
87800f92:	bd02      	pop	{r1, pc}

87800f94 <__udivmoddi4>:
87800f94:	e92d 43f0 	stmdb	sp!, {r4, r5, r6, r7, r8, r9, lr}
87800f98:	460d      	mov	r5, r1
87800f9a:	429d      	cmp	r5, r3
87800f9c:	4604      	mov	r4, r0
87800f9e:	4610      	mov	r0, r2
87800fa0:	bf08      	it	eq
87800fa2:	4284      	cmpeq	r4, r0
87800fa4:	4619      	mov	r1, r3
87800fa6:	9a07      	ldr	r2, [sp, #28]
87800fa8:	bf3c      	itt	cc
87800faa:	2000      	movcc	r0, #0
87800fac:	2100      	movcc	r1, #0
87800fae:	d367      	bcc.n	87801080 <__udivmoddi4+0xec>
87800fb0:	fab1 f681 	clz	r6, r1
87800fb4:	2900      	cmp	r1, #0
87800fb6:	d06c      	beq.n	87801092 <__udivmoddi4+0xfe>
87800fb8:	fab5 f385 	clz	r3, r5
87800fbc:	2d00      	cmp	r5, #0
87800fbe:	d064      	beq.n	8780108a <__udivmoddi4+0xf6>
87800fc0:	1af3      	subs	r3, r6, r3
87800fc2:	f1a3 0c20 	sub.w	ip, r3, #32
87800fc6:	fa01 f703 	lsl.w	r7, r1, r3
87800fca:	f1c3 0820 	rsb	r8, r3, #32
87800fce:	fa00 f10c 	lsl.w	r1, r0, ip
87800fd2:	430f      	orrs	r7, r1
87800fd4:	fa20 f108 	lsr.w	r1, r0, r8
87800fd8:	430f      	orrs	r7, r1
87800fda:	fa00 f603 	lsl.w	r6, r0, r3
87800fde:	42bd      	cmp	r5, r7
87800fe0:	469e      	mov	lr, r3
87800fe2:	bf08      	it	eq
87800fe4:	42b4      	cmpeq	r4, r6
87800fe6:	bf3c      	itt	cc
87800fe8:	2000      	movcc	r0, #0
87800fea:	2100      	movcc	r1, #0
87800fec:	d30c      	bcc.n	87801008 <__udivmoddi4+0x74>
87800fee:	f04f 0901 	mov.w	r9, #1
87800ff2:	1ba4      	subs	r4, r4, r6
87800ff4:	fa29 f808 	lsr.w	r8, r9, r8
87800ff8:	fa09 f10c 	lsl.w	r1, r9, ip
87800ffc:	ea41 0108 	orr.w	r1, r1, r8
87801000:	eb65 0507 	sbc.w	r5, r5, r7
87801004:	fa09 f003 	lsl.w	r0, r9, r3
87801008:	2b00      	cmp	r3, #0
8780100a:	d039      	beq.n	87801080 <__udivmoddi4+0xec>
8780100c:	087f      	lsrs	r7, r7, #1
8780100e:	ea4f 0636 	mov.w	r6, r6, rrx
87801012:	e009      	b.n	87801028 <__udivmoddi4+0x94>
87801014:	1ba4      	subs	r4, r4, r6
87801016:	eb65 0507 	sbc.w	r5, r5, r7
8780101a:	1924      	adds	r4, r4, r4
8780101c:	416d      	adcs	r5, r5
8780101e:	3401      	adds	r4, #1
87801020:	f145 0500 	adc.w	r5, r5, #0
87801024:	3b01      	subs	r3, #1
87801026:	d007      	beq.n	87801038 <__udivmoddi4+0xa4>
87801028:	42bd      	cmp	r5, r7
8780102a:	bf08      	it	eq
8780102c:	42b4      	cmpeq	r4, r6
8780102e:	d2f1      	bcs.n	87801014 <__udivmoddi4+0x80>
87801030:	1924      	adds	r4, r4, r4
87801032:	416d      	adcs	r5, r5
87801034:	3b01      	subs	r3, #1
87801036:	d1f7      	bne.n	87801028 <__udivmoddi4+0x94>
87801038:	f1ce 0720 	rsb	r7, lr, #32
8780103c:	fa24 f60e 	lsr.w	r6, r4, lr
87801040:	fa05 f707 	lsl.w	r7, r5, r7
87801044:	f1ae 0320 	sub.w	r3, lr, #32
87801048:	433e      	orrs	r6, r7
8780104a:	fa25 f303 	lsr.w	r3, r5, r3
8780104e:	1900      	adds	r0, r0, r4
87801050:	fa25 f80e 	lsr.w	r8, r5, lr
87801054:	ea46 0403 	orr.w	r4, r6, r3
87801058:	f1ae 0c20 	sub.w	ip, lr, #32
8780105c:	f1ce 0320 	rsb	r3, lr, #32
87801060:	fa08 f70e 	lsl.w	r7, r8, lr
87801064:	fa04 fc0c 	lsl.w	ip, r4, ip
87801068:	fa24 f303 	lsr.w	r3, r4, r3
8780106c:	ea47 070c 	orr.w	r7, r7, ip
87801070:	fa04 f60e 	lsl.w	r6, r4, lr
87801074:	4169      	adcs	r1, r5
87801076:	431f      	orrs	r7, r3
87801078:	1b80      	subs	r0, r0, r6
8780107a:	4645      	mov	r5, r8
8780107c:	eb61 0107 	sbc.w	r1, r1, r7
87801080:	b10a      	cbz	r2, 87801086 <__udivmoddi4+0xf2>
87801082:	e9c2 4500 	strd	r4, r5, [r2]
87801086:	e8bd 83f0 	ldmia.w	sp!, {r4, r5, r6, r7, r8, r9, pc}
8780108a:	fab4 f384 	clz	r3, r4
8780108e:	3320      	adds	r3, #32
87801090:	e796      	b.n	87800fc0 <__udivmoddi4+0x2c>
87801092:	fab0 f380 	clz	r3, r0
87801096:	f103 0620 	add.w	r6, r3, #32
8780109a:	fab5 f385 	clz	r3, r5
8780109e:	2d00      	cmp	r5, #0
878010a0:	d18e      	bne.n	87800fc0 <__udivmoddi4+0x2c>
878010a2:	e7f2      	b.n	8780108a <__udivmoddi4+0xf6>
878010a4:	0000      	movs	r0, r0
	...

878010a8 <__main_from_arm>:
878010a8:	e51ff004 	ldr	pc, [pc, #-4]	; 878010ac <__main_from_arm+0x4>
878010ac:	878010b1 			; <UNDEFINED> instruction: 0x878010b1

Disassembly of section .text.startup:

878010b0 <main>:
878010b0:	b510      	push	{r4, lr}
878010b2:	f7ff fb35 	bl	87800720 <int_init>
878010b6:	f7ff f913 	bl	878002e0 <clk_init_imx6ull>
878010ba:	f7ff f901 	bl	878002c0 <clk_enable>
878010be:	f7ff fa01 	bl	878004c4 <beep_init>
878010c2:	f7ff f9c9 	bl	87800458 <led_init>
878010c6:	f7ff f969 	bl	8780039c <delay_init>
878010ca:	f7ff fd85 	bl	87800bd8 <uart1_init>
878010ce:	f7ff f9db 	bl	87800488 <led_on>
878010d2:	f241 1014 	movw	r0, #4372	; 0x1114
878010d6:	f2c8 7080 	movt	r0, #34688	; 0x8780
878010da:	f7ff fde9 	bl	87800cb0 <uart1_puts>
878010de:	f7ff fdd9 	bl	87800c94 <uart1_getc>
878010e2:	4604      	mov	r4, r0
878010e4:	f7ff fdca 	bl	87800c7c <uart1_putc>
878010e8:	f241 102c 	movw	r0, #4396	; 0x112c
878010ec:	f2c8 7080 	movt	r0, #34688	; 0x8780
878010f0:	f7ff fdde 	bl	87800cb0 <uart1_puts>
878010f4:	f241 1030 	movw	r0, #4400	; 0x1130
878010f8:	f2c8 7080 	movt	r0, #34688	; 0x8780
878010fc:	f7ff fdd8 	bl	87800cb0 <uart1_puts>
87801100:	4620      	mov	r0, r4
87801102:	f7ff fdbb 	bl	87800c7c <uart1_putc>
87801106:	f241 102c 	movw	r0, #4396	; 0x112c
8780110a:	f2c8 7080 	movt	r0, #34688	; 0x8780
8780110e:	f7ff fdcf 	bl	87800cb0 <uart1_puts>
87801112:	e7de      	b.n	878010d2 <main+0x22>

Disassembly of section .rodata:

87801114 <CSWTCH.12-0x34>:
87801114:	e8b7afe8 	ldm	r7!, {r3, r5, r6, r7, r8, r9, sl, fp, sp, pc}
87801118:	85e593be 	strbhi	r9, [r5, #958]!	; 0x3be
8780111c:	b8e431a5 	stmialt	r4!, {r0, r2, r5, r7, r8, ip, sp}^
87801120:	97ade5aa 	strls	lr, [sp, sl, lsr #11]!
87801124:	3aa6ace7 	bcc	861ac4c8 <shift+0x861ac4c8>
87801128:	00000020 	andeq	r0, r0, r0, lsr #32
8780112c:	00000a0d 	andeq	r0, r0, sp, lsl #20
87801130:	e8a0bde4 	stmia	r0!, {r2, r5, r6, r7, r8, sl, fp, ip, sp, pc}
87801134:	85e593be 	strbhi	r9, [r5, #958]!	; 0x3be
87801138:	849ae7a5 	ldrhi	lr, [sl], #1957	; 0x7a5
8780113c:	e797ade5 	ldr	sl, [r7, r5, ror #27]
87801140:	98e6a6ac 	stmials	r6!, {r2, r3, r5, r7, r9, sl, sp, pc}^
87801144:	00203aaf 	eoreq	r3, r0, pc, lsr #21

87801148 <CSWTCH.12>:
87801148:	00000004 	andeq	r0, r0, r4
8780114c:	00000003 	andeq	r0, r0, r3
87801150:	00000002 	andeq	r0, r0, r2
87801154:	00000001 	andeq	r0, r0, r1
87801158:	00000000 	andeq	r0, r0, r0
8780115c:	00000006 	andeq	r0, r0, r6

Disassembly of section .ARM.exidx:

87801160 <.ARM.exidx>:
87801160:	7ffffe34 	svcvc	0x00fffe34
87801164:	00000001 	andeq	r0, r0, r1

Disassembly of section .data:

87801168 <release.7897>:
87801168:	Address 0x0000000087801168 is out of bounds.


Disassembly of section .bss:

8780116c <sysIrqHandles>:
	...

8780166c <irqNesting>:
8780166c:	00000000 	andeq	r0, r0, r0

Disassembly of section .debug_info:

00000000 <.debug_info>:
       0:	000001d3 	ldrdeq	r0, [r0], -r3
       4:	00000004 	andeq	r0, r0, r4
       8:	01040000 	mrseq	r0, (UNDEF: 4)
       c:	0000003c 	andeq	r0, r0, ip, lsr r0
      10:	00001701 	andeq	r1, r0, r1, lsl #14
      14:	00012a00 	andeq	r2, r1, r0, lsl #20
	...
      24:	06010200 	streq	r0, [r1], -r0, lsl #4
      28:	000000ea 	andeq	r0, r0, sl, ror #1
      2c:	01050202 	tsteq	r5, r2, lsl #4
      30:	03000001 	movweq	r0, #1
      34:	6e690504 	cdpvs	5, 6, cr0, cr9, cr4, {0}
      38:	08020074 	stmdaeq	r2, {r2, r4, r5, r6}
      3c:	00000005 	andeq	r0, r0, r5
      40:	08010200 	stmdaeq	r1, {r9}
      44:	000000e8 	andeq	r0, r0, r8, ror #1
      48:	12070202 	andne	r0, r7, #536870912	; 0x20000000
      4c:	02000001 	andeq	r0, r0, #1
      50:	00db0704 	sbcseq	r0, fp, r4, lsl #14
      54:	08020000 	stmdaeq	r2, {}	; <UNPREDICTABLE>
      58:	0000d107 	andeq	sp, r0, r7, lsl #2
      5c:	07040200 	streq	r0, [r4, -r0, lsl #4]
      60:	00000169 	andeq	r0, r0, r9, ror #2
      64:	d6070402 	strle	r0, [r7], -r2, lsl #8
      68:	02000000 	andeq	r0, r0, #0
      6c:	00050504 	andeq	r0, r5, r4, lsl #10
      70:	04040000 	streq	r0, [r4], #-0
      74:	00000078 	andeq	r0, r0, r8, ror r0
      78:	f1080102 	cps	#2
      7c:	05000000 	streq	r0, [r0, #-0]
      80:	00000125 	andeq	r0, r0, r5, lsr #2
      84:	00330d01 	eorseq	r0, r3, r1, lsl #26
      88:	10b00000 	adcsne	r0, r0, r0
      8c:	00648780 	rsbeq	r8, r4, r0, lsl #15
      90:	9c010000 	stcls	0, cr0, [r1], {-0}
      94:	00000175 	andeq	r0, r0, r5, ror r1
      98:	01006106 	tsteq	r0, r6, lsl #2
      9c:	0000781d 	andeq	r7, r0, sp, lsl r8
      a0:	07540100 	ldrbeq	r0, [r4, -r0, lsl #2]
      a4:	878010b6 			; <UNDEFINED> instruction: 0x878010b6
      a8:	00000175 	andeq	r0, r0, r5, ror r1
      ac:	8010ba07 	andshi	fp, r0, r7, lsl #20
      b0:	00017c87 	andeq	r7, r1, r7, lsl #25
      b4:	10be0700 	adcsne	r0, lr, r0, lsl #14
      b8:	01838780 	orreq	r8, r3, r0, lsl #15
      bc:	c2070000 	andgt	r0, r7, #0
      c0:	8a878010 	bhi	fe1e0108 <__bss_end+0x769dea98>
      c4:	07000001 	streq	r0, [r0, -r1]
      c8:	878010c6 	strhi	r1, [r0, r6, asr #1]
      cc:	00000191 	muleq	r0, r1, r1
      d0:	8010ca07 	andshi	ip, r0, r7, lsl #20
      d4:	00019887 	andeq	r9, r1, r7, lsl #17
      d8:	10ce0700 	sbcne	r0, lr, r0, lsl #14
      dc:	019f8780 	orrseq	r8, pc, r0, lsl #15
      e0:	d2070000 	andle	r0, r7, #0
      e4:	a6878010 	pkhbtge	r8, r7, r0
      e8:	08000001 	stmdaeq	r0, {r0}
      ec:	878010de 			; <UNDEFINED> instruction: 0x878010de
      f0:	000001ad 	andeq	r0, r0, sp, lsr #3
      f4:	00000102 	andeq	r0, r0, r2, lsl #2
      f8:	05500109 	ldrbeq	r0, [r0, #-265]	; 0xfffffef7
      fc:	80111403 	andshi	r1, r1, r3, lsl #8
     100:	e2070087 	and	r0, r7, #135	; 0x87
     104:	be878010 	mcrlt	0, 4, r8, cr7, cr0, {0}
     108:	08000001 	stmdaeq	r0, {r0}
     10c:	878010e8 	strhi	r1, [r0, r8, ror #1]
     110:	000001c9 	andeq	r0, r0, r9, asr #3
     114:	0000011f 	andeq	r0, r0, pc, lsl r1
     118:	02500109 	subseq	r0, r0, #1073741826	; 0x40000002
     11c:	08000074 	stmdaeq	r0, {r2, r4, r5, r6}
     120:	878010f4 			; <UNDEFINED> instruction: 0x878010f4
     124:	000001ad 	andeq	r0, r0, sp, lsr #3
     128:	00000136 	andeq	r0, r0, r6, lsr r1
     12c:	05500109 	ldrbeq	r0, [r0, #-265]	; 0xfffffef7
     130:	80112c03 	andshi	r2, r1, r3, lsl #24
     134:	00080087 	andeq	r0, r8, r7, lsl #1
     138:	ad878011 	stcge	0, cr8, [r7, #68]	; 0x44
     13c:	4d000001 	stcmi	0, cr0, [r0, #-4]
     140:	09000001 	stmdbeq	r0, {r0}
     144:	03055001 	movweq	r5, #20481	; 0x5001
     148:	87801130 			; <UNDEFINED> instruction: 0x87801130
     14c:	11060800 	tstne	r6, r0, lsl #16
     150:	01c98780 	biceq	r8, r9, r0, lsl #15
     154:	01610000 	cmneq	r1, r0
     158:	01090000 	mrseq	r0, (UNDEF: 9)
     15c:	00740250 	rsbseq	r0, r4, r0, asr r2
     160:	11120a00 	tstne	r2, r0, lsl #20
     164:	01ad8780 			; <UNDEFINED> instruction: 0x01ad8780
     168:	01090000 	mrseq	r0, (UNDEF: 9)
     16c:	2c030550 	cfstr32cs	mvfx0, [r3], {80}	; 0x50
     170:	00878011 	addeq	r8, r7, r1, lsl r0
     174:	00c80b00 	sbceq	r0, r8, r0, lsl #22
     178:	0d020000 	stceq	0, cr0, [r2, #-0]
     17c:	0000a20b 	andeq	sl, r0, fp, lsl #4
     180:	0b050300 	bleq	140d88 <shift+0x140d88>
     184:	00000172 	andeq	r0, r0, r2, ror r1
     188:	b30b0403 	movwlt	r0, #46083	; 0xb403
     18c:	04000000 	streq	r0, [r0], #-0
     190:	000e0b04 	andeq	r0, lr, r4, lsl #22
     194:	04050000 	streq	r0, [r5], #-0
     198:	0000bd0b 	andeq	fp, r0, fp, lsl #26
     19c:	0b060600 	bleq	1819a4 <shift+0x1819a4>
     1a0:	00000031 	andeq	r0, r0, r1, lsr r0
     1a4:	0b0b0607 	bleq	2c19c8 <shift+0x2c19c8>
     1a8:	05000001 	streq	r0, [r0, #-1]
     1ac:	00260c05 	eoreq	r0, r6, r5, lsl #24
     1b0:	0a070000 	beq	1c01b8 <shift+0x1c01b8>
     1b4:	000001be 			; <UNDEFINED> instruction: 0x000001be
     1b8:	0000720d 	andeq	r7, r0, sp, lsl #4
     1bc:	f60e0000 			; <UNDEFINED> instruction: 0xf60e0000
     1c0:	07000000 	streq	r0, [r0, -r0]
     1c4:	00007809 	andeq	r7, r0, r9, lsl #16
     1c8:	015e0f00 	cmpeq	lr, r0, lsl #30
     1cc:	08070000 	stmdaeq	r7, {}	; <UNPREDICTABLE>
     1d0:	0000780d 	andeq	r7, r0, sp, lsl #16
     1d4:	1c000000 	stcne	0, cr0, [r0], {-0}
     1d8:	04000006 	streq	r0, [r0], #-6
     1dc:	0000dc00 	andeq	sp, r0, r0, lsl #24
     1e0:	3c010400 	cfstrscc	mvf0, [r1], {-0}
     1e4:	01000000 	mrseq	r0, (UNDEF: 0)
     1e8:	0000036a 	andeq	r0, r0, sl, ror #6
     1ec:	0000012a 	andeq	r0, r0, sl, lsr #2
     1f0:	878002c0 	strhi	r0, [r0, r0, asr #5]
     1f4:	000000da 	ldrdeq	r0, [r0], -sl
     1f8:	000000f4 	strdeq	r0, [r0], -r4
     1fc:	ea060102 	b	18060c <shift+0x18060c>
     200:	02000000 	andeq	r0, r0, #0
     204:	01010502 	tsteq	r1, r2, lsl #10
     208:	04030000 	streq	r0, [r3], #-0
     20c:	746e6905 	strbtvc	r6, [lr], #-2309	; 0xfffff6fb
     210:	05080200 	streq	r0, [r8, #-512]	; 0xfffffe00
     214:	00000000 	andeq	r0, r0, r0
     218:	0006fd04 	andeq	pc, r6, r4, lsl #26
     21c:	4c0c0200 	sfmmi	f0, 4, [ip], {-0}
     220:	02000000 	andeq	r0, r0, #0
     224:	00e80801 	rsceq	r0, r8, r1, lsl #16
     228:	02020000 	andeq	r0, r2, #0
     22c:	00011207 	andeq	r1, r1, r7, lsl #4
     230:	053a0400 	ldreq	r0, [sl, #-1024]!	; 0xfffffc00
     234:	0e020000 	cdpeq	0, 0, cr0, cr2, cr0, {0}
     238:	00000065 	andeq	r0, r0, r5, rrx
     23c:	db070402 	blle	1c124c <shift+0x1c124c>
     240:	02000000 	andeq	r0, r0, #0
     244:	00d10708 	sbcseq	r0, r1, r8, lsl #14
     248:	04020000 	streq	r0, [r2], #-0
     24c:	00016907 	andeq	r6, r1, r7, lsl #18
     250:	00410500 	subeq	r0, r1, r0, lsl #10
     254:	008a0000 	addeq	r0, sl, r0
     258:	73060000 	movwvc	r0, #24576	; 0x6000
     25c:	03000000 	movweq	r0, #0
     260:	005a0700 	subseq	r0, sl, r0, lsl #14
     264:	41050000 	mrsmi	r0, (UNDEF: 5)
     268:	9f000000 	svcls	0x00000000
     26c:	06000000 	streq	r0, [r0], -r0
     270:	00000073 	andeq	r0, r0, r3, ror r0
     274:	4105000b 	tstmi	r5, fp
     278:	af000000 	svcge	0x00000000
     27c:	06000000 	streq	r0, [r0], -r0
     280:	00000073 	andeq	r0, r0, r3, ror r0
     284:	4105001b 	tstmi	r5, fp, lsl r0
     288:	bf000000 	svclt	0x00000000
     28c:	06000000 	streq	r0, [r0], -r0
     290:	00000073 	andeq	r0, r0, r3, ror r0
     294:	8c080007 	stchi	0, cr0, [r8], {7}
     298:	761b1203 	ldrvc	r1, [fp], -r3, lsl #4
     29c:	09000002 	stmdbeq	r0, {r1}
     2a0:	00524343 	subseq	r4, r2, r3, asr #6
     2a4:	8a1b1303 	bhi	6c4eb8 <shift+0x6c4eb8>
     2a8:	00000000 	andeq	r0, r0, r0
     2ac:	0003650a 	andeq	r6, r3, sl, lsl #10
     2b0:	1b140300 	blne	500eb8 <shift+0x500eb8>
     2b4:	0000008a 	andeq	r0, r0, sl, lsl #1
     2b8:	53430904 	movtpl	r0, #14596	; 0x3904
     2bc:	15030052 	strne	r0, [r3, #-82]	; 0xffffffae
     2c0:	00008a1b 	andeq	r8, r0, fp, lsl sl
     2c4:	dc0a0800 	stcle	8, cr0, [sl], {-0}
     2c8:	03000003 	movweq	r0, #3
     2cc:	008a1b16 	addeq	r1, sl, r6, lsl fp
     2d0:	0a0c0000 	beq	3002d8 <shift+0x3002d8>
     2d4:	00000461 	andeq	r0, r0, r1, ror #8
     2d8:	8a1b1703 	bhi	6c5eec <shift+0x6c5eec>
     2dc:	10000000 	andne	r0, r0, r0
     2e0:	0002c60a 	andeq	ip, r2, sl, lsl #12
     2e4:	1b180300 	blne	600eec <shift+0x600eec>
     2e8:	0000008a 	andeq	r0, r0, sl, lsl #1
     2ec:	03d60a14 	bicseq	r0, r6, #20, 20	; 0x14000
     2f0:	19030000 	stmdbne	r3, {}	; <UNPREDICTABLE>
     2f4:	00008a1b 	andeq	r8, r0, fp, lsl sl
     2f8:	c40a1800 	strgt	r1, [sl], #-2048	; 0xfffff800
     2fc:	03000004 	movweq	r0, #4
     300:	008a1b1a 	addeq	r1, sl, sl, lsl fp
     304:	0a1c0000 	beq	70030c <shift+0x70030c>
     308:	00000189 	andeq	r0, r0, r9, lsl #3
     30c:	8a1b1b03 	bhi	6c6f20 <shift+0x6c6f20>
     310:	20000000 	andcs	r0, r0, r0
     314:	0001ad0a 	andeq	sl, r1, sl, lsl #26
     318:	1b1c0300 	blne	700f20 <shift+0x700f20>
     31c:	0000008a 	andeq	r0, r0, sl, lsl #1
     320:	049e0a24 	ldreq	r0, [lr], #2596	; 0xa24
     324:	1d030000 	stcne	0, cr0, [r3, #-0]
     328:	00008a1b 	andeq	r8, r0, fp, lsl sl
     32c:	110a2800 	tstne	sl, r0, lsl #16
     330:	03000002 	movweq	r0, #2
     334:	008a1b1e 	addeq	r1, sl, lr, lsl fp
     338:	0a2c0000 	beq	b00340 <shift+0xb00340>
     33c:	00000498 	muleq	r0, r8, r4
     340:	8a1b1f03 	bhi	6c7f54 <shift+0x6c7f54>
     344:	30000000 	andcc	r0, r0, r0
     348:	0003620a 	andeq	r6, r3, sl, lsl #4
     34c:	1b200300 	blne	800f54 <shift+0x800f54>
     350:	0000008a 	andeq	r0, r0, sl, lsl #1
     354:	03300a34 	teqeq	r0, #52, 20	; 0x34000
     358:	21030000 	mrscs	r0, (UNDEF: 3)
     35c:	00008a1b 	andeq	r8, r0, fp, lsl sl
     360:	c00a3800 	andgt	r3, sl, r0, lsl #16
     364:	03000001 	movweq	r0, #1
     368:	008a1b22 	addeq	r1, sl, r2, lsr #22
     36c:	0a3c0000 	beq	f00374 <shift+0xf00374>
     370:	000003e7 	andeq	r0, r0, r7, ror #7
     374:	af1b2303 	svcge	0x001b2303
     378:	40000000 	andmi	r0, r0, r0
     37c:	0001980a 	andeq	r9, r1, sl, lsl #16
     380:	1b240300 	blne	900f88 <shift+0x900f88>
     384:	0000008a 	andeq	r0, r0, sl, lsl #1
     388:	03f20a48 	mvnseq	r0, #72, 20	; 0x48000
     38c:	25030000 	strcs	r0, [r3, #-0]
     390:	0000af1b 	andeq	sl, r0, fp, lsl pc
     394:	340a4c00 	strcc	r4, [sl], #-3072	; 0xfffff400
     398:	03000002 	movweq	r0, #2
     39c:	008a1b26 	addeq	r1, sl, r6, lsr #22
     3a0:	0a540000 	beq	15003a8 <shift+0x15003a8>
     3a4:	000001c7 	andeq	r0, r0, r7, asr #3
     3a8:	8a1b2703 	bhi	6c9fbc <shift+0x6c9fbc>
     3ac:	58000000 	stmdapl	r0, {}	; <UNPREDICTABLE>
     3b0:	0003370a 	andeq	r3, r3, sl, lsl #14
     3b4:	1b280300 	blne	a00fbc <shift+0xa00fbc>
     3b8:	0000008a 	andeq	r0, r0, sl, lsl #1
     3bc:	026b0a5c 	rsbeq	r0, fp, #92, 20	; 0x5c000
     3c0:	29030000 	stmdbcs	r3, {}	; <UNPREDICTABLE>
     3c4:	00008a1b 	andeq	r8, r0, fp, lsl sl
     3c8:	2b0a6000 	blcs	2983d0 <shift+0x2983d0>
     3cc:	03000003 	movweq	r0, #3
     3d0:	008a1b2a 	addeq	r1, sl, sl, lsr #22
     3d4:	0a640000 	beq	19003dc <shift+0x19003dc>
     3d8:	000003e1 	andeq	r0, r0, r1, ror #7
     3dc:	8a1b2b03 	bhi	6caff0 <shift+0x6caff0>
     3e0:	68000000 	stmdavs	r0, {}	; <UNPREDICTABLE>
     3e4:	0004cb0a 	andeq	ip, r4, sl, lsl #22
     3e8:	1b2c0300 	blne	b00ff0 <shift+0xb00ff0>
     3ec:	0000008a 	andeq	r0, r0, sl, lsl #1
     3f0:	04db0a6c 	ldrbeq	r0, [fp], #2668	; 0xa6c
     3f4:	2d030000 	stccs	0, cr0, [r3, #-0]
     3f8:	00008a1b 	andeq	r8, r0, fp, lsl sl
     3fc:	e10a7000 	mrs	r7, (UNDEF: 10)
     400:	03000004 	movweq	r0, #4
     404:	008a1b2e 	addeq	r1, sl, lr, lsr #22
     408:	0a740000 	beq	1d00410 <shift+0x1d00410>
     40c:	000004f3 	strdeq	r0, [r0], -r3
     410:	8a1b2f03 	bhi	6cc024 <shift+0x6cc024>
     414:	78000000 	stmdavc	r0, {}	; <UNPREDICTABLE>
     418:	0004f90a 	andeq	pc, r4, sl, lsl #18
     41c:	1b300300 	blne	c01024 <shift+0xc01024>
     420:	0000008a 	andeq	r0, r0, sl, lsl #1
     424:	04ff0a7c 	ldrbteq	r0, [pc], #2684	; 42c <shift+0x42c>
     428:	31030000 	mrscc	r0, (UNDEF: 3)
     42c:	00008a1b 	andeq	r8, r0, fp, lsl sl
     430:	fd0a8000 	stc2	0, cr8, [sl, #-0]
     434:	03000003 	movweq	r0, #3
     438:	007a1b32 	rsbseq	r1, sl, r2, lsr fp
     43c:	0a840000 	beq	fe100444 <__bss_end+0x768fedd4>
     440:	000004be 			; <UNDEFINED> instruction: 0x000004be
     444:	8a1b3303 	bhi	6cd058 <shift+0x6cd058>
     448:	88000000 	stmdahi	r0, {}	; <UNPREDICTABLE>
     44c:	02d90b00 	sbcseq	r0, r9, #0, 22
     450:	34030000 	strcc	r0, [r3], #-0
     454:	0000bf1b 	andeq	fp, r0, fp, lsl pc
     458:	01800c00 	orreq	r0, r0, r0, lsl #24
     45c:	d11e7703 	tstle	lr, r3, lsl #14
     460:	0a000005 	beq	47c <shift+0x47c>
     464:	000002ac 	andeq	r0, r0, ip, lsr #5
     468:	8a1e7803 	bhi	79e47c <shift+0x79e47c>
     46c:	00000000 	andeq	r0, r0, r0
     470:	0004e70a 	andeq	lr, r4, sl, lsl #14
     474:	1e790300 	cdpne	3, 7, cr0, cr9, cr0, {0}
     478:	0000008a 	andeq	r0, r0, sl, lsl #1
     47c:	017d0a04 	cmneq	sp, r4, lsl #20
     480:	7a030000 	bvc	c0488 <shift+0xc0488>
     484:	00008a1e 	andeq	r8, r0, lr, lsl sl
     488:	340a0800 	strcc	r0, [sl], #-2048	; 0xfffff800
     48c:	03000004 	movweq	r0, #4
     490:	008a1e7b 	addeq	r1, sl, fp, ror lr
     494:	0a0c0000 	beq	30049c <shift+0x30049c>
     498:	000002ef 	andeq	r0, r0, pc, ror #5
     49c:	8a1e7c03 	bhi	79f4b0 <shift+0x79f4b0>
     4a0:	10000000 	andne	r0, r0, r0
     4a4:	0002cc0a 	andeq	ip, r2, sl, lsl #24
     4a8:	1e7d0300 	cdpne	3, 7, cr0, cr13, cr0, {0}
     4ac:	0000008a 	andeq	r0, r0, sl, lsl #1
     4b0:	01cc0a14 	biceq	r0, ip, r4, lsl sl
     4b4:	7e030000 	cdpvc	0, 0, cr0, cr3, cr0, {0}
     4b8:	00008a1e 	andeq	r8, r0, lr, lsl sl
     4bc:	7f0a1800 	svcvc	0x000a1800
     4c0:	03000004 	movweq	r0, #4
     4c4:	008a1e7f 	addeq	r1, sl, pc, ror lr
     4c8:	0a1c0000 	beq	7004d0 <shift+0x7004d0>
     4cc:	000002f8 	strdeq	r0, [r0], -r8
     4d0:	8a1e8003 	bhi	7a04e4 <shift+0x7a04e4>
     4d4:	20000000 	andcs	r0, r0, r0
     4d8:	0003c90a 	andeq	ip, r3, sl, lsl #18
     4dc:	1e810300 	cdpne	3, 8, cr0, cr1, cr0, {0}
     4e0:	0000008a 	andeq	r0, r0, sl, lsl #1
     4e4:	02e20a24 	rsceq	r0, r2, #36, 20	; 0x24000
     4e8:	82030000 	andhi	r0, r3, #0
     4ec:	00008a1e 	andeq	r8, r0, lr, lsl sl
     4f0:	520a2800 	andpl	r2, sl, #0, 16
     4f4:	03000002 	movweq	r0, #2
     4f8:	008a1e83 	addeq	r1, sl, r3, lsl #29
     4fc:	0a2c0000 	beq	b00504 <shift+0xb00504>
     500:	000002be 			; <UNDEFINED> instruction: 0x000002be
     504:	8a1e8403 	bhi	7a1518 <shift+0x7a1518>
     508:	30000000 	andcc	r0, r0, r0
     50c:	00037c0a 	andeq	r7, r3, sl, lsl #24
     510:	1e850300 	cdpne	3, 8, cr0, cr5, cr0, {0}
     514:	0000008a 	andeq	r0, r0, sl, lsl #1
     518:	025f0a34 	subseq	r0, pc, #52, 20	; 0x34000
     51c:	86030000 	strhi	r0, [r3], -r0
     520:	00008a1e 	andeq	r8, r0, lr, lsl sl
     524:	f10a3800 			; <UNDEFINED> instruction: 0xf10a3800
     528:	03000001 	movweq	r0, #1
     52c:	008a1e87 	addeq	r1, sl, r7, lsl #29
     530:	0a3c0000 	beq	f00538 <shift+0xf00538>
     534:	0000027d 	andeq	r0, r0, sp, ror r2
     538:	8a1e8803 	bhi	7a254c <shift+0x7a254c>
     53c:	40000000 	andmi	r0, r0, r0
     540:	0003e70a 	andeq	lr, r3, sl, lsl #14
     544:	1e890300 	cdpne	3, 8, cr0, cr9, cr0, {0}
     548:	0000008f 	andeq	r0, r0, pc, lsl #1
     54c:	048c0a44 	streq	r0, [ip], #2628	; 0xa44
     550:	8a030000 	bhi	c0558 <shift+0xc0558>
     554:	00008a1e 	andeq	r8, r0, lr, lsl sl
     558:	f20a5000 	vhadd.s8	d5, d10, d0
     55c:	03000003 	movweq	r0, #3
     560:	008f1e8b 	addeq	r1, pc, fp, lsl #29
     564:	0a540000 	beq	150056c <shift+0x150056c>
     568:	00000388 	andeq	r0, r0, r8, lsl #7
     56c:	8a1e8c03 	bhi	7a3580 <shift+0x7a3580>
     570:	60000000 	andvs	r0, r0, r0
     574:	0003fd0a 	andeq	pc, r3, sl, lsl #26
     578:	1e8d0300 	cdpne	3, 8, cr0, cr13, cr0, {0}
     57c:	0000008f 	andeq	r0, r0, pc, lsl #1
     580:	04d10a64 	ldrbeq	r0, [r1], #2660	; 0xa64
     584:	8e030000 	cdphi	0, 0, cr0, cr3, cr0, {0}
     588:	00008a1e 	andeq	r8, r0, lr, lsl sl
     58c:	960a7000 	strls	r7, [sl], -r0
     590:	03000002 	movweq	r0, #2
     594:	008a1e8f 	addeq	r1, sl, pc, lsl #29
     598:	0a740000 	beq	1d005a0 <shift+0x1d005a0>
     59c:	0000019f 	muleq	r0, pc, r1	; <UNPREDICTABLE>
     5a0:	8a1e9003 	bhi	7a45b4 <shift+0x7a45b4>
     5a4:	78000000 	stmdavc	r0, {}	; <UNPREDICTABLE>
     5a8:	0004490a 	andeq	r4, r4, sl, lsl #18
     5ac:	1e910300 	cdpne	3, 9, cr0, cr1, cr0, {0}
     5b0:	0000008a 	andeq	r0, r0, sl, lsl #1
     5b4:	04710a7c 	ldrbteq	r0, [r1], #-2684	; 0xfffff584
     5b8:	92030000 	andls	r0, r3, #0
     5bc:	00008a1e 	andeq	r8, r0, lr, lsl sl
     5c0:	080a8000 	stmdaeq	sl, {pc}
     5c4:	03000004 	movweq	r0, #4
     5c8:	008f1e93 	umulleq	r1, pc, r3, lr	; <UNPREDICTABLE>
     5cc:	0a840000 	beq	fe1005d4 <__bss_end+0x768fef64>
     5d0:	000003ac 	andeq	r0, r0, ip, lsr #7
     5d4:	8a1e9403 	bhi	7a55e8 <shift+0x7a55e8>
     5d8:	90000000 	andls	r0, r0, r0
     5dc:	0004130a 	andeq	r1, r4, sl, lsl #6
     5e0:	1e950300 	cdpne	3, 9, cr0, cr5, cr0, {0}
     5e4:	0000008f 	andeq	r0, r0, pc, lsl #1
     5e8:	01fd0a94 			; <UNDEFINED> instruction: 0x01fd0a94
     5ec:	96030000 	strls	r0, [r3], -r0
     5f0:	00008a1e 	andeq	r8, r0, lr, lsl sl
     5f4:	130aa000 	movwne	sl, #40960	; 0xa000
     5f8:	03000003 	movweq	r0, #3
     5fc:	008a1e97 	umulleq	r1, sl, r7, lr
     600:	0aa40000 	beq	fe900608 <__bss_end+0x770fef98>
     604:	0000023a 	andeq	r0, r0, sl, lsr r2
     608:	8a1e9803 	bhi	7a661c <shift+0x7a661c>
     60c:	a8000000 	stmdage	r0, {}	; <UNPREDICTABLE>
     610:	0005050a 	andeq	r0, r5, sl, lsl #10
     614:	1e990300 	cdpne	3, 9, cr0, cr9, cr0, {0}
     618:	0000008a 	andeq	r0, r0, sl, lsl #1
     61c:	02880aac 	addeq	r0, r8, #172, 20	; 0xac000
     620:	9a030000 	bls	c0628 <shift+0xc0628>
     624:	00008a1e 	andeq	r8, r0, lr, lsl sl
     628:	1e0ab000 	cdpne	0, 0, cr11, cr10, cr0, {0}
     62c:	03000004 	movweq	r0, #4
     630:	008f1e9b 	umulleq	r1, pc, fp, lr	; <UNPREDICTABLE>
     634:	0ab40000 	beq	fed0063c <__bss_end+0x774fefcc>
     638:	0000033c 	andeq	r0, r0, ip, lsr r3
     63c:	8a1e9c03 	bhi	7a7650 <shift+0x7a7650>
     640:	c0000000 	andgt	r0, r0, r0
     644:	0004290a 	andeq	r2, r4, sl, lsl #18
     648:	1e9d0300 	cdpne	3, 9, cr0, cr13, cr0, {0}
     64c:	0000009f 	muleq	r0, pc, r0	; <UNPREDICTABLE>
     650:	04400ac4 	strbeq	r0, [r0], #-2756	; 0xfffff53c
     654:	9e030000 	cdpls	0, 0, cr0, cr3, cr0, {0}
     658:	00008a1e 	andeq	r8, r0, lr, lsl sl
     65c:	bc0ae000 	stclt	0, cr14, [sl], {-0}
     660:	03000003 	movweq	r0, #3
     664:	008a1e9f 	umulleq	r1, sl, pc, lr	; <UNPREDICTABLE>
     668:	0ae40000 	beq	ff900670 <__bss_end+0x780ff000>
     66c:	000001e4 	andeq	r0, r0, r4, ror #3
     670:	8a1ea003 	bhi	7a8684 <shift+0x7a8684>
     674:	e8000000 	stmda	r0, {}	; <UNPREDICTABLE>
     678:	0004b10a 	andeq	fp, r4, sl, lsl #2
     67c:	1ea10300 	cdpne	3, 10, cr0, cr1, cr0, {0}
     680:	0000008a 	andeq	r0, r0, sl, lsl #1
     684:	01900aec 	orrseq	r0, r0, ip, ror #21
     688:	a2030000 	andge	r0, r3, #0
     68c:	00008a1e 	andeq	r8, r0, lr, lsl sl
     690:	560af000 	strpl	pc, [sl], -r0
     694:	03000003 	movweq	r0, #3
     698:	008a1ea3 	addeq	r1, sl, r3, lsr #29
     69c:	0af40000 	beq	ffd006a4 <__bss_end+0x784ff034>
     6a0:	00000271 	andeq	r0, r0, r1, ror r2
     6a4:	8a1ea403 	bhi	7a96b8 <shift+0x7a96b8>
     6a8:	f8000000 			; <UNDEFINED> instruction: 0xf8000000
     6ac:	0001b40a 	andeq	fp, r1, sl, lsl #8
     6b0:	1ea50300 	cdpne	3, 10, cr0, cr5, cr0, {0}
     6b4:	0000008a 	andeq	r0, r0, sl, lsl #1
     6b8:	02a40dfc 	adceq	r0, r4, #252, 26	; 0x3f00
     6bc:	a6030000 	strge	r0, [r3], -r0
     6c0:	00008a1e 	andeq	r8, r0, lr, lsl sl
     6c4:	0d010000 	stceq	0, cr0, [r1, #-0]
     6c8:	000004a5 	andeq	r0, r0, r5, lsr #9
     6cc:	8a1ea703 	bhi	7aa2e0 <shift+0x7aa2e0>
     6d0:	04000000 	streq	r0, [r0], #-0
     6d4:	03a00d01 	moveq	r0, #1, 26	; 0x40
     6d8:	a8030000 	stmdage	r3, {}	; <UNPREDICTABLE>
     6dc:	00008a1e 	andeq	r8, r0, lr, lsl sl
     6e0:	0d010800 	stceq	8, cr0, [r1, #-0]
     6e4:	00000307 	andeq	r0, r0, r7, lsl #6
     6e8:	8a1ea903 	bhi	7aaafc <shift+0x7aaafc>
     6ec:	0c000000 	stceq	0, cr0, [r0], {-0}
     6f0:	01d90d01 	bicseq	r0, r9, r1, lsl #26
     6f4:	aa030000 	bge	c06fc <shift+0xc06fc>
     6f8:	0005d11e 	andeq	sp, r5, lr, lsl r1
     6fc:	0d011000 	stceq	0, cr1, [r1, #-0]
     700:	00000228 	andeq	r0, r0, r8, lsr #4
     704:	8a1eab03 	bhi	7ab318 <shift+0x7ab318>
     708:	50000000 	andpl	r0, r0, r0
     70c:	02070d01 	andeq	r0, r7, #1, 26	; 0x40
     710:	ac030000 	stcge	0, cr0, [r3], {-0}
     714:	00008a1e 	andeq	r8, r0, lr, lsl sl
     718:	0d015400 	cfstrseq	mvf5, [r1, #-0]
     71c:	00000467 	andeq	r0, r0, r7, ror #8
     720:	8a1ead03 	bhi	7abb34 <shift+0x7abb34>
     724:	58000000 	stmdapl	r0, {}	; <UNPREDICTABLE>
     728:	03960d01 	orrseq	r0, r6, #1, 26	; 0x40
     72c:	ae030000 	cdpge	0, 0, cr0, cr3, cr0, {0}
     730:	00008a1e 	andeq	r8, r0, lr, lsl sl
     734:	0d015c00 	stceq	12, cr5, [r1, #-0]
     738:	0000022e 	andeq	r0, r0, lr, lsr #4
     73c:	8a1eaf03 	bhi	7ac350 <shift+0x7ac350>
     740:	60000000 	andvs	r0, r0, r0
     744:	03210d01 			; <UNDEFINED> instruction: 0x03210d01
     748:	b0030000 	andlt	r0, r3, r0
     74c:	00008a1e 	andeq	r8, r0, lr, lsl sl
     750:	0d016400 	cfstrseq	mvf6, [r1, #-0]
     754:	00000248 	andeq	r0, r0, r8, asr #4
     758:	8a1eb103 	bhi	7acb6c <shift+0x7acb6c>
     75c:	68000000 	stmdavs	r0, {}	; <UNPREDICTABLE>
     760:	05130d01 	ldreq	r0, [r3, #-3329]	; 0xfffff2ff
     764:	b2030000 	andlt	r0, r3, #0
     768:	00008a1e 	andeq	r8, r0, lr, lsl sl
     76c:	0d016c00 	stceq	12, cr6, [r1, #-0]
     770:	00000301 	andeq	r0, r0, r1, lsl #6
     774:	8a1eb303 	bhi	7ad388 <shift+0x7ad388>
     778:	70000000 	andvc	r0, r0, r0
     77c:	04570d01 	ldrbeq	r0, [r7], #-3329	; 0xfffff2ff
     780:	b4030000 	strlt	r0, [r3], #-0
     784:	00008a1e 	andeq	r8, r0, lr, lsl sl
     788:	0d017400 	cfstrseq	mvf7, [r1, #-0]
     78c:	0000034c 	andeq	r0, r0, ip, asr #6
     790:	8a1eb503 	bhi	7adba4 <shift+0x7adba4>
     794:	78000000 	stmdavc	r0, {}	; <UNPREDICTABLE>
     798:	02b40d01 	adcseq	r0, r4, #1, 26	; 0x40
     79c:	b6030000 	strlt	r0, [r3], -r0
     7a0:	00008a1e 	andeq	r8, r0, lr, lsl sl
     7a4:	00017c00 	andeq	r7, r1, r0, lsl #24
     7a8:	00004105 	andeq	r4, r0, r5, lsl #2
     7ac:	0005e100 	andeq	lr, r5, r0, lsl #2
     7b0:	00730600 	rsbseq	r0, r3, r0, lsl #12
     7b4:	003f0000 	eorseq	r0, pc, r0
     7b8:	0002180b 	andeq	r1, r2, fp, lsl #16
     7bc:	1eb70300 	cdpne	3, 11, cr0, cr7, cr0, {0}
     7c0:	00000282 	andeq	r0, r0, r2, lsl #5
     7c4:	0001720e 	andeq	r7, r1, lr, lsl #4
     7c8:	c0050100 	andgt	r0, r5, r0, lsl #2
     7cc:	1e878002 	cdpne	0, 8, cr8, cr7, cr2, {0}
     7d0:	01000000 	mrseq	r0, (UNDEF: 0)
     7d4:	00a20f9c 	umlaleq	r0, r2, ip, pc	; <UNPREDICTABLE>
     7d8:	11010000 	mrsne	r0, (UNDEF: 1)
     7dc:	878002e0 	strhi	r0, [r0, r0, ror #5]
     7e0:	000000ba 	strheq	r0, [r0], -sl
     7e4:	72109c01 	andsvc	r9, r0, #256	; 0x100
     7e8:	01006765 	tsteq	r0, r5, ror #14
     7ec:	0000331e 	andeq	r3, r0, lr, lsl r3
     7f0:	00000000 	andeq	r0, r0, r0
     7f4:	25000000 	strcs	r0, [r0, #-0]
     7f8:	04000002 	streq	r0, [r0], #-2
     7fc:	0001bf00 	andeq	fp, r1, r0, lsl #30
     800:	3c010400 	cfstrscc	mvf0, [r1], {-0}
     804:	01000000 	mrseq	r0, (UNDEF: 0)
     808:	00000555 	andeq	r0, r0, r5, asr r5
     80c:	0000012a 	andeq	r0, r0, sl, lsr #2
     810:	8780039c 			; <UNDEFINED> instruction: 0x8780039c
     814:	000000ba 	strheq	r0, [r0], -sl
     818:	0000018d 	andeq	r0, r0, sp, lsl #3
     81c:	ea060102 	b	180c2c <shift+0x180c2c>
     820:	02000000 	andeq	r0, r0, #0
     824:	01010502 	tsteq	r1, r2, lsl #10
     828:	04030000 	streq	r0, [r3], #-0
     82c:	746e6905 	strbtvc	r6, [lr], #-2309	; 0xfffff6fb
     830:	05080200 	streq	r0, [r8, #-512]	; 0xfffffe00
     834:	00000000 	andeq	r0, r0, r0
     838:	e8080102 	stmda	r8, {r1, r8}
     83c:	02000000 	andeq	r0, r0, #0
     840:	01120702 	tsteq	r2, r2, lsl #14
     844:	3a040000 	bcc	10084c <shift+0x10084c>
     848:	03000005 	movweq	r0, #5
     84c:	00005a0e 	andeq	r5, r0, lr, lsl #20
     850:	07040200 	streq	r0, [r4, -r0, lsl #4]
     854:	000000db 	ldrdeq	r0, [r0], -fp
     858:	d1070802 	tstle	r7, r2, lsl #16
     85c:	02000000 	andeq	r0, r0, #0
     860:	01690704 	cmneq	r9, r4, lsl #14
     864:	4f050000 	svcmi	0x00050000
     868:	06000000 	streq	r0, [r0], -r0
     86c:	0000004f 	andeq	r0, r0, pc, asr #32
     870:	00000084 	andeq	r0, r0, r4, lsl #1
     874:	00006807 	andeq	r6, r0, r7, lsl #16
     878:	08000200 	stmdaeq	r0, {r9}
     87c:	390a0228 	stmdbcc	sl, {r3, r5, r9}
     880:	000000e5 	andeq	r0, r0, r5, ror #1
     884:	00524309 	subseq	r4, r2, r9, lsl #6
     888:	6f390b02 	svcvs	0x00390b02
     88c:	00000000 	andeq	r0, r0, r0
     890:	00525009 	subseq	r5, r2, r9
     894:	6f390c02 	svcvs	0x00390c02
     898:	04000000 	streq	r0, [r0], #-0
     89c:	00525309 	subseq	r5, r2, r9, lsl #6
     8a0:	6f390d02 	svcvs	0x00390d02
     8a4:	08000000 	stmdaeq	r0, {}	; <UNPREDICTABLE>
     8a8:	00524909 	subseq	r4, r2, r9, lsl #18
     8ac:	6f390e02 	svcvs	0x00390e02
     8b0:	0c000000 	stceq	0, cr0, [r0], {-0}
     8b4:	52434f09 	subpl	r4, r3, #9, 30	; 0x24
     8b8:	390f0200 	stmdbcc	pc, {r9}	; <UNPREDICTABLE>
     8bc:	000000e5 	andeq	r0, r0, r5, ror #1
     8c0:	43490910 	movtmi	r0, #39184	; 0x9910
     8c4:	10020052 	andne	r0, r2, r2, asr r0
     8c8:	0000fa39 	andeq	pc, r0, r9, lsr sl	; <UNPREDICTABLE>
     8cc:	43091c00 	movwmi	r1, #39936	; 0x9c00
     8d0:	0200544e 	andeq	r5, r0, #1308622848	; 0x4e000000
     8d4:	006f3911 	rsbeq	r3, pc, r1, lsl r9	; <UNPREDICTABLE>
     8d8:	00240000 	eoreq	r0, r4, r0
     8dc:	00007405 	andeq	r7, r0, r5, lsl #8
     8e0:	004f0600 	subeq	r0, pc, r0, lsl #12
     8e4:	00fa0000 	rscseq	r0, sl, r0
     8e8:	68070000 	stmdavs	r7, {}	; <UNPREDICTABLE>
     8ec:	01000000 	mrseq	r0, (UNDEF: 0)
     8f0:	00ea0500 	rsceq	r0, sl, r0, lsl #10
     8f4:	4c0a0000 	stcmi	0, cr0, [sl], {-0}
     8f8:	02000005 	andeq	r0, r0, #5
     8fc:	00843912 	addeq	r3, r4, r2, lsl r9
     900:	04020000 	streq	r0, [r2], #-0
     904:	0000d607 	andeq	sp, r0, r7, lsl #12
     908:	05380400 	ldreq	r0, [r8, #-1024]!	; 0xfffffc00
     90c:	2a040000 	bcs	100914 <shift+0x100914>
     910:	0000005a 	andeq	r0, r0, sl, asr r0
     914:	05050402 	streq	r0, [r5, #-1026]	; 0xfffffbfe
     918:	02000000 	andeq	r0, r0, #0
     91c:	00f10801 	rscseq	r0, r1, r1, lsl #16
     920:	430b0000 	movwmi	r0, #45056	; 0xb000
     924:	01000005 	tsteq	r0, r5
     928:	01620115 	cmneq	r2, r5, lsl r1
     92c:	6e0c0000 	cdpvs	0, 0, cr0, cr12, cr0, {0}
     930:	12150100 	andsne	r0, r5, #0, 2
     934:	0d000001 	stceq	0, cr0, [r0, #-4]
     938:	00646c6f 	rsbeq	r6, r4, pc, ror #24
     93c:	01121701 	tsteq	r2, r1, lsl #14
     940:	6e0d0000 	cdpvs	0, 0, cr0, cr13, cr0, {0}
     944:	01007765 	tsteq	r0, r5, ror #14
     948:	00011218 	andeq	r1, r1, r8, lsl r2
     94c:	051d0e00 	ldreq	r0, [sp, #-3584]	; 0xfffff200
     950:	19010000 	stmdbne	r1, {}	; <UNPREDICTABLE>
     954:	00000112 	andeq	r0, r0, r2, lsl r1
     958:	00bd0f00 	adcseq	r0, sp, r0, lsl #30
     95c:	04010000 	streq	r0, [r1], #-0
     960:	8780039c 			; <UNDEFINED> instruction: 0x8780039c
     964:	0000003c 	andeq	r0, r0, ip, lsr r0
     968:	2c109c01 	ldccs	12, cr9, [r0], {1}
     96c:	01000005 	tsteq	r0, r5
     970:	8003d810 	andhi	sp, r3, r0, lsl r8
     974:	00001287 	andeq	r1, r0, r7, lsl #5
     978:	949c0100 	ldrls	r0, [ip], #256	; 0x100
     97c:	11000001 	tstne	r0, r1
     980:	1001006e 	andne	r0, r1, lr, rrx
     984:	00000194 	muleq	r0, r4, r1
     988:	05005001 	streq	r5, [r0, #-1]
     98c:	0000005a 	andeq	r0, r0, sl, asr r0
     990:	00012b12 	andeq	r2, r1, r2, lsl fp
     994:	8003ec00 	andhi	lr, r3, r0, lsl #24
     998:	00003087 	andeq	r3, r0, r7, lsl #1
     99c:	cf9c0100 	svcgt	0x009c0100
     9a0:	13000001 	movwne	r0, #1
     9a4:	00000137 	andeq	r0, r0, r7, lsr r1
     9a8:	40145001 	andsmi	r5, r4, r1
     9ac:	44000001 	strmi	r0, [r0], #-1
     9b0:	14000000 	strne	r0, [r0], #-0
     9b4:	0000014b 	andeq	r0, r0, fp, asr #2
     9b8:	00000057 	andeq	r0, r0, r7, asr r0
     9bc:	00015614 	andeq	r5, r1, r4, lsl r6
     9c0:	00007500 	andeq	r7, r0, r0, lsl #10
     9c4:	23150000 	tstcs	r5, #0
     9c8:	01000005 	tsteq	r0, r5
     9cc:	80041c2e 	andhi	r1, r4, lr, lsr #24
     9d0:	00003a87 	andeq	r3, r0, r7, lsl #21
     9d4:	169c0100 	ldrne	r0, [ip], r0, lsl #2
     9d8:	2e01006e 	cdpcs	0, 0, cr0, cr1, cr14, {3}
     9dc:	00000112 	andeq	r0, r0, r2, lsl r1
     9e0:	00000093 	muleq	r0, r3, r0
     9e4:	00012b17 	andeq	r2, r1, r7, lsl fp
     9e8:	80041e00 	andhi	r1, r4, r0, lsl #28
     9ec:	00001087 	andeq	r1, r0, r7, lsl #1
     9f0:	18310100 	ldmdane	r1!, {r8}
     9f4:	00000137 	andeq	r0, r0, r7, lsr r1
     9f8:	000000be 	strheq	r0, [r0], -lr
     9fc:	00001019 	andeq	r1, r0, r9, lsl r0
     a00:	01401400 	cmpeq	r0, r0, lsl #8
     a04:	00d40000 	sbcseq	r0, r4, r0
     a08:	4b140000 	blmi	500a10 <shift+0x500a10>
     a0c:	e7000001 	str	r0, [r0, -r1]
     a10:	14000000 	strne	r0, [r0], #-0
     a14:	00000156 	andeq	r0, r0, r6, asr r1
     a18:	00000106 	andeq	r0, r0, r6, lsl #2
     a1c:	00000000 	andeq	r0, r0, r0
     a20:	0000025c 	andeq	r0, r0, ip, asr r2
     a24:	031d0004 	tsteq	sp, #4
     a28:	01040000 	mrseq	r0, (UNDEF: 4)
     a2c:	0000003c 	andeq	r0, r0, ip, lsr r0
     a30:	00061a01 	andeq	r1, r6, r1, lsl #20
     a34:	00012a00 	andeq	r2, r1, r0, lsl #20
     a38:	80045800 	andhi	r5, r4, r0, lsl #16
     a3c:	00006a87 	andeq	r6, r0, r7, lsl #21
     a40:	00025a00 	andeq	r5, r2, r0, lsl #20
     a44:	06010200 	streq	r0, [r1], -r0, lsl #4
     a48:	000000ea 	andeq	r0, r0, sl, ror #1
     a4c:	01050202 	tsteq	r5, r2, lsl #4
     a50:	03000001 	movweq	r0, #1
     a54:	6e690504 	cdpvs	5, 6, cr0, cr9, cr4, {0}
     a58:	08020074 	stmdaeq	r2, {r2, r4, r5, r6}
     a5c:	00000005 	andeq	r0, r0, r5
     a60:	08010200 	stmdaeq	r1, {r9}
     a64:	000000e8 	andeq	r0, r0, r8, ror #1
     a68:	12070202 	andne	r0, r7, #536870912	; 0x20000000
     a6c:	04000001 	streq	r0, [r0], #-1
     a70:	0000053a 	andeq	r0, r0, sl, lsr r5
     a74:	005a0e04 	subseq	r0, sl, r4, lsl #28
     a78:	04020000 	streq	r0, [r2], #-0
     a7c:	0000db07 	andeq	sp, r0, r7, lsl #22
     a80:	07080200 	streq	r0, [r8, -r0, lsl #4]
     a84:	000000d1 	ldrdeq	r0, [r0], -r1
     a88:	69070402 	stmdbvs	r7, {r1, sl}
     a8c:	05000001 	streq	r0, [r0, #-1]
     a90:	0000004f 	andeq	r0, r0, pc, asr #32
     a94:	80032006 	andhi	r2, r3, r6
     a98:	0000e534 	andeq	lr, r0, r4, lsr r5
     a9c:	52440700 	subpl	r0, r4, #0, 14
     aa0:	34810300 	strcc	r0, [r1], #768	; 0x300
     aa4:	0000006f 	andeq	r0, r0, pc, rrx
     aa8:	058c0800 	streq	r0, [ip, #2048]	; 0x800
     aac:	82030000 	andhi	r0, r3, #0
     ab0:	00006f34 	andeq	r6, r0, r4, lsr pc
     ab4:	50070400 	andpl	r0, r7, r0, lsl #8
     ab8:	03005253 	movweq	r5, #595	; 0x253
     abc:	006f3483 	rsbeq	r3, pc, r3, lsl #9
     ac0:	08080000 	stmdaeq	r8, {}	; <UNPREDICTABLE>
     ac4:	00000610 	andeq	r0, r0, r0, lsl r6
     ac8:	6f348403 	svcvs	0x00348403
     acc:	0c000000 	stceq	0, cr0, [r0], {-0}
     ad0:	00061508 	andeq	r1, r6, r8, lsl #10
     ad4:	34850300 	strcc	r0, [r5], #768	; 0x300
     ad8:	0000006f 	andeq	r0, r0, pc, rrx
     adc:	4d490710 	stclmi	7, cr0, [r9, #-64]	; 0xffffffc0
     ae0:	86030052 			; <UNDEFINED> instruction: 0x86030052
     ae4:	00006f34 	andeq	r6, r0, r4, lsr pc
     ae8:	49071400 	stmdbmi	r7, {sl, ip}
     aec:	03005253 	movweq	r5, #595	; 0x253
     af0:	006f3487 	rsbeq	r3, pc, r7, lsl #9
     af4:	08180000 	ldmdaeq	r8, {}	; <UNPREDICTABLE>
     af8:	00000607 	andeq	r0, r0, r7, lsl #12
     afc:	6f348803 	svcvs	0x00348803
     b00:	1c000000 	stcne	0, cr0, [r0], {-0}
     b04:	05ce0900 	strbeq	r0, [lr, #2304]	; 0x900
     b08:	89030000 	stmdbhi	r3, {}	; <UNPREDICTABLE>
     b0c:	00007434 	andeq	r7, r0, r4, lsr r4
     b10:	05b20a00 	ldreq	r0, [r2, #2560]!	; 0xa00
     b14:	23020000 	movwcs	r0, #8192	; 0x2000
     b18:	01470304 	cmpeq	r7, r4, lsl #6
     b1c:	910b0000 	mrsls	r0, (UNDEF: 11)
     b20:	02000005 	andeq	r0, r0, #5
     b24:	004f0423 	subeq	r0, pc, r3, lsr #8
     b28:	6b0b0000 	blvs	2c0b30 <shift+0x2c0b30>
     b2c:	02000005 	andeq	r0, r0, #5
     b30:	004f0424 	subeq	r0, pc, r4, lsr #8
     b34:	730b0000 	movwvc	r0, #45056	; 0xb000
     b38:	02000005 	andeq	r0, r0, #5
     b3c:	004f0425 	subeq	r0, pc, r5, lsr #8
     b40:	c30b0000 	movwgt	r0, #45056	; 0xb000
     b44:	02000005 	andeq	r0, r0, #5
     b48:	004f0426 	subeq	r0, pc, r6, lsr #8
     b4c:	ec0b0000 	stc	0, cr0, [fp], {-0}
     b50:	02000005 	andeq	r0, r0, #5
     b54:	004f0427 	subeq	r0, pc, r7, lsr #8
     b58:	a50b0000 	strge	r0, [fp, #-0]
     b5c:	02000005 	andeq	r0, r0, #5
     b60:	004f0428 	subeq	r0, pc, r8, lsr #8
     b64:	0a000000 	beq	b6c <shift+0xb6c>
     b68:	000005d8 	ldrdeq	r0, [r0], -r8
     b6c:	03044102 	movweq	r4, #16642	; 0x4102
     b70:	0000019d 	muleq	r0, sp, r1
     b74:	0005910b 	andeq	r9, r5, fp, lsl #2
     b78:	04410200 	strbeq	r0, [r1], #-512	; 0xfffffe00
     b7c:	0000004f 	andeq	r0, r0, pc, asr #32
     b80:	00056b0b 	andeq	r6, r5, fp, lsl #22
     b84:	04420200 	strbeq	r0, [r2], #-512	; 0xfffffe00
     b88:	0000004f 	andeq	r0, r0, pc, asr #32
     b8c:	0005730b 	andeq	r7, r5, fp, lsl #6
     b90:	04430200 	strbeq	r0, [r3], #-512	; 0xfffffe00
     b94:	0000004f 	andeq	r0, r0, pc, asr #32
     b98:	0005c30b 	andeq	ip, r5, fp, lsl #6
     b9c:	04440200 	strbeq	r0, [r4], #-512	; 0xfffffe00
     ba0:	0000004f 	andeq	r0, r0, pc, asr #32
     ba4:	0005ec0b 	andeq	lr, r5, fp, lsl #24
     ba8:	04450200 	strbeq	r0, [r5], #-512	; 0xfffffe00
     bac:	0000004f 	andeq	r0, r0, pc, asr #32
     bb0:	0005fb0b 	andeq	pc, r5, fp, lsl #22
     bb4:	04460200 	strbeq	r0, [r6], #-512	; 0xfffffe00
     bb8:	0000004f 	andeq	r0, r0, pc, asr #32
     bbc:	000e0c00 	andeq	r0, lr, r0, lsl #24
     bc0:	06010000 	streq	r0, [r1], -r0
     bc4:	87800458 			; <UNDEFINED> instruction: 0x87800458
     bc8:	00000030 	andeq	r0, r0, r0, lsr r0
     bcc:	022c9c01 	eoreq	r9, ip, #256	; 0x100
     bd0:	f10d0000 			; <UNDEFINED> instruction: 0xf10d0000
     bd4:	58000000 	stmdapl	r0, {}	; <UNPREDICTABLE>
     bd8:	28878004 	stmcs	r7, {r2, pc}
     bdc:	01000000 	mrseq	r0, (UNDEF: 0)
     be0:	0001f008 	andeq	pc, r1, r8
     be4:	012e0e00 			; <UNDEFINED> instruction: 0x012e0e00
     be8:	02f40000 	rscseq	r0, r4, #0
     bec:	3a0f020e 	bcc	3c142c <shift+0x3c142c>
     bf0:	00000001 	andeq	r0, r0, r1
     bf4:	0001220f 	andeq	r2, r1, pc, lsl #4
     bf8:	160f0000 	strne	r0, [pc], -r0
     bfc:	00000001 	andeq	r0, r0, r1
     c00:	00010a0f 	andeq	r0, r1, pc, lsl #20
     c04:	fe0e0500 	cdp2	5, 0, cr0, cr14, cr0, {0}
     c08:	68000000 	stmdavs	r0, {}	; <UNPREDICTABLE>
     c0c:	00020e00 	andeq	r0, r2, r0, lsl #28
     c10:	00014710 	andeq	r4, r1, r0, lsl r7
     c14:	80045a00 	andhi	r5, r4, r0, lsl #20
     c18:	00005087 	andeq	r5, r0, r7, lsl #1
     c1c:	0e090100 	adfeqe	f0, f1, f0
     c20:	00000154 	andeq	r0, r0, r4, asr r1
     c24:	020e0068 	andeq	r0, lr, #104	; 0x68
     c28:	0001600f 	andeq	r6, r1, pc
     c2c:	6c0f0500 	cfstr32vs	mvfx0, [pc], {-0}
     c30:	00000001 	andeq	r0, r0, r1
     c34:	0001780f 	andeq	r7, r1, pc, lsl #16
     c38:	90110000 	andsls	r0, r1, r0
     c3c:	b0000001 	andlt	r0, r0, r1
     c40:	01840e10 	orreq	r0, r4, r0, lsl lr
     c44:	02f40000 	rscseq	r0, r4, #0
     c48:	0000020e 	andeq	r0, r0, lr, lsl #4
     c4c:	00010b12 	andeq	r0, r1, r2, lsl fp
     c50:	880f0100 	stmdahi	pc, {r8}	; <UNPREDICTABLE>
     c54:	12878004 	addne	r8, r7, #4
     c58:	01000000 	mrseq	r0, (UNDEF: 0)
     c5c:	059d129c 	ldreq	r1, [sp, #668]	; 0x29c
     c60:	14010000 	strne	r0, [r1], #-0
     c64:	8780049c 			; <UNDEFINED> instruction: 0x8780049c
     c68:	00000012 	andeq	r0, r0, r2, lsl r0
     c6c:	81129c01 	tsthi	r2, r1, lsl #24
     c70:	01000005 	tsteq	r0, r5
     c74:	8004b019 	andhi	fp, r4, r9, lsl r0
     c78:	00001287 	andeq	r1, r0, r7, lsl #5
     c7c:	009c0100 	addseq	r0, ip, r0, lsl #2
     c80:	0000025c 	andeq	r0, r0, ip, asr r2
     c84:	041e0004 	ldreq	r0, [lr], #-4
     c88:	01040000 	mrseq	r0, (UNDEF: 4)
     c8c:	0000003c 	andeq	r0, r0, ip, lsr r0
     c90:	00064901 	andeq	r4, r6, r1, lsl #18
     c94:	00012a00 	andeq	r2, r1, r0, lsl #20
     c98:	8004c400 	andhi	ip, r4, r0, lsl #8
     c9c:	00007287 	andeq	r7, r0, r7, lsl #5
     ca0:	00030c00 	andeq	r0, r3, r0, lsl #24
     ca4:	06010200 	streq	r0, [r1], -r0, lsl #4
     ca8:	000000ea 	andeq	r0, r0, sl, ror #1
     cac:	01050202 	tsteq	r5, r2, lsl #4
     cb0:	03000001 	movweq	r0, #1
     cb4:	6e690504 	cdpvs	5, 6, cr0, cr9, cr4, {0}
     cb8:	08020074 	stmdaeq	r2, {r2, r4, r5, r6}
     cbc:	00000005 	andeq	r0, r0, r5
     cc0:	08010200 	stmdaeq	r1, {r9}
     cc4:	000000e8 	andeq	r0, r0, r8, ror #1
     cc8:	12070202 	andne	r0, r7, #536870912	; 0x20000000
     ccc:	04000001 	streq	r0, [r0], #-1
     cd0:	0000053a 	andeq	r0, r0, sl, lsr r5
     cd4:	005a0e04 	subseq	r0, sl, r4, lsl #28
     cd8:	04020000 	streq	r0, [r2], #-0
     cdc:	0000db07 	andeq	sp, r0, r7, lsl #22
     ce0:	07080200 	streq	r0, [r8, -r0, lsl #4]
     ce4:	000000d1 	ldrdeq	r0, [r0], -r1
     ce8:	69070402 	stmdbvs	r7, {r1, sl}
     cec:	05000001 	streq	r0, [r0, #-1]
     cf0:	0000004f 	andeq	r0, r0, pc, asr #32
     cf4:	80032006 	andhi	r2, r3, r6
     cf8:	0000e534 	andeq	lr, r0, r4, lsr r5
     cfc:	52440700 	subpl	r0, r4, #0, 14
     d00:	34810300 	strcc	r0, [r1], #768	; 0x300
     d04:	0000006f 	andeq	r0, r0, pc, rrx
     d08:	058c0800 	streq	r0, [ip, #2048]	; 0x800
     d0c:	82030000 	andhi	r0, r3, #0
     d10:	00006f34 	andeq	r6, r0, r4, lsr pc
     d14:	50070400 	andpl	r0, r7, r0, lsl #8
     d18:	03005253 	movweq	r5, #595	; 0x253
     d1c:	006f3483 	rsbeq	r3, pc, r3, lsl #9
     d20:	08080000 	stmdaeq	r8, {}	; <UNPREDICTABLE>
     d24:	00000610 	andeq	r0, r0, r0, lsl r6
     d28:	6f348403 	svcvs	0x00348403
     d2c:	0c000000 	stceq	0, cr0, [r0], {-0}
     d30:	00061508 	andeq	r1, r6, r8, lsl #10
     d34:	34850300 	strcc	r0, [r5], #768	; 0x300
     d38:	0000006f 	andeq	r0, r0, pc, rrx
     d3c:	4d490710 	stclmi	7, cr0, [r9, #-64]	; 0xffffffc0
     d40:	86030052 			; <UNDEFINED> instruction: 0x86030052
     d44:	00006f34 	andeq	r6, r0, r4, lsr pc
     d48:	49071400 	stmdbmi	r7, {sl, ip}
     d4c:	03005253 	movweq	r5, #595	; 0x253
     d50:	006f3487 	rsbeq	r3, pc, r7, lsl #9
     d54:	08180000 	ldmdaeq	r8, {}	; <UNPREDICTABLE>
     d58:	00000607 	andeq	r0, r0, r7, lsl #12
     d5c:	6f348803 	svcvs	0x00348803
     d60:	1c000000 	stcne	0, cr0, [r0], {-0}
     d64:	05ce0900 	strbeq	r0, [lr, #2304]	; 0x900
     d68:	89030000 	stmdbhi	r3, {}	; <UNPREDICTABLE>
     d6c:	00007434 	andeq	r7, r0, r4, lsr r4
     d70:	05b20a00 	ldreq	r0, [r2, #2560]!	; 0xa00
     d74:	23020000 	movwcs	r0, #8192	; 0x2000
     d78:	01470304 	cmpeq	r7, r4, lsl #6
     d7c:	910b0000 	mrsls	r0, (UNDEF: 11)
     d80:	02000005 	andeq	r0, r0, #5
     d84:	004f0423 	subeq	r0, pc, r3, lsr #8
     d88:	6b0b0000 	blvs	2c0d90 <shift+0x2c0d90>
     d8c:	02000005 	andeq	r0, r0, #5
     d90:	004f0424 	subeq	r0, pc, r4, lsr #8
     d94:	730b0000 	movwvc	r0, #45056	; 0xb000
     d98:	02000005 	andeq	r0, r0, #5
     d9c:	004f0425 	subeq	r0, pc, r5, lsr #8
     da0:	c30b0000 	movwgt	r0, #45056	; 0xb000
     da4:	02000005 	andeq	r0, r0, #5
     da8:	004f0426 	subeq	r0, pc, r6, lsr #8
     dac:	ec0b0000 	stc	0, cr0, [fp], {-0}
     db0:	02000005 	andeq	r0, r0, #5
     db4:	004f0427 	subeq	r0, pc, r7, lsr #8
     db8:	a50b0000 	strge	r0, [fp, #-0]
     dbc:	02000005 	andeq	r0, r0, #5
     dc0:	004f0428 	subeq	r0, pc, r8, lsr #8
     dc4:	0a000000 	beq	dcc <shift+0xdcc>
     dc8:	000005d8 	ldrdeq	r0, [r0], -r8
     dcc:	03044102 	movweq	r4, #16642	; 0x4102
     dd0:	0000019d 	muleq	r0, sp, r1
     dd4:	0005910b 	andeq	r9, r5, fp, lsl #2
     dd8:	04410200 	strbeq	r0, [r1], #-512	; 0xfffffe00
     ddc:	0000004f 	andeq	r0, r0, pc, asr #32
     de0:	00056b0b 	andeq	r6, r5, fp, lsl #22
     de4:	04420200 	strbeq	r0, [r2], #-512	; 0xfffffe00
     de8:	0000004f 	andeq	r0, r0, pc, asr #32
     dec:	0005730b 	andeq	r7, r5, fp, lsl #6
     df0:	04430200 	strbeq	r0, [r3], #-512	; 0xfffffe00
     df4:	0000004f 	andeq	r0, r0, pc, asr #32
     df8:	0005c30b 	andeq	ip, r5, fp, lsl #6
     dfc:	04440200 	strbeq	r0, [r4], #-512	; 0xfffffe00
     e00:	0000004f 	andeq	r0, r0, pc, asr #32
     e04:	0005ec0b 	andeq	lr, r5, fp, lsl #24
     e08:	04450200 	strbeq	r0, [r5], #-512	; 0xfffffe00
     e0c:	0000004f 	andeq	r0, r0, pc, asr #32
     e10:	0005fb0b 	andeq	pc, r5, fp, lsl #22
     e14:	04460200 	strbeq	r0, [r6], #-512	; 0xfffffe00
     e18:	0000004f 	andeq	r0, r0, pc, asr #32
     e1c:	00b30c00 	adcseq	r0, r3, r0, lsl #24
     e20:	05010000 	streq	r0, [r1, #-0]
     e24:	878004c4 	strhi	r0, [r0, r4, asr #9]
     e28:	00000036 	andeq	r0, r0, r6, lsr r0
     e2c:	022c9c01 	eoreq	r9, ip, #256	; 0x100
     e30:	f10d0000 			; <UNDEFINED> instruction: 0xf10d0000
     e34:	c4000000 	strgt	r0, [r0], #-0
     e38:	78878004 	stmvc	r7, {r2, pc}
     e3c:	01000000 	mrseq	r0, (UNDEF: 0)
     e40:	0001f007 	andeq	pc, r1, r7
     e44:	012e0e00 			; <UNDEFINED> instruction: 0x012e0e00
     e48:	00500000 	subseq	r0, r0, r0
     e4c:	3a0f0229 	bcc	3c16f8 <shift+0x3c16f8>
     e50:	00000001 	andeq	r0, r0, r1
     e54:	0001220f 	andeq	r2, r1, pc, lsl #4
     e58:	160f0000 	strne	r0, [pc], -r0
     e5c:	00000001 	andeq	r0, r0, r1
     e60:	00010a0f 	andeq	r0, r1, pc, lsl #20
     e64:	fe0e0500 	cdp2	5, 0, cr0, cr14, cr0, {0}
     e68:	0c000000 	stceq	0, cr0, [r0], {-0}
     e6c:	00022900 	andeq	r2, r2, r0, lsl #18
     e70:	00014710 	andeq	r4, r1, r0, lsl r7
     e74:	8004c600 	andhi	ip, r4, r0, lsl #12
     e78:	00009887 	andeq	r9, r0, r7, lsl #17
     e7c:	0e080100 	adfeqe	f0, f0, f0
     e80:	00000154 	andeq	r0, r0, r4, asr r1
     e84:	0229000c 	eoreq	r0, r9, #12
     e88:	0001600f 	andeq	r6, r1, pc
     e8c:	6c0f0500 	cfstr32vs	mvfx0, [pc], {-0}
     e90:	00000001 	andeq	r0, r0, r1
     e94:	0001780f 	andeq	r7, r1, pc, lsl #16
     e98:	90110000 	andsls	r0, r1, r0
     e9c:	b0000001 	andlt	r0, r0, r1
     ea0:	01840e10 	orreq	r0, r4, r0, lsl lr
     ea4:	00500000 	subseq	r0, r0, r0
     ea8:	00000229 	andeq	r0, r0, r9, lsr #4
     eac:	00064112 	andeq	r4, r6, r2, lsl r1
     eb0:	fc0e0100 	stc2	1, cr0, [lr], {-0}
     eb4:	12878004 	addne	r8, r7, #4
     eb8:	01000000 	mrseq	r0, (UNDEF: 0)
     ebc:	0638129c 			; <UNDEFINED> instruction: 0x0638129c
     ec0:	13010000 	movwne	r0, #4096	; 0x1000
     ec4:	87800510 	usada8hi	r0, r0, r5, r0
     ec8:	00000012 	andeq	r0, r0, r2, lsl r0
     ecc:	2c129c01 	ldccs	12, cr9, [r2], {1}
     ed0:	01000006 	tsteq	r0, r6
     ed4:	80052418 	andhi	r2, r5, r8, lsl r4
     ed8:	00001287 	andeq	r1, r0, r7, lsl #5
     edc:	009c0100 	addseq	r0, ip, r0, lsl #2
     ee0:	00000443 	andeq	r0, r0, r3, asr #8
     ee4:	051f0004 	ldreq	r0, [pc, #-4]	; ee8 <shift+0xee8>
     ee8:	01040000 	mrseq	r0, (UNDEF: 4)
     eec:	0000003c 	andeq	r0, r0, ip, lsr r0
     ef0:	00069f01 	andeq	r9, r6, r1, lsl #30
     ef4:	00012a00 	andeq	r2, r1, r0, lsl #20
     ef8:	80053800 	andhi	r3, r5, r0, lsl #16
     efc:	00008e87 	andeq	r8, r0, r7, lsl #29
     f00:	0003bc00 	andeq	fp, r3, r0, lsl #24
     f04:	03040200 	movweq	r0, #16896	; 0x4200
     f08:	00004604 	andeq	r4, r0, r4, lsl #12
     f0c:	07930300 	ldreq	r0, [r3, r0, lsl #6]
     f10:	03000000 	movweq	r0, #0
     f14:	000006c4 	andeq	r0, r0, r4, asr #13
     f18:	079c0301 	ldreq	r0, [ip, r1, lsl #6]
     f1c:	03020000 	movweq	r0, #8192	; 0x2000
     f20:	000007e7 	andeq	r0, r0, r7, ror #15
     f24:	cc040003 	stcgt	0, cr0, [r4], {3}
     f28:	03000007 	movweq	r0, #7
     f2c:	00002509 	andeq	r2, r0, r9, lsl #10
     f30:	06010500 	streq	r0, [r1], -r0, lsl #10
     f34:	000000ea 	andeq	r0, r0, sl, ror #1
     f38:	01050205 	tsteq	r5, r5, lsl #4
     f3c:	06000001 	streq	r0, [r0], -r1
     f40:	6e690504 	cdpvs	5, 6, cr0, cr9, cr4, {0}
     f44:	08050074 	stmdaeq	r5, {r2, r4, r5, r6}
     f48:	00000005 	andeq	r0, r0, r5
     f4c:	08010500 	stmdaeq	r1, {r8, sl}
     f50:	000000e8 	andeq	r0, r0, r8, ror #1
     f54:	12070205 	andne	r0, r7, #1342177280	; 0x50000000
     f58:	04000001 	streq	r0, [r0], #-1
     f5c:	0000053a 	andeq	r0, r0, sl, lsr r5
     f60:	00860e04 	addeq	r0, r6, r4, lsl #28
     f64:	04050000 	streq	r0, [r5], #-0
     f68:	0000db07 	andeq	sp, r0, r7, lsl #22
     f6c:	07080500 	streq	r0, [r8, -r0, lsl #10]
     f70:	000000d1 	ldrdeq	r0, [r0], -r1
     f74:	69070405 	stmdbvs	r7, {r0, r2, sl}
     f78:	07000001 	streq	r0, [r0, -r1]
     f7c:	0000007b 	andeq	r0, r0, fp, ror r0
     f80:	80052008 	andhi	r2, r5, r8
     f84:	00011134 	andeq	r1, r1, r4, lsr r1
     f88:	52440900 	subpl	r0, r4, #0, 18
     f8c:	34810500 	strcc	r0, [r1], #1280	; 0x500
     f90:	0000009b 	muleq	r0, fp, r0
     f94:	058c0a00 	streq	r0, [ip, #2560]	; 0xa00
     f98:	82050000 	andhi	r0, r5, #0
     f9c:	00009b34 	andeq	r9, r0, r4, lsr fp
     fa0:	50090400 	andpl	r0, r9, r0, lsl #8
     fa4:	05005253 	streq	r5, [r0, #-595]	; 0xfffffdad
     fa8:	009b3483 	addseq	r3, fp, r3, lsl #9
     fac:	0a080000 	beq	200fb4 <shift+0x200fb4>
     fb0:	00000610 	andeq	r0, r0, r0, lsl r6
     fb4:	9b348405 	blls	d21fd0 <shift+0xd21fd0>
     fb8:	0c000000 	stceq	0, cr0, [r0], {-0}
     fbc:	0006150a 	andeq	r1, r6, sl, lsl #10
     fc0:	34850500 	strcc	r0, [r5], #1280	; 0x500
     fc4:	0000009b 	muleq	r0, fp, r0
     fc8:	4d490910 	vstrmi.16	s1, [r9, #-32]	; 0xffffffe0	; <UNPREDICTABLE>
     fcc:	86050052 			; <UNDEFINED> instruction: 0x86050052
     fd0:	00009b34 	andeq	r9, r0, r4, lsr fp
     fd4:	49091400 	stmdbmi	r9, {sl, ip}
     fd8:	05005253 	streq	r5, [r0, #-595]	; 0xfffffdad
     fdc:	009b3487 	addseq	r3, fp, r7, lsl #9
     fe0:	0a180000 	beq	600fe8 <shift+0x600fe8>
     fe4:	00000607 	andeq	r0, r0, r7, lsl #12
     fe8:	9b348805 	blls	d23004 <shift+0xd23004>
     fec:	1c000000 	stcne	0, cr0, [r0], {-0}
     ff0:	05ce0b00 	strbeq	r0, [lr, #2816]	; 0xb00
     ff4:	89050000 	stmdbhi	r5, {}	; <UNPREDICTABLE>
     ff8:	0000a034 	andeq	sl, r0, r4, lsr r0
     ffc:	07040500 	streq	r0, [r4, -r0, lsl #10]
    1000:	000000d6 	ldrdeq	r0, [r0], -r6
    1004:	0006fb04 	andeq	pc, r6, r4, lsl #22
    1008:	6d260600 	stcvs	6, cr0, [r6, #-0]
    100c:	04000000 	streq	r0, [r0], #-0
    1010:	00000538 	andeq	r0, r0, r8, lsr r5
    1014:	00862a06 	addeq	r2, r6, r6, lsl #20
    1018:	04050000 	streq	r0, [r5], #-0
    101c:	00000505 	andeq	r0, r0, r5, lsl #10
    1020:	08010500 	stmdaeq	r1, {r8, sl}
    1024:	000000f1 	strdeq	r0, [r0], -r1
    1028:	06070402 	streq	r0, [r7], -r2, lsl #8
    102c:	00000175 	andeq	r0, r0, r5, ror r1
    1030:	0006ce03 	andeq	ip, r6, r3, lsl #28
    1034:	75030000 	strvc	r0, [r3, #-0]
    1038:	01000007 	tsteq	r0, r7
    103c:	00067203 	andeq	r7, r6, r3, lsl #4
    1040:	b8030200 	stmdalt	r3, {r9}
    1044:	03000007 	movweq	r0, #7
    1048:	00065d03 	andeq	r5, r6, r3, lsl #26
    104c:	43030400 	movwmi	r0, #13312	; 0x3400
    1050:	05000007 	streq	r0, [r0, #-7]
    1054:	071f0400 	ldreq	r0, [pc, -r0, lsl #8]
    1058:	0d070000 	stceq	0, cr0, [r7, #-0]
    105c:	00000148 	andeq	r0, r0, r8, asr #2
    1060:	0f070402 	svceq	0x00070402
    1064:	00000195 	muleq	r0, r5, r1
    1068:	0006b103 	andeq	fp, r6, r3, lsl #2
    106c:	de030000 	cdple	0, 0, cr0, cr3, cr0, {0}
    1070:	01000006 	tsteq	r0, r6
    1074:	07600400 	strbeq	r0, [r0, -r0, lsl #8]!
    1078:	12070000 	andne	r0, r7, #0
    107c:	00000180 	andeq	r0, r0, r0, lsl #3
    1080:	14070c0c 	strne	r0, [r7], #-3084	; 0xfffff3f4
    1084:	000001cd 	andeq	r0, r0, sp, asr #3
    1088:	0006850d 	andeq	r8, r6, sp, lsl #10
    108c:	95160700 	ldrls	r0, [r6, #-1792]	; 0xfffff900
    1090:	00000001 	andeq	r0, r0, r1
    1094:	0007870d 	andeq	r8, r7, sp, lsl #14
    1098:	24170700 	ldrcs	r0, [r7], #-1792	; 0xfffff900
    109c:	04000001 	streq	r0, [r0], #-1
    10a0:	0007350d 	andeq	r3, r7, sp, lsl #10
    10a4:	75180700 	ldrvc	r0, [r8, #-1792]	; 0xfffff900
    10a8:	08000001 	stmdaeq	r0, {r0}
    10ac:	07d50400 	ldrbeq	r0, [r5, r0, lsl #8]
    10b0:	19070000 	stmdbne	r7, {}	; <UNPREDICTABLE>
    10b4:	000001a0 	andeq	r0, r0, r0, lsr #3
    10b8:	0005b20e 	andeq	fp, r5, lr, lsl #4
    10bc:	04230200 	strteq	r0, [r3], #-512	; 0xfffffe00
    10c0:	00022e03 	andeq	r2, r2, r3, lsl #28
    10c4:	05910f00 	ldreq	r0, [r1, #3840]	; 0xf00
    10c8:	23020000 	movwcs	r0, #8192	; 0x2000
    10cc:	00012f04 	andeq	r2, r1, r4, lsl #30
    10d0:	056b0f00 	strbeq	r0, [fp, #-3840]!	; 0xfffff100
    10d4:	24020000 	strcs	r0, [r2], #-0
    10d8:	00012f04 	andeq	r2, r1, r4, lsl #30
    10dc:	05730f00 	ldrbeq	r0, [r3, #-3840]!	; 0xfffff100
    10e0:	25020000 	strcs	r0, [r2, #-0]
    10e4:	00012f04 	andeq	r2, r1, r4, lsl #30
    10e8:	05c30f00 	strbeq	r0, [r3, #3840]	; 0xf00
    10ec:	26020000 	strcs	r0, [r2], -r0
    10f0:	00012f04 	andeq	r2, r1, r4, lsl #30
    10f4:	05ec0f00 	strbeq	r0, [ip, #3840]!	; 0xf00
    10f8:	27020000 	strcs	r0, [r2, -r0]
    10fc:	00012f04 	andeq	r2, r1, r4, lsl #30
    1100:	05a50f00 	streq	r0, [r5, #3840]!	; 0xf00
    1104:	28020000 	stmdacs	r2, {}	; <UNPREDICTABLE>
    1108:	00012f04 	andeq	r2, r1, r4, lsl #30
    110c:	d80e0000 	stmdale	lr, {}	; <UNPREDICTABLE>
    1110:	02000005 	andeq	r0, r0, #5
    1114:	84030441 	strhi	r0, [r3], #-1089	; 0xfffffbbf
    1118:	0f000002 	svceq	0x00000002
    111c:	00000591 	muleq	r0, r1, r5
    1120:	2f044102 	svccs	0x00044102
    1124:	0f000001 	svceq	0x00000001
    1128:	0000056b 	andeq	r0, r0, fp, ror #10
    112c:	2f044202 	svccs	0x00044202
    1130:	0f000001 	svceq	0x00000001
    1134:	00000573 	andeq	r0, r0, r3, ror r5
    1138:	2f044302 	svccs	0x00044302
    113c:	0f000001 	svceq	0x00000001
    1140:	000005c3 	andeq	r0, r0, r3, asr #11
    1144:	2f044402 	svccs	0x00044402
    1148:	0f000001 	svceq	0x00000001
    114c:	000005ec 	andeq	r0, r0, ip, ror #11
    1150:	2f044502 	svccs	0x00044502
    1154:	0f000001 	svceq	0x00000001
    1158:	000005fb 	strdeq	r0, [r0], -fp
    115c:	2f044602 	svccs	0x00044602
    1160:	00000001 	andeq	r0, r0, r1
    1164:	0006f210 	andeq	pc, r6, r0, lsl r2	; <UNPREDICTABLE>
    1168:	5f0f0100 	svcpl	0x000f0100
    116c:	01000000 	mrseq	r0, (UNDEF: 0)
    1170:	00068f11 	andeq	r8, r6, r1, lsl pc
    1174:	38060100 	stmdacc	r6, {r8}
    1178:	38878005 	stmcc	r7, {r0, r2, pc}
    117c:	01000000 	mrseq	r0, (UNDEF: 0)
    1180:	0003469c 	muleq	r3, ip, r6
    1184:	06981200 	ldreq	r1, [r8], r0, lsl #4
    1188:	0b010000 	bleq	41190 <shift+0x41190>
    118c:	000001cd 	andeq	r0, r0, sp, asr #3
    1190:	136c9102 	cmnne	ip, #-2147483648	; 0x80000000
    1194:	000001d8 	ldrdeq	r0, [r0], -r8
    1198:	87800538 			; <UNDEFINED> instruction: 0x87800538
    119c:	000000c0 	andeq	r0, r0, r0, asr #1
    11a0:	02f10801 	rscseq	r0, r1, #65536	; 0x10000
    11a4:	15140000 	ldrne	r0, [r4, #-0]
    11a8:	18000002 	stmdane	r0, {r1}
    11ac:	15020e03 	strne	r0, [r2, #-3587]	; 0xfffff1fd
    11b0:	00000221 	andeq	r0, r0, r1, lsr #4
    11b4:	02091500 	andeq	r1, r9, #0, 10
    11b8:	15000000 	strne	r0, [r0, #-0]
    11bc:	000001fd 	strdeq	r0, [r0], -sp
    11c0:	01f11500 	mvnseq	r1, r0, lsl #10
    11c4:	14050000 	strne	r0, [r5], #-0
    11c8:	000001e5 	andeq	r0, r0, r5, ror #3
    11cc:	020e008c 	andeq	r0, lr, #140	; 0x8c
    11d0:	022e1300 	eoreq	r1, lr, #0, 6
    11d4:	053a0000 	ldreq	r0, [sl, #-0]!
    11d8:	00e88780 	rsceq	r8, r8, r0, lsl #15
    11dc:	09010000 	stmdbeq	r1, {}	; <UNPREDICTABLE>
    11e0:	00000330 	andeq	r0, r0, r0, lsr r3
    11e4:	00023b14 	andeq	r3, r2, r4, lsl fp
    11e8:	0e008c00 	cdpeq	12, 0, cr8, cr0, cr0, {0}
    11ec:	02471502 	subeq	r1, r7, #8388608	; 0x800000
    11f0:	15050000 	strne	r0, [r5, #-0]
    11f4:	00000253 	andeq	r0, r0, r3, asr r2
    11f8:	025f1500 	subseq	r1, pc, #0, 10
    11fc:	16000000 	strne	r0, [r0], -r0
    1200:	00000277 	andeq	r0, r0, r7, ror r2
    1204:	6b14f080 	blvs	53d40c <shift+0x53d40c>
    1208:	18000002 	stmdane	r0, {r1}
    120c:	00020e03 	andeq	r0, r2, r3, lsl #28
    1210:	80056c17 	andhi	r6, r5, r7, lsl ip
    1214:	0003f887 	andeq	pc, r3, r7, lsl #17
    1218:	51011800 	tstpl	r1, r0, lsl #16
    121c:	01184201 	tsteq	r8, r1, lsl #4
    1220:	6c910252 	lfmvs	f0, 4, [r1], {82}	; 0x52
    1224:	05190000 	ldreq	r0, [r9, #-0]
    1228:	01000007 	tsteq	r0, r7
    122c:	00004614 	andeq	r4, r0, r4, lsl r6
    1230:	80057000 	andhi	r7, r5, r0
    1234:	00005687 	andeq	r5, r0, r7, lsl #13
    1238:	f89c0100 			; <UNDEFINED> instruction: 0xf89c0100
    123c:	1a000003 	bne	1250 <shift+0x1250>
    1240:	00746572 	rsbseq	r6, r4, r2, ror r5
    1244:	00461601 	subeq	r1, r6, r1, lsl #12
    1248:	01300000 	teqeq	r0, r0
    124c:	a6120000 	ldrge	r0, [r2], -r0
    1250:	01000007 	tsteq	r0, r7
    1254:	00012417 	andeq	r2, r1, r7, lsl r4
    1258:	68030500 	stmdavs	r3, {r8, sl}
    125c:	1b878011 	blne	fe1e12a8 <__bss_end+0x769dfc38>
    1260:	00000284 	andeq	r0, r0, r4, lsl #5
    1264:	8780057e 			; <UNDEFINED> instruction: 0x8780057e
    1268:	0000000e 	andeq	r0, r0, lr
    126c:	03a21901 			; <UNDEFINED> instruction: 0x03a21901
    1270:	8c170000 	ldchi	0, cr0, [r7], {-0}
    1274:	1f878005 	svcne	0x00878005
    1278:	18000004 	stmdane	r0, {r2}
    127c:	42015101 	andmi	r5, r1, #1073741824	; 0x40000000
    1280:	841b0000 	ldrhi	r0, [fp], #-0
    1284:	90000002 	andls	r0, r0, r2
    1288:	0e878005 	cdpeq	0, 8, cr8, cr7, cr5, {0}
    128c:	01000000 	mrseq	r0, (UNDEF: 0)
    1290:	0003c520 	andeq	ip, r3, r0, lsr #10
    1294:	059e1700 	ldreq	r1, [lr, #1792]	; 0x700
    1298:	041f8780 	ldreq	r8, [pc], #-1920	; 12a0 <shift+0x12a0>
    129c:	01180000 	tsteq	r8, r0
    12a0:	00420151 	subeq	r0, r2, r1, asr r1
    12a4:	02841300 	addeq	r1, r4, #0, 6
    12a8:	05ae0000 	streq	r0, [lr, #0]!
    12ac:	01108780 	tsteq	r0, r0, lsl #15
    12b0:	1d010000 	stcne	0, cr0, [r1, #-0]
    12b4:	000003e8 	andeq	r0, r0, r8, ror #7
    12b8:	8005be17 	andhi	fp, r5, r7, lsl lr
    12bc:	00041f87 	andeq	r1, r4, r7, lsl #31
    12c0:	51011800 	tstpl	r1, r0, lsl #16
    12c4:	00004201 	andeq	r4, r0, r1, lsl #4
    12c8:	8005ae17 	andhi	sl, r5, r7, lsl lr
    12cc:	00043987 	andeq	r3, r4, r7, lsl #19
    12d0:	50011800 	andpl	r1, r1, r0, lsl #16
    12d4:	00003a01 	andeq	r3, r0, r1, lsl #20
    12d8:	0007ae1c 	andeq	sl, r7, ip, lsl lr
    12dc:	131b0700 	tstne	fp, #0, 14
    12e0:	1d000004 	stcne	0, cr0, [r0, #-16]
    12e4:	00000413 	andeq	r0, r0, r3, lsl r4
    12e8:	00012f1d 	andeq	r2, r1, sp, lsl pc
    12ec:	04191d00 	ldreq	r1, [r9], #-3328	; 0xfffff300
    12f0:	1e000000 	cdpne	0, 0, cr0, cr0, cr0, {0}
    12f4:	00011104 	andeq	r1, r1, r4, lsl #2
    12f8:	cd041e00 	stcgt	14, cr1, [r4, #-0]
    12fc:	1f000001 	svcne	0x00000001
    1300:	00000712 	andeq	r0, r0, r2, lsl r7
    1304:	005f1d07 	subseq	r1, pc, r7, lsl #26
    1308:	04390000 	ldrteq	r0, [r9], #-0
    130c:	131d0000 	tstne	sp, #0
    1310:	1d000004 	stcne	0, cr0, [r0, #-16]
    1314:	0000012f 	andeq	r0, r0, pc, lsr #2
    1318:	05232000 	streq	r2, [r3, #-0]!
    131c:	09080000 	stmdbeq	r8, {}	; <UNPREDICTABLE>
    1320:	00012f1d 	andeq	r2, r1, sp, lsl pc
    1324:	37000000 	strcc	r0, [r0, -r0]
    1328:	04000004 	streq	r0, [r0], #-4
    132c:	0006e700 	andeq	lr, r6, r0, lsl #14
    1330:	3c010400 	cfstrscc	mvf0, [r1], {-0}
    1334:	01000000 	mrseq	r0, (UNDEF: 0)
    1338:	0000086d 	andeq	r0, r0, sp, ror #16
    133c:	0000012a 	andeq	r0, r0, sl, lsr #2
    1340:	878005c8 	strhi	r0, [r0, r8, asr #11]
    1344:	00000112 	andeq	r0, r0, r2, lsl r1
    1348:	000004ff 	strdeq	r0, [r0], -pc	; <UNPREDICTABLE>
    134c:	ea060102 	b	18175c <shift+0x18175c>
    1350:	02000000 	andeq	r0, r0, #0
    1354:	01010502 	tsteq	r1, r2, lsl #10
    1358:	04030000 	streq	r0, [r3], #-0
    135c:	746e6905 	strbtvc	r6, [lr], #-2309	; 0xfffff6fb
    1360:	05080200 	streq	r0, [r8, #-512]	; 0xfffffe00
    1364:	00000000 	andeq	r0, r0, r0
    1368:	0006fd04 	andeq	pc, r6, r4, lsl #26
    136c:	4c0c0200 	sfmmi	f0, 4, [ip], {-0}
    1370:	02000000 	andeq	r0, r0, #0
    1374:	00e80801 	rsceq	r0, r8, r1, lsl #16
    1378:	02020000 	andeq	r0, r2, #0
    137c:	00011207 	andeq	r1, r1, r7, lsl #4
    1380:	053a0400 	ldreq	r0, [sl, #-1024]!	; 0xfffffc00
    1384:	0e020000 	cdpeq	0, 0, cr0, cr2, cr0, {0}
    1388:	00000065 	andeq	r0, r0, r5, rrx
    138c:	db070402 	blle	1c239c <shift+0x1c239c>
    1390:	02000000 	andeq	r0, r0, #0
    1394:	00d10708 	sbcseq	r0, r1, r8, lsl #14
    1398:	04020000 	streq	r0, [r2], #-0
    139c:	00016907 	andeq	r6, r1, r7, lsl #18
    13a0:	005a0500 	subseq	r0, sl, r0, lsl #10
    13a4:	20060000 	andcs	r0, r6, r0
    13a8:	f0348003 			; <UNDEFINED> instruction: 0xf0348003
    13ac:	07000000 	streq	r0, [r0, -r0]
    13b0:	03005244 	movweq	r5, #580	; 0x244
    13b4:	007a3481 	rsbseq	r3, sl, r1, lsl #9
    13b8:	08000000 	stmdaeq	r0, {}	; <UNPREDICTABLE>
    13bc:	0000058c 	andeq	r0, r0, ip, lsl #11
    13c0:	7a348203 	bvc	d21bd4 <shift+0xd21bd4>
    13c4:	04000000 	streq	r0, [r0], #-0
    13c8:	52535007 	subspl	r5, r3, #7
    13cc:	34830300 	strcc	r0, [r3], #768	; 0x300
    13d0:	0000007a 	andeq	r0, r0, sl, ror r0
    13d4:	06100808 	ldreq	r0, [r0], -r8, lsl #16
    13d8:	84030000 	strhi	r0, [r3], #-0
    13dc:	00007a34 	andeq	r7, r0, r4, lsr sl
    13e0:	15080c00 	strne	r0, [r8, #-3072]	; 0xfffff400
    13e4:	03000006 	movweq	r0, #6
    13e8:	007a3485 	rsbseq	r3, sl, r5, lsl #9
    13ec:	07100000 	ldreq	r0, [r0, -r0]
    13f0:	00524d49 	subseq	r4, r2, r9, asr #26
    13f4:	7a348603 	bvc	d22c08 <shift+0xd22c08>
    13f8:	14000000 	strne	r0, [r0], #-0
    13fc:	52534907 	subspl	r4, r3, #114688	; 0x1c000
    1400:	34870300 	strcc	r0, [r7], #768	; 0x300
    1404:	0000007a 	andeq	r0, r0, sl, ror r0
    1408:	06070818 			; <UNDEFINED> instruction: 0x06070818
    140c:	88030000 	stmdahi	r3, {}	; <UNPREDICTABLE>
    1410:	00007a34 	andeq	r7, r0, r4, lsr sl
    1414:	09001c00 	stmdbeq	r0, {sl, fp, ip}
    1418:	000005ce 	andeq	r0, r0, lr, asr #11
    141c:	7f348903 	svcvc	0x00348903
    1420:	0a000000 	beq	1428 <shift+0x1428>
    1424:	29060404 	stmdbcs	r6, {r2, sl}
    1428:	0b000001 	bleq	1434 <shift+0x1434>
    142c:	000006ce 	andeq	r0, r0, lr, asr #13
    1430:	07750b00 	ldrbeq	r0, [r5, -r0, lsl #22]!
    1434:	0b010000 	bleq	4143c <shift+0x4143c>
    1438:	00000672 	andeq	r0, r0, r2, ror r6
    143c:	07b80b02 	ldreq	r0, [r8, r2, lsl #22]!
    1440:	0b030000 	bleq	c1448 <shift+0xc1448>
    1444:	0000065d 	andeq	r0, r0, sp, asr r6
    1448:	07430b04 	strbeq	r0, [r3, -r4, lsl #22]
    144c:	00050000 	andeq	r0, r5, r0
    1450:	00071f04 	andeq	r1, r7, r4, lsl #30
    1454:	fc0d0400 	stc2	4, cr0, [sp], {-0}
    1458:	0a000000 	beq	1460 <shift+0x1460>
    145c:	490f0404 	stmdbmi	pc, {r2, sl}	; <UNPREDICTABLE>
    1460:	0b000001 	bleq	146c <shift+0x146c>
    1464:	000006b1 			; <UNDEFINED> instruction: 0x000006b1
    1468:	06de0b00 	ldrbeq	r0, [lr], r0, lsl #22
    146c:	00010000 	andeq	r0, r1, r0
    1470:	00076004 	andeq	r6, r7, r4
    1474:	34120400 	ldrcc	r0, [r2], #-1024	; 0xfffffc00
    1478:	0c000001 	stceq	0, cr0, [r0], {1}
    147c:	8114040c 	tsthi	r4, ip, lsl #8
    1480:	0d000001 	stceq	0, cr0, [r0, #-4]
    1484:	00000685 	andeq	r0, r0, r5, lsl #13
    1488:	01491604 	cmpeq	r9, r4, lsl #12
    148c:	0d000000 	stceq	0, cr0, [r0, #-0]
    1490:	00000787 	andeq	r0, r0, r7, lsl #15
    1494:	00411704 	subeq	r1, r1, r4, lsl #14
    1498:	0d040000 	stceq	0, cr0, [r4, #-0]
    149c:	00000735 	andeq	r0, r0, r5, lsr r7
    14a0:	01291804 			; <UNDEFINED> instruction: 0x01291804
    14a4:	00080000 	andeq	r0, r8, r0
    14a8:	0007d504 	andeq	sp, r7, r4, lsl #10
    14ac:	54190400 	ldrpl	r0, [r9], #-1024	; 0xfffffc00
    14b0:	02000001 	andeq	r0, r0, #1
    14b4:	00d60704 	sbcseq	r0, r6, r4, lsl #14
    14b8:	38040000 	stmdacc	r4, {}	; <UNPREDICTABLE>
    14bc:	05000005 	streq	r0, [r0, #-5]
    14c0:	0000652a 	andeq	r6, r0, sl, lsr #10
    14c4:	05040200 	streq	r0, [r4, #-512]	; 0xfffffe00
    14c8:	00000005 	andeq	r0, r0, r5
    14cc:	f1080102 	cps	#2
    14d0:	05000000 	streq	r0, [r0, #-0]
    14d4:	00000193 	muleq	r0, r3, r1
    14d8:	0008260e 	andeq	r2, r8, lr, lsl #12
    14dc:	01440100 	mrseq	r0, (UNDEF: 84)
    14e0:	000001df 	ldrdeq	r0, [r0], -pc	; <UNPREDICTABLE>
    14e4:	00080b0f 	andeq	r0, r8, pc, lsl #22
    14e8:	df440100 	svcle	0x00440100
    14ec:	10000001 	andne	r0, r0, r1
    14f0:	006e6970 	rsbeq	r6, lr, r0, ror r9
    14f4:	01934401 	orrseq	r4, r3, r1, lsl #8
    14f8:	1d0f0000 	stcne	0, cr0, [pc, #-0]	; 1500 <shift+0x1500>
    14fc:	01000005 	tsteq	r0, r5
    1500:	00003344 	andeq	r3, r0, r4, asr #6
    1504:	04110000 	ldreq	r0, [r1], #-0
    1508:	000000f0 	strdeq	r0, [r0], -r0	; <UNPREDICTABLE>
    150c:	00081012 	andeq	r1, r8, r2, lsl r0
    1510:	c8100100 	ldmdagt	r0, {r8}
    1514:	0c878005 	stceq	0, cr8, [r7], {5}
    1518:	01000000 	mrseq	r0, (UNDEF: 0)
    151c:	0002159c 	muleq	r2, ip, r5
    1520:	080b1300 	stmdaeq	fp, {r8, r9, ip}
    1524:	10010000 	andne	r0, r1, r0
    1528:	000001df 	ldrdeq	r0, [r0], -pc	; <UNPREDICTABLE>
    152c:	70145001 	andsvc	r5, r4, r1
    1530:	01006e69 	tsteq	r0, r9, ror #28
    1534:	00019310 	andeq	r9, r1, r0, lsl r3
    1538:	00510100 	subseq	r0, r1, r0, lsl #2
    153c:	00084d12 	andeq	r4, r8, r2, lsl sp
    1540:	d4150100 	ldrle	r0, [r5], #-256	; 0xffffff00
    1544:	0e878005 	cdpeq	0, 8, cr8, cr7, cr5, {0}
    1548:	01000000 	mrseq	r0, (UNDEF: 0)
    154c:	0002459c 	muleq	r2, ip, r5
    1550:	080b1300 	stmdaeq	fp, {r8, r9, ip}
    1554:	15010000 	strne	r0, [r1, #-0]
    1558:	000001df 	ldrdeq	r0, [r0], -pc	; <UNPREDICTABLE>
    155c:	70145001 	andsvc	r5, r4, r1
    1560:	01006e69 	tsteq	r0, r9, ror #28
    1564:	00019315 	andeq	r9, r1, r5, lsl r3
    1568:	00510100 	subseq	r0, r1, r0, lsl #2
    156c:	0007f112 	andeq	pc, r7, r2, lsl r1	; <UNPREDICTABLE>
    1570:	e41a0100 	ldr	r0, [sl], #-256	; 0xffffff00
    1574:	0c878005 	stceq	0, cr8, [r7], {5}
    1578:	01000000 	mrseq	r0, (UNDEF: 0)
    157c:	0002759c 	muleq	r2, ip, r5
    1580:	080b1300 	stmdaeq	fp, {r8, r9, ip}
    1584:	1a010000 	bne	4158c <shift+0x4158c>
    1588:	000001df 	ldrdeq	r0, [r0], -pc	; <UNPREDICTABLE>
    158c:	70145001 	andsvc	r5, r4, r1
    1590:	01006e69 	tsteq	r0, r9, ror #28
    1594:	0001931a 	andeq	r9, r1, sl, lsl r3
    1598:	00510100 	subseq	r0, r1, r0, lsl #2
    159c:	00083912 	andeq	r3, r8, r2, lsl r9
    15a0:	f01f0100 			; <UNDEFINED> instruction: 0xf01f0100
    15a4:	78878005 	stmvc	r7, {r0, r2, pc}
    15a8:	01000000 	mrseq	r0, (UNDEF: 0)
    15ac:	0002d49c 	muleq	r2, ip, r4
    15b0:	080b1300 	stmdaeq	fp, {r8, r9, ip}
    15b4:	1f010000 	svcne	0x00010000
    15b8:	000001df 	ldrdeq	r0, [r0], -pc	; <UNPREDICTABLE>
    15bc:	70155001 	andsvc	r5, r5, r1
    15c0:	01006e69 	tsteq	r0, r9, ror #28
    15c4:	0001931f 	andeq	r9, r1, pc, lsl r3
    15c8:	00015b00 	andeq	r5, r1, r0, lsl #22
    15cc:	08341600 	ldmdaeq	r4!, {r9, sl, ip}
    15d0:	1f010000 	svcne	0x00010000
    15d4:	00000129 	andeq	r0, r0, r9, lsr #2
    15d8:	0000017c 	andeq	r0, r0, ip, ror r1
    15dc:	72636917 	rsbvc	r6, r3, #376832	; 0x5c000
    15e0:	d4210100 	strtle	r0, [r1], #-256	; 0xffffff00
    15e4:	aa000002 	bge	15f4 <shift+0x15f4>
    15e8:	18000001 	stmdane	r0, {r0}
    15ec:	00000864 	andeq	r0, r0, r4, ror #16
    15f0:	01932201 	orrseq	r2, r3, r1, lsl #4
    15f4:	01ea0000 	mvneq	r0, r0
    15f8:	11000000 	mrsne	r0, (UNDEF: 0)
    15fc:	0001ac04 	andeq	sl, r1, r4, lsl #24
    1600:	07ae1200 	streq	r1, [lr, r0, lsl #4]!
    1604:	04010000 	streq	r0, [r1], #-0
    1608:	87800668 	strhi	r0, [r0, r8, ror #12]
    160c:	0000004c 	andeq	r0, r0, ip, asr #32
    1610:	03bd9c01 			; <UNDEFINED> instruction: 0x03bd9c01
    1614:	0b160000 	bleq	58161c <shift+0x58161c>
    1618:	01000008 	tsteq	r0, r8
    161c:	0001df04 	andeq	sp, r1, r4, lsl #30
    1620:	00023b00 	andeq	r3, r2, r0, lsl #22
    1624:	69701500 	ldmdbvs	r0!, {r8, sl, ip}^
    1628:	0401006e 	streq	r0, [r1], #-110	; 0xffffff92
    162c:	00000193 	muleq	r0, r3, r1
    1630:	0000028e 	andeq	r0, r0, lr, lsl #5
    1634:	00069816 	andeq	r9, r6, r6, lsl r8
    1638:	bd040100 	stflts	f0, [r4, #-0]
    163c:	e1000003 	tst	r0, r3
    1640:	19000002 	stmdbne	r0, {r1}
    1644:	000001b1 			; <UNDEFINED> instruction: 0x000001b1
    1648:	87800678 			; <UNDEFINED> instruction: 0x87800678
    164c:	00000128 	andeq	r0, r0, r8, lsr #2
    1650:	036c0a01 	cmneq	ip, #4096	; 0x1000
    1654:	d31a0000 	tstle	sl, #0
    1658:	34000001 	strcc	r0, [r0], #-1
    165c:	1a000003 	bne	1670 <shift+0x1670>
    1660:	000001c8 	andeq	r0, r0, r8, asr #3
    1664:	000003b2 			; <UNDEFINED> instruction: 0x000003b2
    1668:	0001bd1a 	andeq	fp, r1, sl, lsl sp
    166c:	0003ec00 	andeq	lr, r3, r0, lsl #24
    1670:	01601b00 	cmneq	r0, r0, lsl #22
    1674:	d31a0000 	tstle	sl, #0
    1678:	26000001 	strcs	r0, [r0], -r1
    167c:	1a000004 	bne	1694 <shift+0x1694>
    1680:	000001c8 	andeq	r0, r0, r8, asr #3
    1684:	00000460 	andeq	r0, r0, r0, ror #8
    1688:	0001bd1a 	andeq	fp, r1, sl, lsl sp
    168c:	00048100 	andeq	r8, r4, r0, lsl #2
    1690:	1c000000 	stcne	0, cr0, [r0], {-0}
    1694:	8780068c 	strhi	r0, [r0, ip, lsl #13]
    1698:	00000275 	andeq	r0, r0, r5, ror r2
    169c:	00000388 	andeq	r0, r0, r8, lsl #7
    16a0:	0350011d 	cmpeq	r0, #1073741831	; 0x40000007
    16a4:	1d5001f3 	ldfnee	f0, [r0, #-972]	; 0xfffffc34
    16a8:	f3035101 	vrhadd.u8	d5, d3, d1
    16ac:	1c005101 	stfnes	f5, [r0], {1}
    16b0:	878006a2 	strhi	r0, [r0, r2, lsr #13]
    16b4:	00000275 	andeq	r0, r0, r5, ror r2
    16b8:	000003a4 	andeq	r0, r0, r4, lsr #7
    16bc:	0350011d 	cmpeq	r0, #1073741831	; 0x40000007
    16c0:	1d5001f3 	ldfnee	f0, [r0, #-972]	; 0xfffffc34
    16c4:	f3035101 	vrhadd.u8	d5, d3, d1
    16c8:	1e005101 	adfnes	f5, f0, f1
    16cc:	878006b4 			; <UNDEFINED> instruction: 0x878006b4
    16d0:	00000275 	andeq	r0, r0, r5, ror r2
    16d4:	0350011d 	cmpeq	r0, #1073741831	; 0x40000007
    16d8:	1d5001f3 	ldfnee	f0, [r0, #-972]	; 0xfffffc34
    16dc:	f3035101 	vrhadd.u8	d5, d3, d1
    16e0:	00005101 	andeq	r5, r0, r1, lsl #2
    16e4:	01810411 	orreq	r0, r1, r1, lsl r4
    16e8:	b11f0000 	tstlt	pc, r0
    16ec:	b4000001 	strlt	r0, [r0], #-1
    16f0:	1a878006 	bne	fe1e1710 <__bss_end+0x769e00a0>
    16f4:	01000000 	mrseq	r0, (UNDEF: 0)
    16f8:	0004089c 	muleq	r4, ip, r8
    16fc:	01bd2000 			; <UNDEFINED> instruction: 0x01bd2000
    1700:	50010000 	andpl	r0, r1, r0
    1704:	0001c820 	andeq	ip, r1, r0, lsr #16
    1708:	1a510100 	bne	1441b10 <shift+0x1441b10>
    170c:	000001d3 	ldrdeq	r0, [r0], -r3
    1710:	000004a2 	andeq	r0, r0, r2, lsr #9
    1714:	0001801b 	andeq	r8, r1, fp, lsl r0
    1718:	01d32100 	bicseq	r2, r3, r0, lsl #2
    171c:	20000000 	andcs	r0, r0, r0
    1720:	000001c8 	andeq	r0, r0, r8, asr #3
    1724:	bd205101 	stflts	f5, [r0, #-4]!
    1728:	01000001 	tsteq	r0, r1
    172c:	22000050 	andcs	r0, r0, #80	; 0x50
    1730:	00000712 	andeq	r0, r0, r2, lsl r7
    1734:	00334d01 	eorseq	r4, r3, r1, lsl #26
    1738:	06d00000 	ldrbeq	r0, [r0], r0
    173c:	000a8780 	andeq	r8, sl, r0, lsl #15
    1740:	9c010000 	stcls	0, cr0, [r1], {-0}
    1744:	00080b16 	andeq	r0, r8, r6, lsl fp
    1748:	df4d0100 	svcle	0x004d0100
    174c:	dc000001 	stcle	0, cr0, [r0], {1}
    1750:	14000004 	strne	r0, [r0], #-4
    1754:	006e6970 	rsbeq	r6, lr, r0, ror r9
    1758:	01934d01 	orrseq	r4, r3, r1, lsl #26
    175c:	51010000 	mrspl	r0, (UNDEF: 1)
    1760:	0d5b0000 	ldcleq	0, cr0, [fp, #-0]
    1764:	00040000 	andeq	r0, r4, r0
    1768:	000008c2 	andeq	r0, r0, r2, asr #17
    176c:	003c0104 	eorseq	r0, ip, r4, lsl #2
    1770:	c3010000 	movwgt	r0, #4096	; 0x1000
    1774:	2a000009 	bcs	17a0 <shift+0x17a0>
    1778:	dc000001 	stcle	0, cr0, [r0], {1}
    177c:	f2878006 	vaddl.s8	q4, d7, d6
    1780:	12000000 	andne	r0, r0, #0
    1784:	02000006 	andeq	r0, r0, #6
    1788:	00ea0601 	rsceq	r0, sl, r1, lsl #12
    178c:	02020000 	andeq	r0, r2, #0
    1790:	00010105 	andeq	r0, r1, r5, lsl #2
    1794:	05040300 	streq	r0, [r4, #-768]	; 0xfffffd00
    1798:	00746e69 	rsbseq	r6, r4, r9, ror #28
    179c:	00050802 	andeq	r0, r5, r2, lsl #16
    17a0:	02000000 	andeq	r0, r0, #0
    17a4:	00e80801 	rsceq	r0, r8, r1, lsl #16
    17a8:	02020000 	andeq	r0, r2, #0
    17ac:	00011207 	andeq	r1, r1, r7, lsl #4
    17b0:	07040200 	streq	r0, [r4, -r0, lsl #4]
    17b4:	000000db 	ldrdeq	r0, [r0], -fp
    17b8:	d1070802 	tstle	r7, r2, lsl #16
    17bc:	04000000 	streq	r0, [r0], #-0
    17c0:	0000168f 	andeq	r1, r0, pc, lsl #13
    17c4:	5b180304 	blpl	6023dc <shift+0x6023dc>
    17c8:	05000004 	streq	r0, [r0, #-4]
    17cc:	00000c3b 	andeq	r0, r0, fp, lsr ip
    17d0:	09057f80 	stmdbeq	r5, {r7, r8, r9, sl, fp, ip, sp, lr}
    17d4:	0000000b 	andeq	r0, r0, fp
    17d8:	00149505 	andseq	r9, r4, r5, lsl #10
    17dc:	56050100 	strpl	r0, [r5], -r0, lsl #2
    17e0:	0200000d 	andeq	r0, r0, #13
    17e4:	00190f05 	andseq	r0, r9, r5, lsl #30
    17e8:	7d050300 	stcvc	3, cr0, [r5, #-0]
    17ec:	04000010 	streq	r0, [r0], #-16
    17f0:	000ac105 	andeq	ip, sl, r5, lsl #2
    17f4:	25050500 	strcs	r0, [r5, #-1280]	; 0xfffffb00
    17f8:	06000016 			; <UNDEFINED> instruction: 0x06000016
    17fc:	000cee05 	andeq	lr, ip, r5, lsl #28
    1800:	bb050700 	bllt	143408 <shift+0x143408>
    1804:	08000018 	stmdaeq	r0, {r3, r4}
    1808:	00122e05 	andseq	r2, r2, r5, lsl #28
    180c:	46050900 	strmi	r0, [r5], -r0, lsl #18
    1810:	0a00000d 	beq	184c <shift+0x184c>
    1814:	0017cc05 	andseq	ip, r7, r5, lsl #24
    1818:	8c050b00 			; <UNDEFINED> instruction: 0x8c050b00
    181c:	0c000010 	stceq	0, cr0, [r0], {16}
    1820:	000ad005 	andeq	sp, sl, r5
    1824:	18050d00 	stmdane	r5, {r8, sl, fp}
    1828:	0e000014 	mcreq	0, 0, r0, cr0, cr4, {0}
    182c:	000cfd05 	andeq	pc, ip, r5, lsl #26
    1830:	2c050f00 	stccs	15, cr0, [r5], {-0}
    1834:	19000010 	stmdbne	r0, {r4}
    1838:	000fea05 	andeq	lr, pc, r5, lsl #20
    183c:	12051a00 	andne	r1, r5, #0, 20
    1840:	1b000011 	blne	188c <shift+0x188c>
    1844:	000e8705 	andeq	r8, lr, r5, lsl #14
    1848:	d8051c00 	stmdale	r5, {sl, fp, ip}
    184c:	1d000009 	stcne	0, cr0, [r0, #-36]	; 0xffffffdc
    1850:	0009d505 	andeq	sp, r9, r5, lsl #10
    1854:	9f051e00 	svcls	0x00051e00
    1858:	1f00000f 	svcne	0x0000000f
    185c:	000fae05 	andeq	sl, pc, r5, lsl #28
    1860:	00052000 	andeq	r2, r5, r0
    1864:	21000016 	tstcs	r0, r6, lsl r0
    1868:	00161b05 	andseq	r1, r6, r5, lsl #22
    186c:	a9052200 	stmdbge	r5, {r9, sp}
    1870:	23000010 	movwcs	r0, #16
    1874:	000ded05 	andeq	lr, sp, r5, lsl #26
    1878:	9f052400 	svcls	0x00052400
    187c:	2500000c 	strcs	r0, [r0, #-12]
    1880:	0010b205 	andseq	fp, r0, r5, lsl #4
    1884:	3e052600 	cfmadd32cc	mvax0, mvfx2, mvfx5, mvfx0
    1888:	2700000b 	strcs	r0, [r0, -fp]
    188c:	000f0305 	andeq	r0, pc, r5, lsl #6
    1890:	f3052800 	vsub.i8	d2, d5, d0
    1894:	29000014 	stmdbcs	r0, {r2, r4}
    1898:	000e1005 	andeq	r1, lr, r5
    189c:	df052a00 	svcle	0x00052a00
    18a0:	2b00000f 	blcs	18e4 <shift+0x18e4>
    18a4:	000f6a05 	andeq	r6, pc, r5, lsl #20
    18a8:	50052c00 	andpl	r2, r5, r0, lsl #24
    18ac:	2d000009 	stccs	0, cr0, [r0, #-36]	; 0xffffffdc
    18b0:	000e6205 	andeq	r6, lr, r5, lsl #4
    18b4:	4f052e00 	svcmi	0x00052e00
    18b8:	2f00000c 	svccs	0x0000000c
    18bc:	00160905 	andseq	r0, r6, r5, lsl #18
    18c0:	21053000 	mrscs	r3, (UNDEF: 5)
    18c4:	3100000d 	tstcc	r0, sp
    18c8:	00094205 	andeq	r4, r9, r5, lsl #4
    18cc:	91053200 	mrsls	r3, SP_usr
    18d0:	3300000d 	movwcc	r0, #13
    18d4:	00147805 	andseq	r7, r4, r5, lsl #16
    18d8:	09053400 	stmdbeq	r5, {sl, ip, sp}
    18dc:	35000011 	strcc	r0, [r0, #-17]	; 0xffffffef
    18e0:	0010c705 	andseq	ip, r0, r5, lsl #14
    18e4:	21053600 	tstcs	r5, r0, lsl #12
    18e8:	37000009 	strcc	r0, [r0, -r9]
    18ec:	00109c05 	andseq	r9, r0, r5, lsl #24
    18f0:	f2053800 	vadd.i8	d3, d5, d0
    18f4:	39000012 	stmdbcc	r0, {r1, r4}
    18f8:	000d8605 	andeq	r8, sp, r5, lsl #12
    18fc:	dc053a00 			; <UNDEFINED> instruction: 0xdc053a00
    1900:	3b000017 	blcc	1964 <shift+0x1964>
    1904:	00088105 	andeq	r8, r8, r5, lsl #2
    1908:	fe053c00 	cdp2	12, 0, cr3, cr5, cr0, {0}
    190c:	3d00000a 	stccc	0, cr0, [r0, #-40]	; 0xffffffd8
    1910:	00146d05 	andseq	r6, r4, r5, lsl #26
    1914:	ba053e00 	blt	15111c <shift+0x15111c>
    1918:	3f00000f 	svccc	0x0000000f
    191c:	0009ec05 	andeq	lr, r9, r5, lsl #24
    1920:	0500c000 	streq	ip, [r0, #-0]
    1924:	000012ff 	strdeq	r1, [r0], -pc	; <UNPREDICTABLE>
    1928:	770500c1 	strvc	r0, [r5, -r1, asr #1]
    192c:	c200000c 	andgt	r0, r0, #12
    1930:	0b230500 	bleq	8c2d38 <shift+0x8c2d38>
    1934:	00c30000 	sbceq	r0, r3, r0
    1938:	000ae005 	andeq	lr, sl, r5
    193c:	0500c400 	streq	ip, [r0, #-1024]	; 0xfffffc00
    1940:	00000ee5 	andeq	r0, r0, r5, ror #29
    1944:	0d0500c5 	stceq	0, cr0, [r5, #-788]	; 0xfffffcec
    1948:	c600000d 	strgt	r0, [r0], -sp
    194c:	18fd0500 	ldmne	sp!, {r8, sl}^
    1950:	00c70000 	sbceq	r0, r7, r0
    1954:	00124705 	andseq	r4, r2, r5, lsl #14
    1958:	0500c800 	streq	ip, [r0, #-2048]	; 0xfffff800
    195c:	00001044 	andeq	r1, r0, r4, asr #32
    1960:	590500c9 	stmdbpl	r5, {r0, r3, r6, r7}
    1964:	ca000012 	bgt	19b4 <shift+0x19b4>
    1968:	09710500 	ldmdbeq	r1!, {r8, sl}^
    196c:	00cb0000 	sbceq	r0, fp, r0
    1970:	000be305 	andeq	lr, fp, r5, lsl #6
    1974:	0500cc00 	streq	ip, [r0, #-3072]	; 0xfffff400
    1978:	0000181a 	andeq	r1, r0, sl, lsl r8
    197c:	8c0500cd 	stchi	0, cr0, [r5], {205}	; 0xcd
    1980:	ce000008 	cdpgt	0, 0, cr0, cr0, cr8, {0}
    1984:	0bfb0500 	bleq	ffec2d8c <__bss_end+0x786c171c>
    1988:	00cf0000 	sbceq	r0, pc, r0
    198c:	000a1805 	andeq	r1, sl, r5, lsl #16
    1990:	0500d000 	streq	sp, [r0, #-0]
    1994:	00000b8f 	andeq	r0, r0, pc, lsl #23
    1998:	cb0500d1 	blgt	141ce4 <shift+0x141ce4>
    199c:	d2000008 	andle	r0, r0, #8
    19a0:	0ea50500 	cdpeq	5, 10, cr0, cr5, cr0, {0}
    19a4:	00d30000 	sbcseq	r0, r3, r0
    19a8:	00095a05 	andeq	r5, r9, r5, lsl #20
    19ac:	0500d400 	streq	sp, [r0, #-1024]	; 0xfffffc00
    19b0:	00000d76 	andeq	r0, r0, r6, ror sp
    19b4:	e00500d5 	ldrd	r0, [r5], -r5
    19b8:	d600000c 	strle	r0, [r0], -ip
    19bc:	17ff0500 	ldrbne	r0, [pc, r0, lsl #10]!
    19c0:	00d70000 	sbcseq	r0, r7, r0
    19c4:	0010fe05 	andseq	pc, r0, r5, lsl #28
    19c8:	0500d800 	streq	sp, [r0, #-2048]	; 0xfffff800
    19cc:	00000b18 	andeq	r0, r0, r8, lsl fp
    19d0:	d30500d9 	movwle	r0, #20697	; 0x50d9
    19d4:	da000010 	ble	1a1c <shift+0x1a1c>
    19d8:	17bc0500 	ldrne	r0, [ip, r0, lsl #10]!
    19dc:	00db0000 	sbcseq	r0, fp, r0
    19e0:	000c8f05 	andeq	r8, ip, r5, lsl #30
    19e4:	0500dc00 	streq	sp, [r0, #-3072]	; 0xfffff400
    19e8:	000009f8 	strdeq	r0, [r0], -r8
    19ec:	080500dd 	stmdaeq	r5, {r0, r2, r3, r4, r6, r7}
    19f0:	de00000a 	cdple	0, 0, cr0, cr0, cr10, {0}
    19f4:	0fcf0500 	svceq	0x00cf0500
    19f8:	00df0000 	sbcseq	r0, pc, r0
    19fc:	00186105 	andseq	r6, r8, r5, lsl #2
    1a00:	0500e000 	streq	lr, [r0, #-0]
    1a04:	00000caa 	andeq	r0, r0, sl, lsr #25
    1a08:	6b0500e1 	blvs	141d94 <shift+0x141d94>
    1a0c:	e200000a 	and	r0, r0, #10
    1a10:	0aa70500 	beq	fe9c2e18 <__bss_end+0x771c17a8>
    1a14:	00e30000 	rsceq	r0, r3, r0
    1a18:	00174005 	andseq	r4, r7, r5
    1a1c:	0500e400 	streq	lr, [r0, #-1024]	; 0xfffffc00
    1a20:	000015e6 	andeq	r1, r0, r6, ror #11
    1a24:	9c0500e5 	stcls	0, cr0, [r5], {229}	; 0xe5
    1a28:	e600000b 	str	r0, [r0], -fp
    1a2c:	0b590500 	bleq	1642e34 <shift+0x1642e34>
    1a30:	00e70000 	rsceq	r0, r7, r0
    1a34:	00119f05 	andseq	r9, r1, r5, lsl #30
    1a38:	0500e800 	streq	lr, [r0, #-2048]	; 0xfffff800
    1a3c:	000008fd 	strdeq	r0, [r0], -sp
    1a40:	400500e9 	andmi	r0, r5, r9, ror #1
    1a44:	ea000018 	b	1aac <shift+0x1aac>
    1a48:	14280500 	strtne	r0, [r8], #-1280	; 0xfffffb00
    1a4c:	00eb0000 	rsceq	r0, fp, r0
    1a50:	00099f05 	andeq	r9, r9, r5, lsl #30
    1a54:	0500ec00 	streq	lr, [r0, #-3072]	; 0xfffff400
    1a58:	00001292 	muleq	r0, r2, r2
    1a5c:	830500ed 	movwhi	r0, #20717	; 0x50ed
    1a60:	ee000016 	mcr	0, 0, r0, cr0, cr6, {0}
    1a64:	0e6c0500 	cdpeq	5, 6, cr0, cr12, cr0, {0}
    1a68:	00ef0000 	rsceq	r0, pc, r0
    1a6c:	000cba05 	andeq	fp, ip, r5, lsl #20
    1a70:	0500f000 	streq	pc, [r0, #-0]
    1a74:	00001871 	andeq	r1, r0, r1, ror r8
    1a78:	950500f1 	strls	r0, [r5, #-241]	; 0xffffff0f
    1a7c:	f2000015 	vqadd.s8	d0, d0, d5
    1a80:	09380500 	ldmdbeq	r8!, {r8, sl}
    1a84:	00f30000 	rscseq	r0, r3, r0
    1a88:	00148b05 	andseq	r8, r4, r5, lsl #22
    1a8c:	0500f400 	streq	pc, [r0, #-1024]	; 0xfffffc00
    1a90:	00000d17 	andeq	r0, r0, r7, lsl sp
    1a94:	d10500f5 	strdle	r0, [r5, -r5]
    1a98:	f6000018 			; <UNDEFINED> instruction: 0xf6000018
    1a9c:	164f0500 	strbne	r0, [pc], -r0, lsl #10
    1aa0:	00f70000 	rscseq	r0, r7, r0
    1aa4:	000f1105 	andeq	r1, pc, r5, lsl #2
    1aa8:	0500f800 	streq	pc, [r0, #-2048]	; 0xfffff800
    1aac:	00000e3b 	andeq	r0, r0, fp, lsr lr
    1ab0:	1b0500f9 	blne	141e9c <shift+0x141e9c>
    1ab4:	fa000010 	blx	1afc <shift+0x1afc>
    1ab8:	08cc0500 	stmiaeq	ip, {r8, sl}^
    1abc:	00fb0000 	rscseq	r0, fp, r0
    1ac0:	0015d505 	andseq	sp, r5, r5, lsl #10
    1ac4:	0500fc00 	streq	pc, [r0, #-3072]	; 0xfffff400
    1ac8:	00000b2d 	andeq	r0, r0, sp, lsr #22
    1acc:	f70500fd 			; <UNDEFINED> instruction: 0xf70500fd
    1ad0:	fe00000d 	cdp2	0, 0, cr0, cr0, cr13, {0}
    1ad4:	16940500 	ldrne	r0, [r4], r0, lsl #10
    1ad8:	00ff0000 	rscseq	r0, pc, r0
    1adc:	0011f205 	andseq	pc, r1, r5, lsl #4
    1ae0:	05018000 	streq	r8, [r1, #-0]
    1ae4:	000016d8 	ldrdeq	r1, [r0], -r8
    1ae8:	84050181 	strhi	r0, [r5], #-385	; 0xfffffe7f
    1aec:	8200000f 	andhi	r0, r0, #15
    1af0:	10e30501 	rscne	r0, r3, r1, lsl #10
    1af4:	01830000 	orreq	r0, r3, r0
    1af8:	000e5805 	andeq	r5, lr, r5, lsl #16
    1afc:	05018400 	streq	r8, [r1, #-1024]	; 0xfffffc00
    1b00:	0000132a 	andeq	r1, r0, sl, lsr #6
    1b04:	65050185 	strvs	r0, [r5, #-389]	; 0xfffffe7b
    1b08:	8600000d 	strhi	r0, [r0], -sp
    1b0c:	0a960501 	beq	fe582f18 <__bss_end+0x76d818a8>
    1b10:	01870000 	orreq	r0, r7, r0
    1b14:	000e4f05 	andeq	r4, lr, r5, lsl #30
    1b18:	05018800 	streq	r8, [r1, #-2048]	; 0xfffff800
    1b1c:	000008d5 	ldrdeq	r0, [r0], -r5
    1b20:	6e050189 	adfvsd	f0, f5, #1.0
    1b24:	8a000013 	bhi	1b78 <shift+0x1b78>
    1b28:	0bb50501 	bleq	fed42f34 <__bss_end+0x775418c4>
    1b2c:	018b0000 	orreq	r0, fp, r0
    1b30:	000eda05 	andeq	sp, lr, r5, lsl #20
    1b34:	05018c00 	streq	r8, [r1, #-3072]	; 0xfffff400
    1b38:	000010f4 	strdeq	r1, [r0], -r4
    1b3c:	1705018d 	strne	r0, [r5, -sp, lsl #3]
    1b40:	8e000009 	cdphi	0, 0, cr0, cr0, cr9, {0}
    1b44:	16340501 	ldrtne	r0, [r4], -r1, lsl #10
    1b48:	018f0000 	orreq	r0, pc, r0
    1b4c:	00180905 	andseq	r0, r8, r5, lsl #18
    1b50:	05019000 	streq	r9, [r1, #-0]
    1b54:	00000f1f 	andeq	r0, r0, pc, lsl pc
    1b58:	3d050191 	stfccs	f0, [r5, #-580]	; 0xfffffdbc
    1b5c:	92000012 	andls	r0, r0, #18
    1b60:	0a4f0501 	beq	13c2f6c <shift+0x13c2f6c>
    1b64:	01930000 	orrseq	r0, r3, r0
    1b68:	0015cb05 	andseq	ip, r5, r5, lsl #22
    1b6c:	05019400 	streq	r9, [r1, #-1024]	; 0xfffffc00
    1b70:	00000e7d 	andeq	r0, r0, sp, ror lr
    1b74:	f4050195 	vst4.32	{d0,d2,d4,d6}, [r5 :64], r5
    1b78:	96000016 			; <UNDEFINED> instruction: 0x96000016
    1b7c:	106d0501 	rsbne	r0, sp, r1, lsl #10
    1b80:	01970000 	orrseq	r0, r7, r0
    1b84:	0010bc05 	andseq	fp, r0, r5, lsl #24
    1b88:	05019800 	streq	r9, [r1, #-2048]	; 0xfffff800
    1b8c:	00000ddd 	ldrdeq	r0, [r0], -sp
    1b90:	cc050199 	stfgts	f0, [r5], {153}	; 0x99
    1b94:	9a00000d 	bls	1bd0 <shift+0x1bd0>
    1b98:	192b0501 	stmdbne	fp!, {r0, r8, sl}
    1b9c:	019b0000 	orrseq	r0, fp, r0
    1ba0:	0012bd05 	andseq	fp, r2, r5, lsl #26
    1ba4:	05019c00 	streq	r9, [r1, #-3072]	; 0xfffff400
    1ba8:	00000c60 	andeq	r0, r0, r0, ror #24
    1bac:	a905019d 	stmdbge	r5, {r0, r2, r3, r4, r7, r8}
    1bb0:	9e000016 	mcrls	0, 0, r0, cr0, cr6, {0}
    1bb4:	18ad0501 	stmiane	sp!, {r0, r8, sl}
    1bb8:	019f0000 	orrseq	r0, pc, r0
    1bbc:	0cc50600 	stcleq	6, cr0, [r5], {0}
    1bc0:	b6030000 	strlt	r0, [r3], -r0
    1bc4:	0000005d 	andeq	r0, r0, sp, asr r0
    1bc8:	69070402 	stmdbvs	r7, {r1, sl}
    1bcc:	02000001 	andeq	r0, r0, #1
    1bd0:	00d60704 	sbcseq	r0, r6, r4, lsl #14
    1bd4:	fb060000 	blx	181bde <shift+0x181bde>
    1bd8:	04000006 	streq	r0, [r0], #-6
    1bdc:	00004126 	andeq	r4, r0, r6, lsr #2
    1be0:	05380600 	ldreq	r0, [r8, #-1536]!	; 0xfffffa00
    1be4:	2a040000 	bcs	101bec <shift+0x101bec>
    1be8:	0000004f 	andeq	r0, r0, pc, asr #32
    1bec:	05050402 	streq	r0, [r5, #-1026]	; 0xfffffbfe
    1bf0:	07000000 	streq	r0, [r0, -r0]
    1bf4:	08010204 	stmdaeq	r1, {r2, r9}
    1bf8:	000000f1 	strdeq	r0, [r0], -r1
    1bfc:	02300408 	eorseq	r0, r0, #8, 8	; 0x8000000
    1c00:	08240211 	stmdaeq	r4!, {r0, r4, r9}
    1c04:	82090000 	andhi	r0, r9, #0
    1c08:	02000013 	andeq	r0, r0, #19
    1c0c:	08240213 	stmdaeq	r4!, {r0, r1, r4, r9}
    1c10:	0a000000 	beq	1c18 <shift+0x1c18>
    1c14:	00001908 	andeq	r1, r0, r8, lsl #18
    1c18:	35021402 	strcc	r1, [r2, #-1026]	; 0xfffffbfe
    1c1c:	00000008 	andeq	r0, r0, r8
    1c20:	0d2c0a10 	vstmdbeq	ip!, {s0-s15}
    1c24:	15020000 	strne	r0, [r2, #-0]
    1c28:	00083a02 	andeq	r3, r8, r2, lsl #20
    1c2c:	0a100400 	beq	402c34 <shift+0x402c34>
    1c30:	00000b73 	andeq	r0, r0, r3, ror fp
    1c34:	3a021602 	bcc	87444 <shift+0x87444>
    1c38:	08000008 	stmdaeq	r0, {r3}
    1c3c:	138c0a10 	orrne	r0, ip, #16, 20	; 0x10000
    1c40:	17020000 	strne	r0, [r2, -r0]
    1c44:	00083f02 	andeq	r3, r8, r2, lsl #30
    1c48:	0a100c00 	beq	404c50 <shift+0x404c50>
    1c4c:	0000152a 	andeq	r1, r0, sl, lsr #10
    1c50:	5f021802 	svcpl	0x00021802
    1c54:	80000008 	andhi	r0, r0, r8
    1c58:	0bf10a10 	bleq	ffc444a0 <__bss_end+0x78442e30>
    1c5c:	19020000 	stmdbne	r2, {}	; <UNPREDICTABLE>
    1c60:	00084f02 	andeq	r4, r8, r2, lsl #30
    1c64:	0a10c000 	beq	431c6c <shift+0x431c6c>
    1c68:	00001146 	andeq	r1, r0, r6, asr #2
    1c6c:	64021a02 	strvs	r1, [r2], #-2562	; 0xfffff5fe
    1c70:	00000008 	andeq	r0, r0, r8
    1c74:	13a50a11 			; <UNDEFINED> instruction: 0x13a50a11
    1c78:	1b020000 	blne	81c80 <shift+0x81c80>
    1c7c:	00084f02 	andeq	r4, r8, r2, lsl #30
    1c80:	0a114000 	beq	451c88 <shift+0x451c88>
    1c84:	000015b5 			; <UNDEFINED> instruction: 0x000015b5
    1c88:	69021c02 	stmdbvs	r2, {r1, sl, fp, ip}
    1c8c:	80000008 	andhi	r0, r0, r8
    1c90:	13af0a11 			; <UNDEFINED> instruction: 0x13af0a11
    1c94:	1d020000 	stcne	0, cr0, [r2, #-0]
    1c98:	00084f02 	andeq	r4, r8, r2, lsl #30
    1c9c:	0a11c000 	beq	471ca4 <shift+0x471ca4>
    1ca0:	00000f7a 	andeq	r0, r0, sl, ror pc
    1ca4:	6e021e02 	cdpvs	14, 0, cr1, cr2, cr2, {0}
    1ca8:	00000008 	andeq	r0, r0, r8
    1cac:	13b90a12 			; <UNDEFINED> instruction: 0x13b90a12
    1cb0:	1f020000 	svcne	0x00020000
    1cb4:	00084f02 	andeq	r4, r8, r2, lsl #30
    1cb8:	0a124000 	beq	491cc0 <shift+0x491cc0>
    1cbc:	000015c1 	andeq	r1, r0, r1, asr #11
    1cc0:	73022002 	movwvc	r2, #8194	; 0x2002
    1cc4:	80000008 	andhi	r0, r0, r8
    1cc8:	0c0c0a12 			; <UNDEFINED> instruction: 0x0c0c0a12
    1ccc:	21020000 	mrscs	r0, (UNDEF: 2)
    1cd0:	00084f02 	andeq	r4, r8, r2, lsl #30
    1cd4:	0a12c000 	beq	4b1cdc <shift+0x4b1cdc>
    1cd8:	00000965 	andeq	r0, r0, r5, ror #18
    1cdc:	78022202 	stmdavc	r2, {r1, r9, sp}
    1ce0:	00000008 	andeq	r0, r0, r8
    1ce4:	13d70a13 	bicsne	r0, r7, #77824	; 0x13000
    1ce8:	23020000 	movwcs	r0, #8192	; 0x2000
    1cec:	00084f02 	andeq	r4, r8, r2, lsl #30
    1cf0:	0a134000 	beq	4d1cf8 <shift+0x4d1cf8>
    1cf4:	00000c83 	andeq	r0, r0, r3, lsl #25
    1cf8:	7d022402 	cfstrsvc	mvf2, [r2, #-8]
    1cfc:	80000008 	andhi	r0, r0, r8
    1d00:	0c160a13 			; <UNDEFINED> instruction: 0x0c160a13
    1d04:	25020000 	strcs	r0, [r2, #-0]
    1d08:	00084f02 	andeq	r4, r8, r2, lsl #30
    1d0c:	0a13c000 	beq	4f1d14 <shift+0x4f1d14>
    1d10:	0000187c 	andeq	r1, r0, ip, ror r8
    1d14:	93022602 	movwls	r2, #9730	; 0x2602
    1d18:	00000008 	andeq	r0, r0, r8
    1d1c:	13e90a14 	mvnne	r0, #20, 20	; 0x14000
    1d20:	27020000 	strcs	r0, [r2, -r0]
    1d24:	00089802 	andeq	r9, r8, r2, lsl #16
    1d28:	0a160000 	beq	581d30 <shift+0x581d30>
    1d2c:	00001728 	andeq	r1, r0, r8, lsr #14
    1d30:	a8022802 	stmdage	r2, {r1, fp, sp}
    1d34:	00000008 	andeq	r0, r0, r8
    1d38:	17590a18 	smmlane	r9, r8, sl, r0
    1d3c:	29020000 	stmdbcs	r2, {}	; <UNPREDICTABLE>
    1d40:	00089802 	andeq	r9, r8, r2, lsl #16
    1d44:	0a1a0000 	beq	681d4c <shift+0x681d4c>
    1d48:	000012ce 	andeq	r1, r0, lr, asr #5
    1d4c:	bd022a02 	vstrlt	s4, [r2, #-8]
    1d50:	00000008 	andeq	r0, r0, r8
    1d54:	17640a1c 			; <UNDEFINED> instruction: 0x17640a1c
    1d58:	2b020000 	blcs	81d60 <shift+0x81d60>
    1d5c:	0008ad02 	andeq	sl, r8, r2, lsl #26
    1d60:	0a1c8000 	beq	721d68 <shift+0x721d68>
    1d64:	000013e1 	andeq	r1, r0, r1, ror #7
    1d68:	3a022c02 	bcc	8cd78 <shift+0x8cd78>
    1d6c:	00000008 	andeq	r0, r0, r8
    1d70:	12a30a1d 	adcne	r0, r3, #118784	; 0x1d000
    1d74:	2d020000 	stccs	0, cr0, [r2, #-0]
    1d78:	0008d202 	andeq	sp, r8, r2, lsl #4
    1d7c:	0a1d0400 	beq	742d84 <shift+0x742d84>
    1d80:	0000176f 	andeq	r1, r0, pc, ror #14
    1d84:	dc022e02 	stcle	14, cr2, [r2], {2}
    1d88:	40000008 	andmi	r0, r0, r8
    1d8c:	10660a1d 	rsbne	r0, r6, sp, lsl sl
    1d90:	2f020000 	svccs	0x00020000
    1d94:	00083502 	andeq	r3, r8, r2, lsl #10
    1d98:	0a1f0000 	beq	7c1da0 <shift+0x7c1da0>
    1d9c:	0000177a 	andeq	r1, r0, sl, ror r7
    1da0:	ec023002 	stc	0, cr3, [r2], {2}
    1da4:	04000008 	streq	r0, [r0], #-8
    1da8:	17340a1f 			; <UNDEFINED> instruction: 0x17340a1f
    1dac:	31020000 	mrscc	r0, (UNDEF: 2)
    1db0:	00090c02 	andeq	r0, r9, r2, lsl #24
    1db4:	0a1f1000 	beq	7c5dbc <shift+0x7c5dbc>
    1db8:	00000f5e 	andeq	r0, r0, lr, asr pc
    1dbc:	11023202 	tstne	r2, r2, lsl #4
    1dc0:	20000009 	andcs	r0, r0, r9
    1dc4:	17850a1f 	usada8ne	r5, pc, sl, r0	; <UNPREDICTABLE>
    1dc8:	33020000 	movwcc	r0, #8192	; 0x2000
    1dcc:	00091602 	andeq	r1, r9, r2, lsl #12
    1dd0:	0a1f3000 	beq	7cddd8 <shift+0x7cddd8>
    1dd4:	00001172 	andeq	r1, r0, r2, ror r1
    1dd8:	3a023402 	bcc	8ede8 <shift+0x8ede8>
    1ddc:	d0000008 	andle	r0, r0, r8
    1de0:	117a0a1f 	cmnne	sl, pc, lsl sl
    1de4:	35020000 	strcc	r0, [r2, #-0]
    1de8:	00083a02 	andeq	r3, r8, r2, lsl #20
    1dec:	0a1fd400 	beq	7f6df4 <shift+0x7f6df4>
    1df0:	00001182 	andeq	r1, r0, r2, lsl #3
    1df4:	3a023602 	bcc	8f604 <shift+0x8f604>
    1df8:	d8000008 	stmdale	r0, {r3}
    1dfc:	118a0a1f 	orrne	r0, sl, pc, lsl sl
    1e00:	37020000 	strcc	r0, [r2, -r0]
    1e04:	00083a02 	andeq	r3, r8, r2, lsl #20
    1e08:	0a1fdc00 	beq	7f8e10 <shift+0x7f8e10>
    1e0c:	00001152 	andeq	r1, r0, r2, asr r1
    1e10:	3a023802 	bcc	8fe20 <shift+0x8fe20>
    1e14:	e0000008 	and	r0, r0, r8
    1e18:	115a0a1f 	cmpne	sl, pc, lsl sl
    1e1c:	39020000 	stmdbcc	r2, {}	; <UNPREDICTABLE>
    1e20:	00083a02 	andeq	r3, r8, r2, lsl #20
    1e24:	0a1fe400 	beq	7fae2c <shift+0x7fae2c>
    1e28:	00001162 	andeq	r1, r0, r2, ror #2
    1e2c:	3a023a02 	bcc	9063c <shift+0x9063c>
    1e30:	e8000008 	stmda	r0, {r3}
    1e34:	116a0a1f 	cmnne	sl, pc, lsl sl
    1e38:	3b020000 	blcc	81e40 <shift+0x81e40>
    1e3c:	00083a02 	andeq	r3, r8, r2, lsl #20
    1e40:	0a1fec00 	beq	7fce48 <shift+0x7fce48>
    1e44:	0000097f 	andeq	r0, r0, pc, ror r9
    1e48:	3a023c02 	bcc	90e58 <shift+0x90e58>
    1e4c:	f0000008 			; <UNDEFINED> instruction: 0xf0000008
    1e50:	09870a1f 	stmibeq	r7, {r0, r1, r2, r3, r4, r9, fp}
    1e54:	3d020000 	stccc	0, cr0, [r2, #-0]
    1e58:	00083a02 	andeq	r3, r8, r2, lsl #20
    1e5c:	0a1ff400 	beq	7fee64 <shift+0x7fee64>
    1e60:	0000098f 	andeq	r0, r0, pc, lsl #19
    1e64:	3a023e02 	bcc	91674 <shift+0x91674>
    1e68:	f8000008 			; <UNDEFINED> instruction: 0xf8000008
    1e6c:	09970a1f 	ldmibeq	r7, {r0, r1, r2, r3, r4, r9, fp}
    1e70:	3f020000 	svccc	0x00020000
    1e74:	00083a02 	andeq	r3, r8, r2, lsl #20
    1e78:	0a1ffc00 	beq	800e80 <shift+0x800e80>
    1e7c:	00001924 	andeq	r1, r0, r4, lsr #18
    1e80:	35024102 	strcc	r4, [r2, #-258]	; 0xfffffefe
    1e84:	00000008 	andeq	r0, r0, r8
    1e88:	0c710a20 			; <UNDEFINED> instruction: 0x0c710a20
    1e8c:	42020000 	andmi	r0, r2, #0
    1e90:	00083502 	andeq	r3, r8, r2, lsl #10
    1e94:	0a200400 	beq	802e9c <shift+0x802e9c>
    1e98:	00001828 	andeq	r1, r0, r8, lsr #16
    1e9c:	35024302 	strcc	r4, [r2, #-770]	; 0xfffffcfe
    1ea0:	08000008 	stmdaeq	r0, {r3}
    1ea4:	14b50a20 	ldrtne	r0, [r5], #2592	; 0xa20
    1ea8:	44020000 	strmi	r0, [r2], #-0
    1eac:	00083a02 	andeq	r3, r8, r2, lsl #20
    1eb0:	0a200c00 	beq	804eb8 <shift+0x804eb8>
    1eb4:	000018f6 	strdeq	r1, [r0], -r6
    1eb8:	35024502 	strcc	r4, [r2, #-1282]	; 0xfffffafe
    1ebc:	10000008 	andne	r0, r0, r8
    1ec0:	0c490a20 	mcrreq	10, 2, r0, r9, cr0
    1ec4:	46020000 	strmi	r0, [r2], -r0
    1ec8:	00083a02 	andeq	r3, r8, r2, lsl #20
    1ecc:	0a201400 	beq	806ed4 <shift+0x806ed4>
    1ed0:	000008c3 	andeq	r0, r0, r3, asr #17
    1ed4:	3a024702 	bcc	93ae4 <shift+0x93ae4>
    1ed8:	18000008 	stmdane	r0, {r3}
    1edc:	18ca0a20 	stmiane	sl, {r5, r9, fp}^
    1ee0:	48020000 	stmdami	r2, {}	; <UNPREDICTABLE>
    1ee4:	00083502 	andeq	r3, r8, r2, lsl #10
    1ee8:	0a201c00 	beq	808ef0 <shift+0x808ef0>
    1eec:	00001568 	andeq	r1, r0, r8, ror #10
    1ef0:	3a024902 	bcc	94300 <shift+0x94300>
    1ef4:	20000008 	andcs	r0, r0, r8
    1ef8:	14bb0a20 	ldrtne	r0, [fp], #2592	; 0xa20
    1efc:	4a020000 	bmi	81f04 <shift+0x81f04>
    1f00:	00083502 	andeq	r3, r8, r2, lsl #10
    1f04:	0a202400 	beq	80af0c <shift+0x80af0c>
    1f08:	00000fc6 	andeq	r0, r0, r6, asr #31
    1f0c:	3a024b02 	bcc	94b1c <shift+0x94b1c>
    1f10:	28000008 	stmdacs	r0, {r3}
    1f14:	17900a20 	ldrne	r0, [r0, r0, lsr #20]
    1f18:	4c020000 	stcmi	0, cr0, [r2], {-0}
    1f1c:	00092602 	andeq	r2, r9, r2, lsl #12
    1f20:	0a202c00 	beq	80cf28 <shift+0x80cf28>
    1f24:	00001252 	andeq	r1, r0, r2, asr r2
    1f28:	35024d02 	strcc	r4, [r2, #-3330]	; 0xfffff2fe
    1f2c:	d0000008 	andle	r0, r0, r8
    1f30:	179b0a20 	ldrne	r0, [fp, r0, lsr #20]
    1f34:	4e020000 	cdpmi	0, 0, cr0, cr2, cr0, {0}
    1f38:	0008ec02 	andeq	lr, r8, r2, lsl #24
    1f3c:	0a20d400 	beq	836f44 <shift+0x836f44>
    1f40:	000014d4 	ldrdeq	r1, [r0], -r4
    1f44:	35024f02 	strcc	r4, [r2, #-3842]	; 0xfffff0fe
    1f48:	e0000008 	and	r0, r0, r8
    1f4c:	17a60a20 	strne	r0, [r6, r0, lsr #20]!
    1f50:	50020000 	andpl	r0, r2, r0
    1f54:	00093602 	andeq	r3, r9, r2, lsl #12
    1f58:	0a20e400 	beq	83af60 <shift+0x83af60>
    1f5c:	00001192 	muleq	r0, r2, r1
    1f60:	3a025102 	bcc	96370 <shift+0x96370>
    1f64:	fc000008 	stc2	0, cr0, [r0], {8}
    1f68:	17b10a20 	ldrne	r0, [r1, r0, lsr #20]!
    1f6c:	52020000 	andpl	r0, r2, #0
    1f70:	00094602 	andeq	r4, r9, r2, lsl #12
    1f74:	0a210000 	beq	841f7c <shift+0x841f7c>
    1f78:	00000c20 	andeq	r0, r0, r0, lsr #24
    1f7c:	35025302 	strcc	r5, [r2, #-770]	; 0xfffffcfe
    1f80:	00000008 	andeq	r0, r0, r8
    1f84:	7f0b0030 	svcvc	0x000b0030
    1f88:	35000004 	strcc	r0, [r0, #-4]
    1f8c:	0c000008 	stceq	0, cr0, [r0], {8}
    1f90:	00000466 	andeq	r0, r0, r6, ror #8
    1f94:	0d0003ff 	stceq	3, cr0, [r0, #-1020]	; 0xfffffc04
    1f98:	0000047f 	andeq	r0, r0, pc, ror r4
    1f9c:	0008350e 	andeq	r3, r8, lr, lsl #10
    1fa0:	047f0b00 	ldrbteq	r0, [pc], #-2816	; 1fa8 <shift+0x1fa8>
    1fa4:	084f0000 	stmdaeq	pc, {}^	; <UNPREDICTABLE>
    1fa8:	660f0000 	strvs	r0, [pc], -r0
    1fac:	1c000004 	stcne	0, cr0, [r0], {4}
    1fb0:	047f0b00 	ldrbteq	r0, [pc], #-2816	; 1fb8 <shift+0x1fb8>
    1fb4:	085f0000 	ldmdaeq	pc, {}^	; <UNPREDICTABLE>
    1fb8:	660f0000 	strvs	r0, [pc], -r0
    1fbc:	0f000004 	svceq	0x00000004
    1fc0:	084f0d00 	stmdaeq	pc, {r8, sl, fp}^	; <UNPREDICTABLE>
    1fc4:	4f0d0000 	svcmi	0x000d0000
    1fc8:	0d000008 	stceq	0, cr0, [r0, #-32]	; 0xffffffe0
    1fcc:	0000084f 	andeq	r0, r0, pc, asr #16
    1fd0:	00084f0d 	andeq	r4, r8, sp, lsl #30
    1fd4:	084f0d00 	stmdaeq	pc, {r8, sl, fp}^	; <UNPREDICTABLE>
    1fd8:	4f0d0000 	svcmi	0x000d0000
    1fdc:	0d000008 	stceq	0, cr0, [r0, #-32]	; 0xffffffe0
    1fe0:	0000084f 	andeq	r0, r0, pc, asr #16
    1fe4:	0004740b 	andeq	r7, r4, fp, lsl #8
    1fe8:	00089300 	andeq	r9, r8, r0, lsl #6
    1fec:	04660c00 	strbteq	r0, [r6], #-3072	; 0xfffff400
    1ff0:	01ff0000 	mvnseq	r0, r0
    1ff4:	08820d00 	stmeq	r2, {r8, sl, fp}
    1ff8:	7f0b0000 	svcvc	0x000b0000
    1ffc:	a8000004 	stmdage	r0, {r2}
    2000:	0f000008 	svceq	0x00000008
    2004:	00000466 	andeq	r0, r0, r6, ror #8
    2008:	820d007f 	andhi	r0, sp, #127	; 0x7f
    200c:	0b000008 	bleq	2034 <shift+0x2034>
    2010:	0000047f 	andeq	r0, r0, pc, ror r4
    2014:	000008bd 			; <UNDEFINED> instruction: 0x000008bd
    2018:	0004660f 	andeq	r6, r4, pc, lsl #12
    201c:	0d001f00 	stceq	15, cr1, [r0, #-0]
    2020:	000008ad 	andeq	r0, r0, sp, lsr #17
    2024:	00047f0b 	andeq	r7, r4, fp, lsl #30
    2028:	0008d200 	andeq	sp, r8, r0, lsl #4
    202c:	04660f00 	strbteq	r0, [r6], #-3840	; 0xfffff100
    2030:	000e0000 	andeq	r0, lr, r0
    2034:	0008d70e 	andeq	sp, r8, lr, lsl #14
    2038:	08c20d00 	stmiaeq	r2, {r8, sl, fp}^
    203c:	7f0b0000 	svcvc	0x000b0000
    2040:	ec000004 	stc	0, cr0, [r0], {4}
    2044:	0f000008 	svceq	0x00000008
    2048:	00000466 	andeq	r0, r0, r6, ror #8
    204c:	7f0b006f 	svcvc	0x000b006f
    2050:	fc000004 	stc2	0, cr0, [r0], {4}
    2054:	0f000008 	svceq	0x00000008
    2058:	00000466 	andeq	r0, r0, r6, ror #8
    205c:	740b0002 	strvc	r0, [fp], #-2
    2060:	0c000004 	stceq	0, cr0, [r0], {4}
    2064:	0f000009 	svceq	0x00000009
    2068:	00000466 	andeq	r0, r0, r6, ror #8
    206c:	fc0d000f 	stc2	0, cr0, [sp], {15}
    2070:	0d000008 	stceq	0, cr0, [r0, #-32]	; 0xffffffe0
    2074:	000008fc 	strdeq	r0, [r0], -ip
    2078:	00047f0b 	andeq	r7, r4, fp, lsl #30
    207c:	00092600 	andeq	r2, r9, r0, lsl #12
    2080:	04660f00 	strbteq	r0, [r6], #-3840	; 0xfffff100
    2084:	00270000 	eoreq	r0, r7, r0
    2088:	00047f0b 	andeq	r7, r4, fp, lsl #30
    208c:	00093600 	andeq	r3, r9, r0, lsl #12
    2090:	04660f00 	strbteq	r0, [r6], #-3840	; 0xfffff100
    2094:	00280000 	eoreq	r0, r8, r0
    2098:	00047f0b 	andeq	r7, r4, fp, lsl #30
    209c:	00094600 	andeq	r4, r9, r0, lsl #12
    20a0:	04660f00 	strbteq	r0, [r6], #-3840	; 0xfffff100
    20a4:	00050000 	andeq	r0, r5, r0
    20a8:	00047f0b 	andeq	r7, r4, fp, lsl #30
    20ac:	00095700 	andeq	r5, r9, r0, lsl #14
    20b0:	04660c00 	strbteq	r0, [r6], #-3072	; 0xfffff400
    20b4:	03bf0000 			; <UNDEFINED> instruction: 0x03bf0000
    20b8:	0e321000 	cdpeq	0, 3, cr1, cr2, cr0, {0}
    20bc:	54020000 	strpl	r0, [r2], #-0
    20c0:	00049a02 	andeq	r9, r4, r2, lsl #20
    20c4:	13960400 	orrsne	r0, r6, #0, 8
    20c8:	05040000 	streq	r0, [r4, #-0]
    20cc:	000ae917 	andeq	lr, sl, r7, lsl r9
    20d0:	0a290500 	beq	a434d8 <shift+0xa434d8>
    20d4:	05000000 	streq	r0, [r0, #-0]
    20d8:	000011df 	ldrdeq	r1, [r0], -pc	; <UNPREDICTABLE>
    20dc:	15170501 	ldrne	r0, [r7, #-1281]	; 0xfffffaff
    20e0:	05040000 	streq	r0, [r4, #-0]
    20e4:	0000127a 	andeq	r1, r0, sl, ror r2
    20e8:	0d340505 	cfldr32eq	mvfx0, [r4, #-20]!	; 0xffffffec
    20ec:	05060000 	streq	r0, [r6, #-0]
    20f0:	00000899 	muleq	r0, r9, r8
    20f4:	14420507 	strbne	r0, [r2], #-1287	; 0xfffffaf9
    20f8:	05080000 	streq	r0, [r8, #-0]
    20fc:	00001670 	andeq	r1, r0, r0, ror r6
    2100:	0a840509 	beq	fe10352c <__bss_end+0x76901ebc>
    2104:	050a0000 	streq	r0, [sl, #-0]
    2108:	000014a4 	andeq	r1, r0, r4, lsr #9
    210c:	17ec050b 	strbne	r0, [ip, fp, lsl #10]!
    2110:	050c0000 	streq	r0, [ip, #-0]
    2114:	000013c3 	andeq	r1, r0, r3, asr #7
    2118:	1319050d 	tstne	r9, #54525952	; 0x3400000
    211c:	050e0000 	streq	r0, [lr, #-0]
    2120:	00001406 	andeq	r1, r0, r6, lsl #8
    2124:	0aea050f 	beq	ffa83568 <__bss_end+0x78281ef8>
    2128:	05100000 	ldreq	r0, [r0, #-0]
    212c:	00001054 	andeq	r1, r0, r4, asr r0
    2130:	165d0511 			; <UNDEFINED> instruction: 0x165d0511
    2134:	05120000 	ldreq	r0, [r2, #-0]
    2138:	000008b2 			; <UNDEFINED> instruction: 0x000008b2
    213c:	0f8e0513 	svceq	0x008e0513
    2140:	05140000 	ldreq	r0, [r4, #-0]
    2144:	0000163e 	andeq	r1, r0, lr, lsr r6
    2148:	0e1f0515 	mrceq	5, 0, r0, cr15, cr5, {0}
    214c:	05160000 	ldreq	r0, [r6, #-0]
    2150:	00001204 	andeq	r1, r0, r4, lsl #4
    2154:	0bbf0517 	bleq	fefc35b8 <__bss_end+0x777c1f48>
    2158:	05180000 	ldreq	r0, [r8, #-0]
    215c:	000014dd 	ldrdeq	r1, [r0], -sp
    2160:	15340519 	ldrne	r0, [r4, #-1305]!	; 0xfffffae7
    2164:	051a0000 	ldreq	r0, [sl, #-0]
    2168:	000014c3 	andeq	r1, r0, r3, asr #9
    216c:	1267051b 	rsbne	r0, r7, #113246208	; 0x6c00000
    2170:	051c0000 	ldreq	r0, [ip, #-0]
    2174:	00001135 	andeq	r1, r0, r5, lsr r1
    2178:	08e9051d 	stmiaeq	r9!, {r0, r2, r3, r4, r8, sl}^
    217c:	05230000 	streq	r0, [r3, #-0]!
    2180:	00000f4b 	andeq	r0, r0, fp, asr #30
    2184:	0a590527 	beq	1643628 <shift+0x1643628>
    2188:	05280000 	streq	r0, [r8, #-0]!
    218c:	00001889 	andeq	r1, r0, r9, lsl #17
    2190:	13370529 	teqne	r7, #171966464	; 0xa400000
    2194:	052a0000 	streq	r0, [sl, #-0]!
    2198:	000016ff 	strdeq	r1, [r0], -pc	; <UNPREDICTABLE>
    219c:	1716052b 	ldrne	r0, [r6, -fp, lsr #10]
    21a0:	052c0000 	streq	r0, [ip, #-0]!
    21a4:	00000da8 	andeq	r0, r0, r8, lsr #27
    21a8:	1124052d 			; <UNDEFINED> instruction: 0x1124052d
    21ac:	05320000 	ldreq	r0, [r2, #-0]!
    21b0:	00001583 	andeq	r1, r0, r3, lsl #11
    21b4:	0eef0533 	mcreq	5, 7, r0, cr15, cr3, {1}
    21b8:	05340000 	ldreq	r0, [r4, #-0]!
    21bc:	00000eaf 	andeq	r0, r0, pc, lsr #29
    21c0:	0a3e0535 	beq	f8369c <shift+0xf8369c>
    21c4:	05360000 	ldreq	r0, [r6, #-0]!
    21c8:	00000f30 	andeq	r0, r0, r0, lsr pc
    21cc:	0b7a0537 	bleq	1e836b0 <shift+0x1e836b0>
    21d0:	05380000 	ldreq	r0, [r8, #-0]!
    21d4:	0000159e 	muleq	r0, lr, r5
    21d8:	0fff0539 	svceq	0x00ff0539
    21dc:	053a0000 	ldreq	r0, [sl, #-0]!
    21e0:	000011b8 			; <UNDEFINED> instruction: 0x000011b8
    21e4:	13f3053b 	mvnsne	r0, #247463936	; 0xec00000
    21e8:	053c0000 	ldreq	r0, [ip, #-0]!
    21ec:	00000ccf 	andeq	r0, r0, pc, asr #25
    21f0:	0b47053d 	bleq	11c36ec <shift+0x11c36ec>
    21f4:	053e0000 	ldreq	r0, [lr, #-0]!
    21f8:	000012ab 	andeq	r1, r0, fp, lsr #5
    21fc:	145a053f 	ldrbne	r0, [sl], #-1343	; 0xfffffac1
    2200:	00c00000 	sbceq	r0, r0, r0
    2204:	0009b005 	andeq	fp, r9, r5
    2208:	0500c100 	streq	ip, [r0, #-256]	; 0xffffff00
    220c:	00000c26 	andeq	r0, r0, r6, lsr #24
    2210:	2e0500c2 	cdpcs	0, 0, cr0, cr5, cr2, {6}
    2214:	c5000018 	strgt	r0, [r0, #-24]	; 0xffffffe8
    2218:	15020500 	strne	r0, [r2, #-1280]	; 0xfffffb00
    221c:	00c60000 	sbceq	r0, r6, r0
    2220:	000dba05 	andeq	fp, sp, r5, lsl #20
    2224:	0500c700 	streq	ip, [r0, #-1792]	; 0xfffff900
    2228:	0000156f 	andeq	r1, r0, pc, ror #10
    222c:	e20500c8 	and	r0, r5, #200	; 0xc8
    2230:	c9000016 	stmdbgt	r0, {r1, r2, r4}
    2234:	0ec40500 	cdpeq	5, 12, cr0, cr4, cr0, {0}
    2238:	00e20000 	rsceq	r0, r2, r0
    223c:	00154e05 	andseq	r4, r5, r5, lsl #28
    2240:	0500e300 	streq	lr, [r0, #-768]	; 0xfffffd00
    2244:	0000134b 	andeq	r1, r0, fp, asr #6
    2248:	060000e4 	streq	r0, [r0], -r4, ror #1
    224c:	000016ba 			; <UNDEFINED> instruction: 0x000016ba
    2250:	0af40606 	beq	ffd03a70 <__bss_end+0x78502400>
    2254:	04110000 	ldreq	r0, [r1], #-0
    2258:	00000afa 	strdeq	r0, [r0], -sl
    225c:	000b0a12 	andeq	r0, fp, r2, lsl sl
    2260:	004f1300 	subeq	r1, pc, r0, lsl #6
    2264:	91130000 	tstls	r3, r0
    2268:	00000004 	andeq	r0, r0, r4
    226c:	08060814 	stmdaeq	r6, {r2, r4, fp}
    2270:	00000b2b 	andeq	r0, r0, fp, lsr #22
    2274:	0012d615 	andseq	sp, r2, r5, lsl r6
    2278:	e9090600 	stmdb	r9, {r9, sl}
    227c:	0000000a 	andeq	r0, r0, sl
    2280:	00101115 	andseq	r1, r0, r5, lsl r1
    2284:	910a0600 	tstls	sl, r0, lsl #12
    2288:	04000004 	streq	r0, [r0], #-4
    228c:	12e10600 	rscne	r0, r1, #0, 12
    2290:	0b060000 	bleq	182298 <shift+0x182298>
    2294:	00000b0a 	andeq	r0, r0, sl, lsl #22
    2298:	00092d16 	andeq	r2, r9, r6, lsl sp
    229c:	02030200 	andeq	r0, r3, #0, 4
    22a0:	0000047f 	andeq	r0, r0, pc, ror r4
    22a4:	000b5603 	andeq	r5, fp, r3, lsl #12
    22a8:	1e181700 	cdpne	7, 1, cr1, cr8, cr0, {0}
    22ac:	02000019 	andeq	r0, r0, #25
    22b0:	047f0205 	ldrbteq	r0, [pc], #-517	; 22b8 <shift+0x22b8>
    22b4:	00000000 	andeq	r0, r0, r0
    22b8:	000bda19 	andeq	sp, fp, r9, lsl sl
    22bc:	025a0200 	subseq	r0, sl, #0, 4
    22c0:	000b8603 	andeq	r8, fp, r3, lsl #12
    22c4:	00691a00 	rsbeq	r1, r9, r0, lsl #20
    22c8:	7f025c02 	svcvc	0x00025c02
    22cc:	18000004 	stmdane	r0, {r2}
    22d0:	00001859 	andeq	r1, r0, r9, asr r8
    22d4:	7f025d02 	svcvc	0x00025d02
    22d8:	1a000004 	bne	22f0 <shift+0x22f0>
    22dc:	00636967 	rsbeq	r6, r3, r7, ror #18
    22e0:	86025e02 	strhi	r5, [r2], -r2, lsl #28
    22e4:	0000000b 	andeq	r0, r0, fp
    22e8:	09570411 	ldmdbeq	r7, {r0, r4, sl}^
    22ec:	ca1b0000 	bgt	6c22f4 <shift+0x6c22f4>
    22f0:	01000011 	tsteq	r0, r1, lsl r0
    22f4:	0ba40106 	bleq	fe902714 <__bss_end+0x771010a4>
    22f8:	1c170000 	ldcne	0, cr0, [r7], {-0}
    22fc:	08010069 	stmdaeq	r1, {r0, r3, r5, r6}
    2300:	00000033 	andeq	r0, r0, r3, lsr r0
    2304:	9a190000 	bls	64230c <shift+0x64230c>
    2308:	0200000e 	andeq	r0, r0, #14
    230c:	be0301ea 	adfltdz	f0, f3, #2.0
    2310:	1d00000b 	stcne	0, cr0, [r0, #-44]	; 0xffffffd4
    2314:	000017e7 	andeq	r1, r0, r7, ror #15
    2318:	7f01ea02 	svcvc	0x0001ea02
    231c:	00000004 	andeq	r0, r0, r4
    2320:	00189a1e 	andseq	r9, r8, lr, lsl sl
    2324:	dc1c0100 	ldfles	f0, [ip], {-0}
    2328:	02878006 	addeq	r8, r7, #6
    232c:	01000000 	mrseq	r0, (UNDEF: 0)
    2330:	000bee9c 	muleq	fp, ip, lr
    2334:	16cf1f00 	strbne	r1, [pc], r0, lsl #30
    2338:	1c010000 	stcne	0, cr0, [r1], {-0}
    233c:	0000004f 	andeq	r0, r0, pc, asr #32
    2340:	991f5001 	ldmdbls	pc, {r0, ip, lr}	; <UNPREDICTABLE>
    2344:	01000011 	tsteq	r0, r1, lsl r0
    2348:	0004911c 	andeq	r9, r4, ip, lsl r1
    234c:	00510100 	subseq	r0, r1, r0, lsl #2
    2350:	000b8c20 	andeq	r8, fp, r0, lsr #24
    2354:	8006e000 	andhi	lr, r6, r0
    2358:	00002487 	andeq	r2, r0, r7, lsl #9
    235c:	159c0100 	ldrne	r0, [ip, #256]	; 0x100
    2360:	2100000c 	tstcs	r0, ip
    2364:	878006f4 			; <UNDEFINED> instruction: 0x878006f4
    2368:	0000000e 	andeq	r0, r0, lr
    236c:	000b9922 	andeq	r9, fp, r2, lsr #18
    2370:	0004fd00 	andeq	pc, r4, r0, lsl #26
    2374:	1e000000 	cdpne	0, 0, cr0, cr0, cr0, {0}
    2378:	000018db 	ldrdeq	r1, [r0], -fp
    237c:	07040e01 	streq	r0, [r4, -r1, lsl #28]
    2380:	001a8780 	andseq	r8, sl, r0, lsl #15
    2384:	9c010000 	stcls	0, cr0, [r1], {-0}
    2388:	00000c52 	andeq	r0, r0, r2, asr ip
    238c:	71726923 	cmnvc	r2, r3, lsr #18
    2390:	5b0e0100 	blpl	382798 <shift+0x382798>
    2394:	01000004 	tsteq	r0, r4
    2398:	19591f50 	ldmdbne	r9, {r4, r6, r8, r9, sl, fp, ip}^
    239c:	0e010000 	cdpeq	0, 0, cr0, cr1, cr0, {0}
    23a0:	00000ae9 	andeq	r0, r0, r9, ror #21
    23a4:	991f5101 	ldmdbls	pc, {r0, r8, ip, lr}	; <UNPREDICTABLE>
    23a8:	01000011 	tsteq	r0, r1, lsl r0
    23ac:	0004910e 	andeq	r9, r4, lr, lsl #2
    23b0:	00520100 	subseq	r0, r2, r0, lsl #2
    23b4:	0000c81e 	andeq	ip, r0, lr, lsl r8
    23b8:	20150100 	andscs	r0, r5, r0, lsl #2
    23bc:	78878007 	stmvc	r7, {r0, r1, r2, pc}
    23c0:	01000000 	mrseq	r0, (UNDEF: 0)
    23c4:	000cfa9c 	muleq	ip, ip, sl
    23c8:	0b562400 	bleq	158b3d0 <shift+0x158b3d0>
    23cc:	07220000 	streq	r0, [r2, -r0]!
    23d0:	01988780 	orrseq	r8, r8, r0, lsl #15
    23d4:	17010000 	strne	r0, [r1, -r0]
    23d8:	00000cc0 	andeq	r0, r0, r0, asr #25
    23dc:	00019825 	andeq	r9, r1, r5, lsr #16
    23e0:	0b632200 	bleq	18cabe8 <shift+0x18cabe8>
    23e4:	05110000 	ldreq	r0, [r1, #-0]
    23e8:	6d220000 	stcvs	0, cr0, [r2, #-0]
    23ec:	3200000b 	andcc	r0, r0, #11
    23f0:	22000005 	andcs	r0, r0, #5
    23f4:	00000b79 	andeq	r0, r0, r9, ror fp
    23f8:	00000545 	andeq	r0, r0, r5, asr #10
    23fc:	000b3626 	andeq	r3, fp, r6, lsr #12
    2400:	80072200 	andhi	r2, r7, r0, lsl #4
    2404:	00000487 	andeq	r0, r0, r7, lsl #9
    2408:	025e0200 	subseq	r0, lr, #0, 4
    240c:	80072221 	andhi	r2, r7, r1, lsr #4
    2410:	00000487 	andeq	r0, r0, r7, lsl #9
    2414:	0b482200 	bleq	120ac1c <shift+0x120ac1c>
    2418:	05660000 	strbeq	r0, [r6, #-0]!
    241c:	00000000 	andeq	r0, r0, r0
    2420:	8c240000 	stchi	0, cr0, [r4], #-0
    2424:	7600000b 	strvc	r0, [r0], -fp
    2428:	b0878007 	addlt	r8, r7, r7
    242c:	01000001 	tsteq	r0, r1
    2430:	000cdf18 	andeq	sp, ip, r8, lsl pc
    2434:	01b02500 	lslseq	r2, r0, #10
    2438:	99270000 	stmdbls	r7!, {}	; <UNPREDICTABLE>
    243c:	0000000b 	andeq	r0, r0, fp
    2440:	0ba42800 	bleq	fe90c448 <__bss_end+0x7710add8>
    2444:	078a0000 	streq	r0, [sl, r0]
    2448:	000a8780 	andeq	r8, sl, r0, lsl #15
    244c:	19010000 	stmdbne	r1, {}	; <UNPREDICTABLE>
    2450:	000bb129 	andeq	fp, fp, r9, lsr #2
    2454:	80808000 	addhi	r8, r0, r0
    2458:	000078bc 			; <UNDEFINED> instruction: 0x000078bc
    245c:	00121c1e 	andseq	r1, r2, lr, lsl ip
    2460:	98210100 	stmdals	r1!, {r8}
    2464:	36878007 	strcc	r8, [r7], r7
    2468:	01000000 	mrseq	r0, (UNDEF: 0)
    246c:	000d2c9c 	muleq	sp, ip, ip
    2470:	16cf2a00 	strbne	r2, [pc], r0, lsl #20
    2474:	21010000 	mrscs	r0, (UNDEF: 1)
    2478:	0000004f 	andeq	r0, r0, pc, asr #32
    247c:	00000579 	andeq	r0, r0, r9, ror r5
    2480:	8007c22b 	andhi	ip, r7, fp, lsr #4
    2484:	50012c87 	andpl	r2, r1, r7, lsl #25
    2488:	5001f303 	andpl	pc, r1, r3, lsl #6
    248c:	2b0b0000 	blcs	2c2494 <shift+0x2c2494>
    2490:	3c00000b 	stccc	0, cr0, [r0], {11}
    2494:	0f00000d 	svceq	0x0000000d
    2498:	00000466 	andeq	r0, r0, r6, ror #8
    249c:	0b2d009f 	bleq	b42720 <shift+0xb42720>
    24a0:	01000013 	tsteq	r0, r3, lsl r0
    24a4:	000d2c03 	andeq	r2, sp, r3, lsl #24
    24a8:	6c030500 	cfstr32vs	mvfx0, [r3], {-0}
    24ac:	2d878011 	stccs	0, cr8, [r7, #68]	; 0x44
    24b0:	00000e44 	andeq	r0, r0, r4, asr #28
    24b4:	047f0401 	ldrbteq	r0, [pc], #-1025	; 24bc <shift+0x24bc>
    24b8:	03050000 	movweq	r0, #20480	; 0x5000
    24bc:	8780166c 	strhi	r1, [r0, ip, ror #12]
    24c0:	000df300 	andeq	pc, sp, r0, lsl #6
    24c4:	f3000400 	vshl.u8	d0, d0, d0
    24c8:	0400000a 	streq	r0, [r0], #-10
    24cc:	00003c01 	andeq	r3, r0, r1, lsl #24
    24d0:	196f0100 	stmdbne	pc!, {r8}^	; <UNPREDICTABLE>
    24d4:	012a0000 			; <UNDEFINED> instruction: 0x012a0000
    24d8:	07d00000 	ldrbeq	r0, [r0, r0]
    24dc:	00948780 	addseq	r8, r4, r0, lsl #15
    24e0:	072c0000 	streq	r0, [ip, -r0]!
    24e4:	01020000 	mrseq	r0, (UNDEF: 2)
    24e8:	0000ea06 	andeq	lr, r0, r6, lsl #20
    24ec:	05020200 	streq	r0, [r2, #-512]	; 0xfffffe00
    24f0:	00000101 	andeq	r0, r0, r1, lsl #2
    24f4:	69050403 	stmdbvs	r5, {r0, r1, sl}
    24f8:	0200746e 	andeq	r7, r0, #1845493760	; 0x6e000000
    24fc:	00000508 	andeq	r0, r0, r8, lsl #10
    2500:	01020000 	mrseq	r0, (UNDEF: 2)
    2504:	0000e808 	andeq	lr, r0, r8, lsl #16
    2508:	07020200 	streq	r0, [r2, -r0, lsl #4]
    250c:	00000112 	andeq	r0, r0, r2, lsl r1
    2510:	00053a04 	andeq	r3, r5, r4, lsl #20
    2514:	5a0e0400 	bpl	38351c <shift+0x38351c>
    2518:	02000000 	andeq	r0, r0, #0
    251c:	00db0704 	sbcseq	r0, fp, r4, lsl #14
    2520:	08020000 	stmdaeq	r2, {}	; <UNPREDICTABLE>
    2524:	0000d107 	andeq	sp, r0, r7, lsl #2
    2528:	168f0500 	strne	r0, [pc], r0, lsl #10
    252c:	05040000 	streq	r0, [r4, #-0]
    2530:	00046618 	andeq	r6, r4, r8, lsl r6
    2534:	0c3b0600 	ldceq	6, cr0, [fp], #-0
    2538:	7f800000 	svcvc	0x00800000
    253c:	000b0906 	andeq	r0, fp, r6, lsl #18
    2540:	95060000 	strls	r0, [r6, #-0]
    2544:	01000014 	tsteq	r0, r4, lsl r0
    2548:	000d5606 	andeq	r5, sp, r6, lsl #12
    254c:	0f060200 	svceq	0x00060200
    2550:	03000019 	movweq	r0, #25
    2554:	00107d06 	andseq	r7, r0, r6, lsl #26
    2558:	c1060400 	tstgt	r6, r0, lsl #8
    255c:	0500000a 	streq	r0, [r0, #-10]
    2560:	00162506 	andseq	r2, r6, r6, lsl #10
    2564:	ee060600 	cfmadd32	mvax0, mvfx0, mvfx6, mvfx0
    2568:	0700000c 	streq	r0, [r0, -ip]
    256c:	0018bb06 	andseq	fp, r8, r6, lsl #22
    2570:	2e060800 	cdpcs	8, 0, cr0, cr6, cr0, {0}
    2574:	09000012 	stmdbeq	r0, {r1, r4}
    2578:	000d4606 	andeq	r4, sp, r6, lsl #12
    257c:	cc060a00 			; <UNDEFINED> instruction: 0xcc060a00
    2580:	0b000017 	bleq	25e4 <shift+0x25e4>
    2584:	00108c06 	andseq	r8, r0, r6, lsl #24
    2588:	d0060c00 	andle	r0, r6, r0, lsl #24
    258c:	0d00000a 	stceq	0, cr0, [r0, #-40]	; 0xffffffd8
    2590:	00141806 	andseq	r1, r4, r6, lsl #16
    2594:	fd060e00 	stc2	14, cr0, [r6, #-0]
    2598:	0f00000c 	svceq	0x0000000c
    259c:	00102c06 	andseq	r2, r0, r6, lsl #24
    25a0:	ea061900 	b	1889a8 <shift+0x1889a8>
    25a4:	1a00000f 	bne	25e8 <shift+0x25e8>
    25a8:	00111206 	andseq	r1, r1, r6, lsl #4
    25ac:	87061b00 	strhi	r1, [r6, -r0, lsl #22]
    25b0:	1c00000e 	stcne	0, cr0, [r0], {14}
    25b4:	0009d806 	andeq	sp, r9, r6, lsl #16
    25b8:	d5061d00 	strle	r1, [r6, #-3328]	; 0xfffff300
    25bc:	1e000009 	cdpne	0, 0, cr0, cr0, cr9, {0}
    25c0:	000f9f06 	andeq	r9, pc, r6, lsl #30
    25c4:	ae061f00 	cdpge	15, 0, cr1, cr6, cr0, {0}
    25c8:	2000000f 	andcs	r0, r0, pc
    25cc:	00160006 	andseq	r0, r6, r6
    25d0:	1b062100 	blne	18a9d8 <shift+0x18a9d8>
    25d4:	22000016 	andcs	r0, r0, #22
    25d8:	0010a906 	andseq	sl, r0, r6, lsl #18
    25dc:	ed062300 	stc	3, cr2, [r6, #-0]
    25e0:	2400000d 	strcs	r0, [r0], #-13
    25e4:	000c9f06 	andeq	r9, ip, r6, lsl #30
    25e8:	b2062500 	andlt	r2, r6, #0, 10
    25ec:	26000010 			; <UNDEFINED> instruction: 0x26000010
    25f0:	000b3e06 	andeq	r3, fp, r6, lsl #28
    25f4:	03062700 	movweq	r2, #26368	; 0x6700
    25f8:	2800000f 	stmdacs	r0, {r0, r1, r2, r3}
    25fc:	0014f306 	andseq	pc, r4, r6, lsl #6
    2600:	10062900 	andne	r2, r6, r0, lsl #18
    2604:	2a00000e 	bcs	2644 <shift+0x2644>
    2608:	000fdf06 	andeq	sp, pc, r6, lsl #30
    260c:	6a062b00 	bvs	18d214 <shift+0x18d214>
    2610:	2c00000f 	stccs	0, cr0, [r0], {15}
    2614:	00095006 	andeq	r5, r9, r6
    2618:	62062d00 	andvs	r2, r6, #0, 26
    261c:	2e00000e 	cdpcs	0, 0, cr0, cr0, cr14, {0}
    2620:	000c4f06 	andeq	r4, ip, r6, lsl #30
    2624:	09062f00 	stmdbeq	r6, {r8, r9, sl, fp, sp}
    2628:	30000016 	andcc	r0, r0, r6, lsl r0
    262c:	000d2106 	andeq	r2, sp, r6, lsl #2
    2630:	42063100 	andmi	r3, r6, #0, 2
    2634:	32000009 	andcc	r0, r0, #9
    2638:	000d9106 	andeq	r9, sp, r6, lsl #2
    263c:	78063300 	stmdavc	r6, {r8, r9, ip, sp}
    2640:	34000014 	strcc	r0, [r0], #-20	; 0xffffffec
    2644:	00110906 	andseq	r0, r1, r6, lsl #18
    2648:	c7063500 	strgt	r3, [r6, -r0, lsl #10]
    264c:	36000010 			; <UNDEFINED> instruction: 0x36000010
    2650:	00092106 	andeq	r2, r9, r6, lsl #2
    2654:	9c063700 	stcls	7, cr3, [r6], {-0}
    2658:	38000010 	stmdacc	r0, {r4}
    265c:	0012f206 	andseq	pc, r2, r6, lsl #4
    2660:	86063900 	strhi	r3, [r6], -r0, lsl #18
    2664:	3a00000d 	bcc	26a0 <shift+0x26a0>
    2668:	0017dc06 	andseq	sp, r7, r6, lsl #24
    266c:	81063b00 	tsthi	r6, r0, lsl #22
    2670:	3c000008 	stccc	0, cr0, [r0], {8}
    2674:	000afe06 	andeq	pc, sl, r6, lsl #28
    2678:	6d063d00 	stcvs	13, cr3, [r6, #-0]
    267c:	3e000014 	mcrcc	0, 0, r0, cr0, cr4, {0}
    2680:	000fba06 	andeq	fp, pc, r6, lsl #20
    2684:	ec063f00 	stc	15, cr3, [r6], {-0}
    2688:	c0000009 	andgt	r0, r0, r9
    268c:	12ff0600 	rscsne	r0, pc, #0, 12
    2690:	00c10000 	sbceq	r0, r1, r0
    2694:	000c7706 	andeq	r7, ip, r6, lsl #14
    2698:	0600c200 	streq	ip, [r0], -r0, lsl #4
    269c:	00000b23 	andeq	r0, r0, r3, lsr #22
    26a0:	e00600c3 	and	r0, r6, r3, asr #1
    26a4:	c400000a 	strgt	r0, [r0], #-10
    26a8:	0ee50600 	cdpeq	6, 14, cr0, cr5, cr0, {0}
    26ac:	00c50000 	sbceq	r0, r5, r0
    26b0:	000d0d06 	andeq	r0, sp, r6, lsl #26
    26b4:	0600c600 	streq	ip, [r0], -r0, lsl #12
    26b8:	000018fd 	strdeq	r1, [r0], -sp
    26bc:	470600c7 	strmi	r0, [r6, -r7, asr #1]
    26c0:	c8000012 	stmdagt	r0, {r1, r4}
    26c4:	10440600 	subne	r0, r4, r0, lsl #12
    26c8:	00c90000 	sbceq	r0, r9, r0
    26cc:	00125906 	andseq	r5, r2, r6, lsl #18
    26d0:	0600ca00 	streq	ip, [r0], -r0, lsl #20
    26d4:	00000971 	andeq	r0, r0, r1, ror r9
    26d8:	e30600cb 	movw	r0, #24779	; 0x60cb
    26dc:	cc00000b 	stcgt	0, cr0, [r0], {11}
    26e0:	181a0600 	ldmdane	sl, {r9, sl}
    26e4:	00cd0000 	sbceq	r0, sp, r0
    26e8:	00088c06 	andeq	r8, r8, r6, lsl #24
    26ec:	0600ce00 	streq	ip, [r0], -r0, lsl #28
    26f0:	00000bfb 	strdeq	r0, [r0], -fp
    26f4:	180600cf 	stmdane	r6, {r0, r1, r2, r3, r6, r7}
    26f8:	d000000a 	andle	r0, r0, sl
    26fc:	0b8f0600 	bleq	fe3c3f04 <__bss_end+0x76bc2894>
    2700:	00d10000 	sbcseq	r0, r1, r0
    2704:	0008cb06 	andeq	ip, r8, r6, lsl #22
    2708:	0600d200 	streq	sp, [r0], -r0, lsl #4
    270c:	00000ea5 	andeq	r0, r0, r5, lsr #29
    2710:	5a0600d3 	bpl	182a64 <shift+0x182a64>
    2714:	d4000009 	strle	r0, [r0], #-9
    2718:	0d760600 	ldcleq	6, cr0, [r6, #-0]
    271c:	00d50000 	sbcseq	r0, r5, r0
    2720:	000ce006 	andeq	lr, ip, r6
    2724:	0600d600 	streq	sp, [r0], -r0, lsl #12
    2728:	000017ff 	strdeq	r1, [r0], -pc	; <UNPREDICTABLE>
    272c:	fe0600d7 	mcr2	0, 0, r0, cr6, cr7, {6}
    2730:	d8000010 	stmdale	r0, {r4}
    2734:	0b180600 	bleq	603f3c <shift+0x603f3c>
    2738:	00d90000 	sbcseq	r0, r9, r0
    273c:	0010d306 	andseq	sp, r0, r6, lsl #6
    2740:	0600da00 	streq	sp, [r0], -r0, lsl #20
    2744:	000017bc 			; <UNDEFINED> instruction: 0x000017bc
    2748:	8f0600db 	svchi	0x000600db
    274c:	dc00000c 	stcle	0, cr0, [r0], {12}
    2750:	09f80600 	ldmibeq	r8!, {r9, sl}^
    2754:	00dd0000 	sbcseq	r0, sp, r0
    2758:	000a0806 	andeq	r0, sl, r6, lsl #16
    275c:	0600de00 	streq	sp, [r0], -r0, lsl #28
    2760:	00000fcf 	andeq	r0, r0, pc, asr #31
    2764:	610600df 	ldrdvs	r0, [r6, -pc]
    2768:	e0000018 	and	r0, r0, r8, lsl r0
    276c:	0caa0600 	stceq	6, cr0, [sl]
    2770:	00e10000 	rsceq	r0, r1, r0
    2774:	000a6b06 	andeq	r6, sl, r6, lsl #22
    2778:	0600e200 	streq	lr, [r0], -r0, lsl #4
    277c:	00000aa7 	andeq	r0, r0, r7, lsr #21
    2780:	400600e3 	andmi	r0, r6, r3, ror #1
    2784:	e4000017 	str	r0, [r0], #-23	; 0xffffffe9
    2788:	15e60600 	strbne	r0, [r6, #1536]!	; 0x600
    278c:	00e50000 	rsceq	r0, r5, r0
    2790:	000b9c06 	andeq	r9, fp, r6, lsl #24
    2794:	0600e600 	streq	lr, [r0], -r0, lsl #12
    2798:	00000b59 	andeq	r0, r0, r9, asr fp
    279c:	9f0600e7 	svcls	0x000600e7
    27a0:	e8000011 	stmda	r0, {r0, r4}
    27a4:	08fd0600 	ldmeq	sp!, {r9, sl}^
    27a8:	00e90000 	rsceq	r0, r9, r0
    27ac:	00184006 	andseq	r4, r8, r6
    27b0:	0600ea00 	streq	lr, [r0], -r0, lsl #20
    27b4:	00001428 	andeq	r1, r0, r8, lsr #8
    27b8:	9f0600eb 	svcls	0x000600eb
    27bc:	ec000009 	stc	0, cr0, [r0], {9}
    27c0:	12920600 	addsne	r0, r2, #0, 12
    27c4:	00ed0000 	rsceq	r0, sp, r0
    27c8:	00168306 	andseq	r8, r6, r6, lsl #6
    27cc:	0600ee00 	streq	lr, [r0], -r0, lsl #28
    27d0:	00000e6c 	andeq	r0, r0, ip, ror #28
    27d4:	ba0600ef 	blt	182b98 <shift+0x182b98>
    27d8:	f000000c 			; <UNDEFINED> instruction: 0xf000000c
    27dc:	18710600 	ldmdane	r1!, {r9, sl}^
    27e0:	00f10000 	rscseq	r0, r1, r0
    27e4:	00159506 	andseq	r9, r5, r6, lsl #10
    27e8:	0600f200 	streq	pc, [r0], -r0, lsl #4
    27ec:	00000938 	andeq	r0, r0, r8, lsr r9
    27f0:	8b0600f3 	blhi	182bc4 <shift+0x182bc4>
    27f4:	f4000014 	vst4.8	{d0-d3}, [r0 :64], r4
    27f8:	0d170600 	ldceq	6, cr0, [r7, #-0]
    27fc:	00f50000 	rscseq	r0, r5, r0
    2800:	0018d106 	andseq	sp, r8, r6, lsl #2
    2804:	0600f600 	streq	pc, [r0], -r0, lsl #12
    2808:	0000164f 	andeq	r1, r0, pc, asr #12
    280c:	110600f7 	strdne	r0, [r6, -r7]
    2810:	f800000f 			; <UNDEFINED> instruction: 0xf800000f
    2814:	0e3b0600 	cfmsuba32eq	mvax0, mvax0, mvfx11, mvfx0
    2818:	00f90000 	rscseq	r0, r9, r0
    281c:	00101b06 	andseq	r1, r0, r6, lsl #22
    2820:	0600fa00 	streq	pc, [r0], -r0, lsl #20
    2824:	000008cc 	andeq	r0, r0, ip, asr #17
    2828:	d50600fb 	strle	r0, [r6, #-251]	; 0xffffff05
    282c:	fc000015 	stc2	0, cr0, [r0], {21}
    2830:	0b2d0600 	bleq	b44038 <shift+0xb44038>
    2834:	00fd0000 	rscseq	r0, sp, r0
    2838:	000df706 	andeq	pc, sp, r6, lsl #14
    283c:	0600fe00 	streq	pc, [r0], -r0, lsl #28
    2840:	00001694 	muleq	r0, r4, r6
    2844:	f20600ff 	vqadd.s8	q0, q11, <illegal reg q15.5>
    2848:	80000011 	andhi	r0, r0, r1, lsl r0
    284c:	16d80601 	ldrbne	r0, [r8], r1, lsl #12
    2850:	01810000 	orreq	r0, r1, r0
    2854:	000f8406 	andeq	r8, pc, r6, lsl #8
    2858:	06018200 	streq	r8, [r1], -r0, lsl #4
    285c:	000010e3 	andeq	r1, r0, r3, ror #1
    2860:	58060183 	stmdapl	r6, {r0, r1, r7, r8}
    2864:	8400000e 	strhi	r0, [r0], #-14
    2868:	132a0601 			; <UNDEFINED> instruction: 0x132a0601
    286c:	01850000 	orreq	r0, r5, r0
    2870:	000d6506 	andeq	r6, sp, r6, lsl #10
    2874:	06018600 	streq	r8, [r1], -r0, lsl #12
    2878:	00000a96 	muleq	r0, r6, sl
    287c:	4f060187 	svcmi	0x00060187
    2880:	8800000e 	stmdahi	r0, {r1, r2, r3}
    2884:	08d50601 	ldmeq	r5, {r0, r9, sl}^
    2888:	01890000 	orreq	r0, r9, r0
    288c:	00136e06 	andseq	r6, r3, r6, lsl #28
    2890:	06018a00 	streq	r8, [r1], -r0, lsl #20
    2894:	00000bb5 			; <UNDEFINED> instruction: 0x00000bb5
    2898:	da06018b 	ble	182ecc <shift+0x182ecc>
    289c:	8c00000e 	stchi	0, cr0, [r0], {14}
    28a0:	10f40601 	rscsne	r0, r4, r1, lsl #12
    28a4:	018d0000 	orreq	r0, sp, r0
    28a8:	00091706 	andeq	r1, r9, r6, lsl #14
    28ac:	06018e00 	streq	r8, [r1], -r0, lsl #28
    28b0:	00001634 	andeq	r1, r0, r4, lsr r6
    28b4:	0906018f 	stmdbeq	r6, {r0, r1, r2, r3, r7, r8}
    28b8:	90000018 	andls	r0, r0, r8, lsl r0
    28bc:	0f1f0601 	svceq	0x001f0601
    28c0:	01910000 	orrseq	r0, r1, r0
    28c4:	00123d06 	andseq	r3, r2, r6, lsl #26
    28c8:	06019200 	streq	r9, [r1], -r0, lsl #4
    28cc:	00000a4f 	andeq	r0, r0, pc, asr #20
    28d0:	cb060193 	blgt	182f24 <shift+0x182f24>
    28d4:	94000015 	strls	r0, [r0], #-21	; 0xffffffeb
    28d8:	0e7d0601 	cdpeq	6, 7, cr0, cr13, cr1, {0}
    28dc:	01950000 	orrseq	r0, r5, r0
    28e0:	0016f406 	andseq	pc, r6, r6, lsl #8
    28e4:	06019600 	streq	r9, [r1], -r0, lsl #12
    28e8:	0000106d 	andeq	r1, r0, sp, rrx
    28ec:	bc060197 	stflts	f0, [r6], {151}	; 0x97
    28f0:	98000010 	stmdals	r0, {r4}
    28f4:	0ddd0601 	ldcleq	6, cr0, [sp, #4]
    28f8:	01990000 	orrseq	r0, r9, r0
    28fc:	000dcc06 	andeq	ip, sp, r6, lsl #24
    2900:	06019a00 	streq	r9, [r1], -r0, lsl #20
    2904:	0000192b 	andeq	r1, r0, fp, lsr #18
    2908:	bd06019b 	stflts	f0, [r6, #-620]	; 0xfffffd94
    290c:	9c000012 	stcls	0, cr0, [r0], {18}
    2910:	0c600601 	stcleq	6, cr0, [r0], #-4
    2914:	019d0000 	orrseq	r0, sp, r0
    2918:	0016a906 	andseq	sl, r6, r6, lsl #18
    291c:	06019e00 	streq	r9, [r1], -r0, lsl #28
    2920:	000018ad 	andeq	r1, r0, sp, lsr #17
    2924:	0400019f 	streq	r0, [r0], #-415	; 0xfffffe61
    2928:	00000cc5 	andeq	r0, r0, r5, asr #25
    292c:	0068b605 	rsbeq	fp, r8, r5, lsl #12
    2930:	04020000 	streq	r0, [r2], #-0
    2934:	00016907 	andeq	r6, r1, r7, lsl #18
    2938:	004f0700 	subeq	r0, pc, r0, lsl #14
    293c:	20080000 	andcs	r0, r8, r0
    2940:	ee348005 	cdp	0, 3, cr8, cr4, cr5, {0}
    2944:	09000004 	stmdbeq	r0, {r2}
    2948:	05005244 	streq	r5, [r0, #-580]	; 0xfffffdbc
    294c:	04783481 	ldrbteq	r3, [r8], #-1153	; 0xfffffb7f
    2950:	0a000000 	beq	2958 <shift+0x2958>
    2954:	0000058c 	andeq	r0, r0, ip, lsl #11
    2958:	78348205 	ldmdavc	r4!, {r0, r2, r9, pc}
    295c:	04000004 	streq	r0, [r0], #-4
    2960:	52535009 	subspl	r5, r3, #9
    2964:	34830500 	strcc	r0, [r3], #1280	; 0x500
    2968:	00000478 	andeq	r0, r0, r8, ror r4
    296c:	06100a08 	ldreq	r0, [r0], -r8, lsl #20
    2970:	84050000 	strhi	r0, [r5], #-0
    2974:	00047834 	andeq	r7, r4, r4, lsr r8
    2978:	150a0c00 	strne	r0, [sl, #-3072]	; 0xfffff400
    297c:	05000006 	streq	r0, [r0, #-6]
    2980:	04783485 	ldrbteq	r3, [r8], #-1157	; 0xfffffb7b
    2984:	09100000 	ldmdbeq	r0, {}	; <UNPREDICTABLE>
    2988:	00524d49 	subseq	r4, r2, r9, asr #26
    298c:	78348605 	ldmdavc	r4!, {r0, r2, r9, sl, pc}
    2990:	14000004 	strne	r0, [r0], #-4
    2994:	52534909 	subspl	r4, r3, #147456	; 0x24000
    2998:	34870500 	strcc	r0, [r7], #1280	; 0x500
    299c:	00000478 	andeq	r0, r0, r8, ror r4
    29a0:	06070a18 			; <UNDEFINED> instruction: 0x06070a18
    29a4:	88050000 	stmdahi	r5, {}	; <UNPREDICTABLE>
    29a8:	00047834 	andeq	r7, r4, r4, lsr r8
    29ac:	0b001c00 	bleq	99b4 <shift+0x99b4>
    29b0:	000005ce 	andeq	r0, r0, lr, asr #11
    29b4:	7d348905 			; <UNDEFINED> instruction: 0x7d348905
    29b8:	02000004 	andeq	r0, r0, #4
    29bc:	00d60704 	sbcseq	r0, r6, r4, lsl #14
    29c0:	fb040000 	blx	1029ca <shift+0x1029ca>
    29c4:	06000006 	streq	r0, [r0], -r6
    29c8:	00004126 	andeq	r4, r0, r6, lsr #2
    29cc:	193c0400 	ldmdbne	ip!, {sl}
    29d0:	29060000 	stmdbcs	r6, {}	; <UNPREDICTABLE>
    29d4:	00000033 	andeq	r0, r0, r3, lsr r0
    29d8:	00053804 	andeq	r3, r5, r4, lsl #16
    29dc:	5a2a0600 	bpl	a841e4 <shift+0xa841e4>
    29e0:	02000000 	andeq	r0, r0, #0
    29e4:	00050504 	andeq	r0, r5, r4, lsl #10
    29e8:	040c0000 	streq	r0, [ip], #-0
    29ec:	f1080102 	cps	#2
    29f0:	0d000000 	stceq	0, cr0, [r0, #-0]
    29f4:	11033004 	tstne	r3, r4
    29f8:	0008bc02 	andeq	fp, r8, r2, lsl #24
    29fc:	13820a00 	orrne	r0, r2, #0, 20
    2a00:	13030000 	movwne	r0, #12288	; 0x3000
    2a04:	0008bc02 	andeq	fp, r8, r2, lsl #24
    2a08:	080e0000 	stmdaeq	lr, {}	; <UNPREDICTABLE>
    2a0c:	03000019 	movweq	r0, #25
    2a10:	08cd0214 	stmiaeq	sp, {r2, r4, r9}^
    2a14:	10000000 	andne	r0, r0, r0
    2a18:	000d2c0e 	andeq	r2, sp, lr, lsl #24
    2a1c:	02150300 	andseq	r0, r5, #0, 6
    2a20:	000008d2 	ldrdeq	r0, [r0], -r2
    2a24:	730e1004 	movwvc	r1, #57348	; 0xe004
    2a28:	0300000b 	movweq	r0, #11
    2a2c:	08d20216 	ldmeq	r2, {r1, r2, r4, r9}^
    2a30:	10080000 	andne	r0, r8, r0
    2a34:	00138c0e 	andseq	r8, r3, lr, lsl #24
    2a38:	02170300 	andseq	r0, r7, #0, 6
    2a3c:	000008d7 	ldrdeq	r0, [r0], -r7
    2a40:	2a0e100c 	bcs	386a78 <shift+0x386a78>
    2a44:	03000015 	movweq	r0, #21
    2a48:	08f70218 	ldmeq	r7!, {r3, r4, r9}^
    2a4c:	10800000 	addne	r0, r0, r0
    2a50:	000bf10e 	andeq	pc, fp, lr, lsl #2
    2a54:	02190300 	andseq	r0, r9, #0, 6
    2a58:	000008e7 	andeq	r0, r0, r7, ror #17
    2a5c:	460e10c0 	strmi	r1, [lr], -r0, asr #1
    2a60:	03000011 	movweq	r0, #17
    2a64:	08fc021a 	ldmeq	ip!, {r1, r3, r4, r9}^
    2a68:	11000000 	mrsne	r0, (UNDEF: 0)
    2a6c:	0013a50e 	andseq	sl, r3, lr, lsl #10
    2a70:	021b0300 	andseq	r0, fp, #0, 6
    2a74:	000008e7 	andeq	r0, r0, r7, ror #17
    2a78:	b50e1140 	strlt	r1, [lr, #-320]	; 0xfffffec0
    2a7c:	03000015 	movweq	r0, #21
    2a80:	0901021c 	stmdbeq	r1, {r2, r3, r4, r9}
    2a84:	11800000 	orrne	r0, r0, r0
    2a88:	0013af0e 	andseq	sl, r3, lr, lsl #30
    2a8c:	021d0300 	andseq	r0, sp, #0, 6
    2a90:	000008e7 	andeq	r0, r0, r7, ror #17
    2a94:	7a0e11c0 	bvc	38719c <shift+0x38719c>
    2a98:	0300000f 	movweq	r0, #15
    2a9c:	0906021e 	stmdbeq	r6, {r1, r2, r3, r4, r9}
    2aa0:	12000000 	andne	r0, r0, #0
    2aa4:	0013b90e 	andseq	fp, r3, lr, lsl #18
    2aa8:	021f0300 	andseq	r0, pc, #0, 6
    2aac:	000008e7 	andeq	r0, r0, r7, ror #17
    2ab0:	c10e1240 	tstgt	lr, r0, asr #4
    2ab4:	03000015 	movweq	r0, #21
    2ab8:	090b0220 	stmdbeq	fp, {r5, r9}
    2abc:	12800000 	addne	r0, r0, #0
    2ac0:	000c0c0e 	andeq	r0, ip, lr, lsl #24
    2ac4:	02210300 	eoreq	r0, r1, #0, 6
    2ac8:	000008e7 	andeq	r0, r0, r7, ror #17
    2acc:	650e12c0 	strvs	r1, [lr, #-704]	; 0xfffffd40
    2ad0:	03000009 	movweq	r0, #9
    2ad4:	09100222 	ldmdbeq	r0, {r1, r5, r9}
    2ad8:	13000000 	movwne	r0, #0
    2adc:	0013d70e 	andseq	sp, r3, lr, lsl #14
    2ae0:	02230300 	eoreq	r0, r3, #0, 6
    2ae4:	000008e7 	andeq	r0, r0, r7, ror #17
    2ae8:	830e1340 	movwhi	r1, #58176	; 0xe340
    2aec:	0300000c 	movweq	r0, #12
    2af0:	09150224 	ldmdbeq	r5, {r2, r5, r9}
    2af4:	13800000 	orrne	r0, r0, #0
    2af8:	000c160e 	andeq	r1, ip, lr, lsl #12
    2afc:	02250300 	eoreq	r0, r5, #0, 6
    2b00:	000008e7 	andeq	r0, r0, r7, ror #17
    2b04:	7c0e13c0 	stcvc	3, cr1, [lr], {192}	; 0xc0
    2b08:	03000018 	movweq	r0, #24
    2b0c:	092b0226 	stmdbeq	fp!, {r1, r2, r5, r9}
    2b10:	14000000 	strne	r0, [r0], #-0
    2b14:	0013e90e 	andseq	lr, r3, lr, lsl #18
    2b18:	02270300 	eoreq	r0, r7, #0, 6
    2b1c:	00000930 	andeq	r0, r0, r0, lsr r9
    2b20:	280e1600 	stmdacs	lr, {r9, sl, ip}
    2b24:	03000017 	movweq	r0, #23
    2b28:	09400228 	stmdbeq	r0, {r3, r5, r9}^
    2b2c:	18000000 	stmdane	r0, {}	; <UNPREDICTABLE>
    2b30:	0017590e 	andseq	r5, r7, lr, lsl #18
    2b34:	02290300 	eoreq	r0, r9, #0, 6
    2b38:	00000930 	andeq	r0, r0, r0, lsr r9
    2b3c:	ce0e1a00 	vmlagt.f32	s2, s28, s0
    2b40:	03000012 	movweq	r0, #18
    2b44:	0955022a 	ldmdbeq	r5, {r1, r3, r5, r9}^
    2b48:	1c000000 	stcne	0, cr0, [r0], {-0}
    2b4c:	0017640e 	andseq	r6, r7, lr, lsl #8
    2b50:	022b0300 	eoreq	r0, fp, #0, 6
    2b54:	00000945 	andeq	r0, r0, r5, asr #18
    2b58:	e10e1c80 	smlabb	lr, r0, ip, r1
    2b5c:	03000013 	movweq	r0, #19
    2b60:	08d2022c 	ldmeq	r2, {r2, r3, r5, r9}^
    2b64:	1d000000 	stcne	0, cr0, [r0, #-0]
    2b68:	0012a30e 	andseq	sl, r2, lr, lsl #6
    2b6c:	022d0300 	eoreq	r0, sp, #0, 6
    2b70:	0000096a 	andeq	r0, r0, sl, ror #18
    2b74:	6f0e1d04 	svcvs	0x000e1d04
    2b78:	03000017 	movweq	r0, #23
    2b7c:	0974022e 	ldmdbeq	r4!, {r1, r2, r3, r5, r9}^
    2b80:	1d400000 	stclne	0, cr0, [r0, #-0]
    2b84:	0010660e 	andseq	r6, r0, lr, lsl #12
    2b88:	022f0300 	eoreq	r0, pc, #0, 6
    2b8c:	000008cd 	andeq	r0, r0, sp, asr #17
    2b90:	7a0e1f00 	bvc	38a798 <shift+0x38a798>
    2b94:	03000017 	movweq	r0, #23
    2b98:	09840230 	stmibeq	r4, {r4, r5, r9}
    2b9c:	1f040000 	svcne	0x00040000
    2ba0:	0017340e 	andseq	r3, r7, lr, lsl #8
    2ba4:	02310300 	eorseq	r0, r1, #0, 6
    2ba8:	000009a4 	andeq	r0, r0, r4, lsr #19
    2bac:	5e0e1f10 	mcrpl	15, 0, r1, cr14, cr0, {0}
    2bb0:	0300000f 	movweq	r0, #15
    2bb4:	09a90232 	stmibeq	r9!, {r1, r4, r5, r9}
    2bb8:	1f200000 	svcne	0x00200000
    2bbc:	0017850e 	andseq	r8, r7, lr, lsl #10
    2bc0:	02330300 	eorseq	r0, r3, #0, 6
    2bc4:	000009ae 	andeq	r0, r0, lr, lsr #19
    2bc8:	720e1f30 	andvc	r1, lr, #48, 30	; 0xc0
    2bcc:	03000011 	movweq	r0, #17
    2bd0:	08d20234 	ldmeq	r2, {r2, r4, r5, r9}^
    2bd4:	1fd00000 	svcne	0x00d00000
    2bd8:	00117a0e 	andseq	r7, r1, lr, lsl #20
    2bdc:	02350300 	eorseq	r0, r5, #0, 6
    2be0:	000008d2 	ldrdeq	r0, [r0], -r2
    2be4:	820e1fd4 	andhi	r1, lr, #212, 30	; 0x350
    2be8:	03000011 	movweq	r0, #17
    2bec:	08d20236 	ldmeq	r2, {r1, r2, r4, r5, r9}^
    2bf0:	1fd80000 	svcne	0x00d80000
    2bf4:	00118a0e 	andseq	r8, r1, lr, lsl #20
    2bf8:	02370300 	eorseq	r0, r7, #0, 6
    2bfc:	000008d2 	ldrdeq	r0, [r0], -r2
    2c00:	520e1fdc 	andpl	r1, lr, #220, 30	; 0x370
    2c04:	03000011 	movweq	r0, #17
    2c08:	08d20238 	ldmeq	r2, {r3, r4, r5, r9}^
    2c0c:	1fe00000 	svcne	0x00e00000
    2c10:	00115a0e 	andseq	r5, r1, lr, lsl #20
    2c14:	02390300 	eorseq	r0, r9, #0, 6
    2c18:	000008d2 	ldrdeq	r0, [r0], -r2
    2c1c:	620e1fe4 	andvs	r1, lr, #228, 30	; 0x390
    2c20:	03000011 	movweq	r0, #17
    2c24:	08d2023a 	ldmeq	r2, {r1, r3, r4, r5, r9}^
    2c28:	1fe80000 	svcne	0x00e80000
    2c2c:	00116a0e 	andseq	r6, r1, lr, lsl #20
    2c30:	023b0300 	eorseq	r0, fp, #0, 6
    2c34:	000008d2 	ldrdeq	r0, [r0], -r2
    2c38:	7f0e1fec 	svcvc	0x000e1fec
    2c3c:	03000009 	movweq	r0, #9
    2c40:	08d2023c 	ldmeq	r2, {r2, r3, r4, r5, r9}^
    2c44:	1ff00000 	svcne	0x00f00000	; IMB
    2c48:	0009870e 	andeq	r8, r9, lr, lsl #14
    2c4c:	023d0300 	eorseq	r0, sp, #0, 6
    2c50:	000008d2 	ldrdeq	r0, [r0], -r2
    2c54:	8f0e1ff4 	svchi	0x000e1ff4
    2c58:	03000009 	movweq	r0, #9
    2c5c:	08d2023e 	ldmeq	r2, {r1, r2, r3, r4, r5, r9}^
    2c60:	1ff80000 	svcne	0x00f80000
    2c64:	0009970e 	andeq	r9, r9, lr, lsl #14
    2c68:	023f0300 	eorseq	r0, pc, #0, 6
    2c6c:	000008d2 	ldrdeq	r0, [r0], -r2
    2c70:	240e1ffc 	strcs	r1, [lr], #-4092	; 0xfffff004
    2c74:	03000019 	movweq	r0, #25
    2c78:	08cd0241 	stmiaeq	sp, {r0, r6, r9}^
    2c7c:	20000000 	andcs	r0, r0, r0
    2c80:	000c710e 	andeq	r7, ip, lr, lsl #2
    2c84:	02420300 	subeq	r0, r2, #0, 6
    2c88:	000008cd 	andeq	r0, r0, sp, asr #17
    2c8c:	280e2004 	stmdacs	lr, {r2, sp}
    2c90:	03000018 	movweq	r0, #24
    2c94:	08cd0243 	stmiaeq	sp, {r0, r1, r6, r9}^
    2c98:	20080000 	andcs	r0, r8, r0
    2c9c:	0014b50e 	andseq	fp, r4, lr, lsl #10
    2ca0:	02440300 	subeq	r0, r4, #0, 6
    2ca4:	000008d2 	ldrdeq	r0, [r0], -r2
    2ca8:	f60e200c 			; <UNDEFINED> instruction: 0xf60e200c
    2cac:	03000018 	movweq	r0, #24
    2cb0:	08cd0245 	stmiaeq	sp, {r0, r2, r6, r9}^
    2cb4:	20100000 	andscs	r0, r0, r0
    2cb8:	000c490e 	andeq	r4, ip, lr, lsl #18
    2cbc:	02460300 	subeq	r0, r6, #0, 6
    2cc0:	000008d2 	ldrdeq	r0, [r0], -r2
    2cc4:	c30e2014 	movwgt	r2, #57364	; 0xe014
    2cc8:	03000008 	movweq	r0, #8
    2ccc:	08d20247 	ldmeq	r2, {r0, r1, r2, r6, r9}^
    2cd0:	20180000 	andscs	r0, r8, r0
    2cd4:	0018ca0e 	andseq	ip, r8, lr, lsl #20
    2cd8:	02480300 	subeq	r0, r8, #0, 6
    2cdc:	000008cd 	andeq	r0, r0, sp, asr #17
    2ce0:	680e201c 	stmdavs	lr, {r2, r3, r4, sp}
    2ce4:	03000015 	movweq	r0, #21
    2ce8:	08d20249 	ldmeq	r2, {r0, r3, r6, r9}^
    2cec:	20200000 	eorcs	r0, r0, r0
    2cf0:	0014bb0e 	andseq	fp, r4, lr, lsl #22
    2cf4:	024a0300 	subeq	r0, sl, #0, 6
    2cf8:	000008cd 	andeq	r0, r0, sp, asr #17
    2cfc:	c60e2024 	strgt	r2, [lr], -r4, lsr #32
    2d00:	0300000f 	movweq	r0, #15
    2d04:	08d2024b 	ldmeq	r2, {r0, r1, r3, r6, r9}^
    2d08:	20280000 	eorcs	r0, r8, r0
    2d0c:	0017900e 	andseq	r9, r7, lr
    2d10:	024c0300 	subeq	r0, ip, #0, 6
    2d14:	000009be 			; <UNDEFINED> instruction: 0x000009be
    2d18:	520e202c 	andpl	r2, lr, #44	; 0x2c
    2d1c:	03000012 	movweq	r0, #18
    2d20:	08cd024d 	stmiaeq	sp, {r0, r2, r3, r6, r9}^
    2d24:	20d00000 	sbcscs	r0, r0, r0
    2d28:	00179b0e 	andseq	r9, r7, lr, lsl #22
    2d2c:	024e0300 	subeq	r0, lr, #0, 6
    2d30:	00000984 	andeq	r0, r0, r4, lsl #19
    2d34:	d40e20d4 	strle	r2, [lr], #-212	; 0xffffff2c
    2d38:	03000014 	movweq	r0, #20
    2d3c:	08cd024f 	stmiaeq	sp, {r0, r1, r2, r3, r6, r9}^
    2d40:	20e00000 	rsccs	r0, r0, r0
    2d44:	0017a60e 	andseq	sl, r7, lr, lsl #12
    2d48:	02500300 	subseq	r0, r0, #0, 6
    2d4c:	000009ce 	andeq	r0, r0, lr, asr #19
    2d50:	920e20e4 	andls	r2, lr, #228	; 0xe4
    2d54:	03000011 	movweq	r0, #17
    2d58:	08d20251 	ldmeq	r2, {r0, r4, r6, r9}^
    2d5c:	20fc0000 	rscscs	r0, ip, r0
    2d60:	0017b10e 	andseq	fp, r7, lr, lsl #2
    2d64:	02520300 	subseq	r0, r2, #0, 6
    2d68:	000009de 	ldrdeq	r0, [r0], -lr
    2d6c:	200e2100 	andcs	r2, lr, r0, lsl #2
    2d70:	0300000c 	movweq	r0, #12
    2d74:	08cd0253 	stmiaeq	sp, {r0, r1, r4, r6, r9}^
    2d78:	30000000 	andcc	r0, r0, r0
    2d7c:	05170f00 	ldreq	r0, [r7, #-3840]	; 0xfffff100
    2d80:	08cd0000 	stmiaeq	sp, {}^	; <UNPREDICTABLE>
    2d84:	71100000 	tstvc	r0, r0
    2d88:	ff000004 			; <UNDEFINED> instruction: 0xff000004
    2d8c:	17070003 	strne	r0, [r7, -r3]
    2d90:	11000005 	tstne	r0, r5
    2d94:	000008cd 	andeq	r0, r0, sp, asr #17
    2d98:	0005170f 	andeq	r1, r5, pc, lsl #14
    2d9c:	0008e700 	andeq	lr, r8, r0, lsl #14
    2da0:	04711200 	ldrbteq	r1, [r1], #-512	; 0xfffffe00
    2da4:	001c0000 	andseq	r0, ip, r0
    2da8:	0005170f 	andeq	r1, r5, pc, lsl #14
    2dac:	0008f700 	andeq	pc, r8, r0, lsl #14
    2db0:	04711200 	ldrbteq	r1, [r1], #-512	; 0xfffffe00
    2db4:	000f0000 	andeq	r0, pc, r0
    2db8:	0008e707 	andeq	lr, r8, r7, lsl #14
    2dbc:	08e70700 	stmiaeq	r7!, {r8, r9, sl}^
    2dc0:	e7070000 	str	r0, [r7, -r0]
    2dc4:	07000008 	streq	r0, [r0, -r8]
    2dc8:	000008e7 	andeq	r0, r0, r7, ror #17
    2dcc:	0008e707 	andeq	lr, r8, r7, lsl #14
    2dd0:	08e70700 	stmiaeq	r7!, {r8, r9, sl}^
    2dd4:	e7070000 	str	r0, [r7, -r0]
    2dd8:	0f000008 	svceq	0x00000008
    2ddc:	00000501 	andeq	r0, r0, r1, lsl #10
    2de0:	0000092b 	andeq	r0, r0, fp, lsr #18
    2de4:	00047110 	andeq	r7, r4, r0, lsl r1
    2de8:	0001ff00 	andeq	pc, r1, r0, lsl #30
    2dec:	00091a07 	andeq	r1, r9, r7, lsl #20
    2df0:	05170f00 	ldreq	r0, [r7, #-3840]	; 0xfffff100
    2df4:	09400000 	stmdbeq	r0, {}^	; <UNPREDICTABLE>
    2df8:	71120000 	tstvc	r2, r0
    2dfc:	7f000004 	svcvc	0x00000004
    2e00:	091a0700 	ldmdbeq	sl, {r8, r9, sl}
    2e04:	170f0000 	strne	r0, [pc, -r0]
    2e08:	55000005 	strpl	r0, [r0, #-5]
    2e0c:	12000009 	andne	r0, r0, #9
    2e10:	00000471 	andeq	r0, r0, r1, ror r4
    2e14:	4507001f 	strmi	r0, [r7, #-31]	; 0xffffffe1
    2e18:	0f000009 	svceq	0x00000009
    2e1c:	00000517 	andeq	r0, r0, r7, lsl r5
    2e20:	0000096a 	andeq	r0, r0, sl, ror #18
    2e24:	00047112 	andeq	r7, r4, r2, lsl r1
    2e28:	11000e00 	tstne	r0, r0, lsl #28
    2e2c:	0000096f 	andeq	r0, r0, pc, ror #18
    2e30:	00095a07 	andeq	r5, r9, r7, lsl #20
    2e34:	05170f00 	ldreq	r0, [r7, #-3840]	; 0xfffff100
    2e38:	09840000 	stmibeq	r4, {}	; <UNPREDICTABLE>
    2e3c:	71120000 	tstvc	r2, r0
    2e40:	6f000004 	svcvs	0x00000004
    2e44:	05170f00 	ldreq	r0, [r7, #-3840]	; 0xfffff100
    2e48:	09940000 	ldmibeq	r4, {}	; <UNPREDICTABLE>
    2e4c:	71120000 	tstvc	r2, r0
    2e50:	02000004 	andeq	r0, r0, #4
    2e54:	05010f00 	streq	r0, [r1, #-3840]	; 0xfffff100
    2e58:	09a40000 	stmibeq	r4!, {}	; <UNPREDICTABLE>
    2e5c:	71120000 	tstvc	r2, r0
    2e60:	0f000004 	svceq	0x00000004
    2e64:	09940700 	ldmibeq	r4, {r8, r9, sl}
    2e68:	94070000 	strls	r0, [r7], #-0
    2e6c:	0f000009 	svceq	0x00000009
    2e70:	00000517 	andeq	r0, r0, r7, lsl r5
    2e74:	000009be 			; <UNDEFINED> instruction: 0x000009be
    2e78:	00047112 	andeq	r7, r4, r2, lsl r1
    2e7c:	0f002700 	svceq	0x00002700
    2e80:	00000517 	andeq	r0, r0, r7, lsl r5
    2e84:	000009ce 	andeq	r0, r0, lr, asr #19
    2e88:	00047112 	andeq	r7, r4, r2, lsl r1
    2e8c:	0f002800 	svceq	0x00002800
    2e90:	00000517 	andeq	r0, r0, r7, lsl r5
    2e94:	000009de 	ldrdeq	r0, [r0], -lr
    2e98:	00047112 	andeq	r7, r4, r2, lsl r1
    2e9c:	0f000500 	svceq	0x00000500
    2ea0:	00000517 	andeq	r0, r0, r7, lsl r5
    2ea4:	000009ef 	andeq	r0, r0, pc, ror #19
    2ea8:	00047110 	andeq	r7, r4, r0, lsl r1
    2eac:	0003bf00 	andeq	fp, r3, r0, lsl #30
    2eb0:	000e320b 	andeq	r3, lr, fp, lsl #4
    2eb4:	02540300 	subseq	r0, r4, #0, 6
    2eb8:	00000532 	andeq	r0, r0, r2, lsr r5
    2ebc:	06070413 			; <UNDEFINED> instruction: 0x06070413
    2ec0:	00000a28 	andeq	r0, r0, r8, lsr #20
    2ec4:	0006ce06 	andeq	ip, r6, r6, lsl #28
    2ec8:	75060000 	strvc	r0, [r6, #-0]
    2ecc:	01000007 	tsteq	r0, r7
    2ed0:	00067206 	andeq	r7, r6, r6, lsl #4
    2ed4:	b8060200 	stmdalt	r6, {r9}
    2ed8:	03000007 	movweq	r0, #7
    2edc:	00065d06 	andeq	r5, r6, r6, lsl #26
    2ee0:	43060400 	movwmi	r0, #25600	; 0x6400
    2ee4:	05000007 	streq	r0, [r0, #-7]
    2ee8:	071f0400 	ldreq	r0, [pc, -r0, lsl #8]
    2eec:	0d070000 	stceq	0, cr0, [r7, #-0]
    2ef0:	000009fb 	strdeq	r0, [r0], -fp
    2ef4:	0f070413 	svceq	0x00070413
    2ef8:	00000a48 	andeq	r0, r0, r8, asr #20
    2efc:	0006b106 	andeq	fp, r6, r6, lsl #2
    2f00:	de060000 	cdple	0, 0, cr0, cr6, cr0, {0}
    2f04:	01000006 	tsteq	r0, r6
    2f08:	07600400 	strbeq	r0, [r0, -r0, lsl #8]!
    2f0c:	12070000 	andne	r0, r7, #0
    2f10:	00000a33 	andeq	r0, r0, r3, lsr sl
    2f14:	14070c14 	strne	r0, [r7], #-3092	; 0xfffff3ec
    2f18:	00000a80 	andeq	r0, r0, r0, lsl #21
    2f1c:	00068515 	andeq	r8, r6, r5, lsl r5
    2f20:	48160700 	ldmdami	r6, {r8, r9, sl}
    2f24:	0000000a 	andeq	r0, r0, sl
    2f28:	00078715 	andeq	r8, r7, r5, lsl r7
    2f2c:	01170700 	tsteq	r7, r0, lsl #14
    2f30:	04000005 	streq	r0, [r0], #-5
    2f34:	00073515 	andeq	r3, r7, r5, lsl r5
    2f38:	28180700 	ldmdacs	r8, {r8, r9, sl}
    2f3c:	0800000a 	stmdaeq	r0, {r1, r3}
    2f40:	07d50400 	ldrbeq	r0, [r5, r0, lsl #8]
    2f44:	19070000 	stmdbne	r7, {}	; <UNPREDICTABLE>
    2f48:	00000a53 	andeq	r0, r0, r3, asr sl
    2f4c:	0016ba04 	andseq	fp, r6, r4, lsl #20
    2f50:	96060800 	strls	r0, [r6], -r0, lsl #16
    2f54:	1600000a 	strne	r0, [r0], -sl
    2f58:	000a9c04 	andeq	r9, sl, r4, lsl #24
    2f5c:	0aac1700 	beq	feb08b64 <__bss_end+0x773074f4>
    2f60:	5a180000 	bpl	602f68 <shift+0x602f68>
    2f64:	18000000 	stmdane	r0, {}	; <UNPREDICTABLE>
    2f68:	00000529 	andeq	r0, r0, r9, lsr #10
    2f6c:	092d1900 	pusheq	{r8, fp, ip}
    2f70:	03030000 	movweq	r0, #12288	; 0x3000
    2f74:	00051702 	andeq	r1, r5, r2, lsl #14
    2f78:	0acc0300 	beq	ff303b80 <__bss_end+0x77b02510>
    2f7c:	1b1a0000 	blne	682f84 <shift+0x682f84>
    2f80:	0000191e 	andeq	r1, r0, lr, lsl r9
    2f84:	17020503 	strne	r0, [r2, -r3, lsl #10]
    2f88:	00000005 	andeq	r0, r0, r5
    2f8c:	05b21c00 	ldreq	r1, [r2, #3072]!	; 0xc00
    2f90:	23020000 	movwcs	r0, #8192	; 0x2000
    2f94:	0b220304 	bleq	883bac <shift+0x883bac>
    2f98:	911d0000 	tstls	sp, r0
    2f9c:	02000005 	andeq	r0, r0, #5
    2fa0:	05170423 	ldreq	r0, [r7, #-1059]	; 0xfffffbdd
    2fa4:	6b1d0000 	blvs	742fac <shift+0x742fac>
    2fa8:	02000005 	andeq	r0, r0, #5
    2fac:	05170424 	ldreq	r0, [r7, #-1060]	; 0xfffffbdc
    2fb0:	731d0000 	tstvc	sp, #0
    2fb4:	02000005 	andeq	r0, r0, #5
    2fb8:	05170425 	ldreq	r0, [r7, #-1061]	; 0xfffffbdb
    2fbc:	c31d0000 	tstgt	sp, #0
    2fc0:	02000005 	andeq	r0, r0, #5
    2fc4:	05170426 	ldreq	r0, [r7, #-1062]	; 0xfffffbda
    2fc8:	ec1d0000 	ldc	0, cr0, [sp], {-0}
    2fcc:	02000005 	andeq	r0, r0, #5
    2fd0:	05170427 	ldreq	r0, [r7, #-1063]	; 0xfffffbd9
    2fd4:	a51d0000 	ldrge	r0, [sp, #-0]
    2fd8:	02000005 	andeq	r0, r0, #5
    2fdc:	05170428 	ldreq	r0, [r7, #-1064]	; 0xfffffbd8
    2fe0:	1c000000 	stcne	0, cr0, [r0], {-0}
    2fe4:	000005d8 	ldrdeq	r0, [r0], -r8
    2fe8:	03044102 	movweq	r4, #16642	; 0x4102
    2fec:	00000b78 	andeq	r0, r0, r8, ror fp
    2ff0:	0005911d 	andeq	r9, r5, sp, lsl r1
    2ff4:	04410200 	strbeq	r0, [r1], #-512	; 0xfffffe00
    2ff8:	00000517 	andeq	r0, r0, r7, lsl r5
    2ffc:	00056b1d 	andeq	r6, r5, sp, lsl fp
    3000:	04420200 	strbeq	r0, [r2], #-512	; 0xfffffe00
    3004:	00000517 	andeq	r0, r0, r7, lsl r5
    3008:	0005731d 	andeq	r7, r5, sp, lsl r3
    300c:	04430200 	strbeq	r0, [r3], #-512	; 0xfffffe00
    3010:	00000517 	andeq	r0, r0, r7, lsl r5
    3014:	0005c31d 	andeq	ip, r5, sp, lsl r3
    3018:	04440200 	strbeq	r0, [r4], #-512	; 0xfffffe00
    301c:	00000517 	andeq	r0, r0, r7, lsl r5
    3020:	0005ec1d 	andeq	lr, r5, sp, lsl ip
    3024:	04450200 	strbeq	r0, [r5], #-512	; 0xfffffe00
    3028:	00000517 	andeq	r0, r0, r7, lsl r5
    302c:	0005fb1d 	andeq	pc, r5, sp, lsl fp	; <UNPREDICTABLE>
    3030:	04460200 	strbeq	r0, [r6], #-512	; 0xfffffe00
    3034:	00000517 	andeq	r0, r0, r7, lsl r5
    3038:	19611c00 	stmdbne	r1!, {sl, fp, ip}^
    303c:	78030000 	stmdavc	r3, {}	; <UNPREDICTABLE>
    3040:	0b9e0302 	bleq	fe783c50 <__bss_end+0x76f825e0>
    3044:	8f1d0000 	svchi	0x001d0000
    3048:	03000016 	movweq	r0, #22
    304c:	04660278 	strbteq	r0, [r6], #-632	; 0xfffffd88
    3050:	671e0000 	ldrvs	r0, [lr, -r0]
    3054:	03006369 	movweq	r6, #873	; 0x369
    3058:	0b9e027a 	bleq	fe783a48 <__bss_end+0x76f823d8>
    305c:	16000000 	strne	r0, [r0], -r0
    3060:	0009ef04 	andeq	lr, r9, r4, lsl #30
    3064:	19461f00 	stmdbne	r6, {r8, r9, sl, fp, ip}^
    3068:	1b010000 	blne	43070 <shift+0x43070>
    306c:	878007d0 			; <UNDEFINED> instruction: 0x878007d0
    3070:	0000002e 	andeq	r0, r0, lr, lsr #32
    3074:	0c169c01 	ldceq	12, cr9, [r6], {1}
    3078:	cf200000 	svcgt	0x00200000
    307c:	01000016 	tsteq	r0, r6, lsl r0
    3080:	00005a1b 	andeq	r5, r0, fp, lsl sl
    3084:	00059a00 	andeq	r9, r5, r0, lsl #20
    3088:	11992000 	orrsne	r2, r9, r0
    308c:	1b010000 	blne	43094 <shift+0x43094>
    3090:	00000529 	andeq	r0, r0, r9, lsr #10
    3094:	000005bb 			; <UNDEFINED> instruction: 0x000005bb
    3098:	8007d821 	andhi	sp, r7, r1, lsr #16
    309c:	000d5a87 	andeq	r5, sp, r7, lsl #21
    30a0:	000bea00 	andeq	lr, fp, r0, lsl #20
    30a4:	50012200 	andpl	r2, r1, r0, lsl #4
    30a8:	21003a01 	tstcs	r0, r1, lsl #20
    30ac:	878007e6 	strhi	r0, [r0, r6, ror #15]
    30b0:	00000d6b 	andeq	r0, r0, fp, ror #26
    30b4:	00000bfd 	strdeq	r0, [r0], -sp
    30b8:	01510122 	cmpeq	r1, r2, lsr #2
    30bc:	ec230042 	stc	0, cr0, [r3], #-264	; 0xfffffef8
    30c0:	8b878007 	blhi	fe1e30e4 <__bss_end+0x769e1a74>
    30c4:	2400000d 	strcs	r0, [r0], #-13
    30c8:	878007fe 			; <UNDEFINED> instruction: 0x878007fe
    30cc:	00000d92 	muleq	r0, r2, sp
    30d0:	01510122 	cmpeq	r1, r2, lsr #2
    30d4:	25000042 	strcs	r0, [r0, #-66]	; 0xffffffbe
    30d8:	00001983 	andeq	r1, r0, r3, lsl #19
    30dc:	08000b01 	stmdaeq	r0, {r0, r8, r9, fp}
    30e0:	00648780 	rsbeq	r8, r4, r0, lsl #15
    30e4:	9c010000 	stcls	0, cr0, [r1], {-0}
    30e8:	00000d5a 	andeq	r0, r0, sl, asr sp
    30ec:	00069826 	andeq	r9, r6, r6, lsr #16
    30f0:	80100100 	andshi	r0, r0, r0, lsl #2
    30f4:	0200000a 	andeq	r0, r0, #10
    30f8:	cc276491 	cfstrsgt	mvf6, [r7], #-580	; 0xfffffdbc
    30fc:	0200000a 	andeq	r0, r0, #10
    3100:	c8878008 	stmgt	r7, {r3, pc}
    3104:	01000001 	tsteq	r0, r1
    3108:	000c770d 	andeq	r7, ip, sp, lsl #14
    310c:	0b092800 	bleq	24d114 <shift+0x24d114>
    3110:	03180000 	tsteq	r8, #0
    3114:	1529020e 	strne	r0, [r9, #-526]!	; 0xfffffdf2
    3118:	0000000b 	andeq	r0, r0, fp
    311c:	000afd29 	andeq	pc, sl, r9, lsr #26
    3120:	f1290000 			; <UNDEFINED> instruction: 0xf1290000
    3124:	0000000a 	andeq	r0, r0, sl
    3128:	000ae529 	andeq	lr, sl, r9, lsr #10
    312c:	d9280500 	stmdble	r8!, {r8, sl}
    3130:	8c00000a 	stchi	0, cr0, [r0], {10}
    3134:	00020e00 	andeq	r0, r2, r0, lsl #28
    3138:	000b2227 	andeq	r2, fp, r7, lsr #4
    313c:	80080400 	andhi	r0, r8, r0, lsl #8
    3140:	0001f087 	andeq	pc, r1, r7, lsl #1
    3144:	b60e0100 	strlt	r0, [lr], -r0, lsl #2
    3148:	2800000c 	stmdacs	r0, {r2, r3}
    314c:	00000b2f 	andeq	r0, r0, pc, lsr #22
    3150:	020e008c 	andeq	r0, lr, #140	; 0x8c
    3154:	000b3b29 	andeq	r3, fp, r9, lsr #22
    3158:	47290500 	strmi	r0, [r9, -r0, lsl #10]!
    315c:	0000000b 	andeq	r0, r0, fp
    3160:	000b5329 	andeq	r5, fp, r9, lsr #6
    3164:	6b2a0000 	blvs	a8316c <shift+0xa8316c>
    3168:	8000000b 	andhi	r0, r0, fp
    316c:	0b5f28f0 	bleq	17cd534 <shift+0x17cd534>
    3170:	03180000 	tsteq	r8, #0
    3174:	2700020e 	strcs	r0, [r0, -lr, lsl #4]
    3178:	00000b78 	andeq	r0, r0, r8, ror fp
    317c:	87800838 			; <UNDEFINED> instruction: 0x87800838
    3180:	00000218 	andeq	r0, r0, r8, lsl r2
    3184:	0d031601 	stceq	6, cr1, [r3, #-4]
    3188:	85290000 	strhi	r0, [r9, #-0]!
    318c:	6300000b 	movwvs	r0, #11
    3190:	0002182b 	andeq	r1, r2, fp, lsr #16
    3194:	0b912c00 	bleq	fe44e19c <__bss_end+0x76c4cb2c>
    3198:	05dc0000 	ldrbeq	r0, [ip]
    319c:	ac2d0000 	stcge	0, cr0, [sp], #-0
    31a0:	3800000a 	stmdacc	r0, {r1, r3}
    31a4:	04878008 	streq	r8, [r7], #8
    31a8:	03000000 	movweq	r0, #0
    31ac:	382e027a 	stmdacc	lr!, {r1, r3, r4, r5, r6, r9}
    31b0:	04878008 	streq	r8, [r7], #8
    31b4:	2c000000 	stccs	0, cr0, [r0], {-0}
    31b8:	00000abe 			; <UNDEFINED> instruction: 0x00000abe
    31bc:	000005ef 	andeq	r0, r0, pc, ror #11
    31c0:	00000000 	andeq	r0, r0, r0
    31c4:	80083821 	andhi	r3, r8, r1, lsr #16
    31c8:	000da887 	andeq	sl, sp, r7, lsl #17
    31cc:	000d2200 	andeq	r2, sp, r0, lsl #4
    31d0:	50012200 	andpl	r2, r1, r0, lsl #4
    31d4:	22007402 	andcs	r7, r0, #33554432	; 0x2000000
    31d8:	42015101 	andmi	r5, r1, #1073741824	; 0x40000000
    31dc:	02520122 	subseq	r0, r2, #-2147483640	; 0x80000008
    31e0:	21006491 			; <UNDEFINED> instruction: 0x21006491
    31e4:	87800858 			; <UNDEFINED> instruction: 0x87800858
    31e8:	00000dc9 	andeq	r0, r0, r9, asr #27
    31ec:	00000d44 	andeq	r0, r0, r4, asr #26
    31f0:	02500122 	subseq	r0, r0, #-2147483640	; 0x80000008
    31f4:	01226308 			; <UNDEFINED> instruction: 0x01226308
    31f8:	d1030551 	tstle	r3, r1, asr r5
    31fc:	22878007 	addcs	r8, r7, #7
    3200:	30015201 	andcc	r5, r1, r1, lsl #4
    3204:	08602f00 	stmdaeq	r0!, {r8, r9, sl, fp, sp}^
    3208:	0de48780 	stcleq	7, cr8, [r4, #512]!	; 0x200
    320c:	01220000 			; <UNDEFINED> instruction: 0x01220000
    3210:	00740250 	rsbseq	r0, r4, r0, asr r2
    3214:	01510122 	cmpeq	r1, r2, lsr #2
    3218:	30000042 	andcc	r0, r0, r2, asr #32
    321c:	00000523 	andeq	r0, r0, r3, lsr #10
    3220:	0d6b0909 			; <UNDEFINED> instruction: 0x0d6b0909
    3224:	17180000 	ldrne	r0, [r8, -r0]
    3228:	00000005 	andeq	r0, r0, r5
    322c:	00071231 	andeq	r1, r7, r1, lsr r2
    3230:	331d0700 	tstcc	sp, #0, 14
    3234:	85000000 	strhi	r0, [r0, #-0]
    3238:	1800000d 	stmdane	r0, {r0, r2, r3}
    323c:	00000d85 	andeq	r0, r0, r5, lsl #27
    3240:	00051718 	andeq	r1, r5, r8, lsl r7
    3244:	04160000 	ldreq	r0, [r6], #-0
    3248:	000004ee 	andeq	r0, r0, lr, ror #9
    324c:	00062c32 	andeq	r2, r6, r2, lsr ip
    3250:	30070a00 	andcc	r0, r7, r0, lsl #20
    3254:	000007f1 	strdeq	r0, [r0], -r1
    3258:	0da82007 	stceq	0, cr2, [r8, #28]!
    325c:	85180000 	ldrhi	r0, [r8, #-0]
    3260:	1800000d 	stmdane	r0, {r0, r2, r3}
    3264:	00000517 	andeq	r0, r0, r7, lsl r5
    3268:	07ae3000 	streq	r3, [lr, r0]!
    326c:	1b070000 	blne	1c3274 <shift+0x1c3274>
    3270:	00000dc3 	andeq	r0, r0, r3, asr #27
    3274:	000d8518 	andeq	r8, sp, r8, lsl r5
    3278:	05171800 	ldreq	r1, [r7, #-2048]	; 0xfffff800
    327c:	c3180000 	tstgt	r8, #0
    3280:	0000000d 	andeq	r0, r0, sp
    3284:	0a800416 	beq	fe0042e4 <__bss_end+0x76802c74>
    3288:	db300000 	blle	c03290 <shift+0xc03290>
    328c:	08000018 	stmdaeq	r0, {r3, r4}
    3290:	000de40f 	andeq	lr, sp, pc, lsl #8
    3294:	04661800 	strbteq	r1, [r6], #-2048	; 0xfffff800
    3298:	8b180000 	blhi	6032a0 <shift+0x6032a0>
    329c:	1800000a 	stmdane	r0, {r1, r3}
    32a0:	00000529 	andeq	r0, r0, r9, lsr #10
    32a4:	08103300 	ldmdaeq	r0, {r8, r9, ip, sp}
    32a8:	1e070000 	cdpne	0, 0, cr0, cr7, cr0, {0}
    32ac:	000d8518 	andeq	r8, sp, r8, lsl r5
    32b0:	05171800 	ldreq	r1, [r7, #-2048]	; 0xfffff800
    32b4:	00000000 	andeq	r0, r0, r0
    32b8:	00000b36 	andeq	r0, r0, r6, lsr fp
    32bc:	0d830004 	stceq	0, cr0, [r3, #16]
    32c0:	01040000 	mrseq	r0, (UNDEF: 4)
    32c4:	0000003c 	andeq	r0, r0, ip, lsr r0
    32c8:	0019c401 	andseq	ip, r9, r1, lsl #8
    32cc:	00012a00 	andeq	r2, r1, r0, lsl #20
    32d0:	80086400 	andhi	r6, r8, r0, lsl #8
    32d4:	00007887 	andeq	r7, r0, r7, lsl #17
    32d8:	0008ac00 	andeq	sl, r8, r0, lsl #24
    32dc:	06010200 	streq	r0, [r1], -r0, lsl #4
    32e0:	000000ea 	andeq	r0, r0, sl, ror #1
    32e4:	01050202 	tsteq	r5, r2, lsl #4
    32e8:	03000001 	movweq	r0, #1
    32ec:	6e690504 	cdpvs	5, 6, cr0, cr9, cr4, {0}
    32f0:	08020074 	stmdaeq	r2, {r2, r4, r5, r6}
    32f4:	00000005 	andeq	r0, r0, r5
    32f8:	08010200 	stmdaeq	r1, {r9}
    32fc:	000000e8 	andeq	r0, r0, r8, ror #1
    3300:	12070202 	andne	r0, r7, #536870912	; 0x20000000
    3304:	04000001 	streq	r0, [r0], #-1
    3308:	0000053a 	andeq	r0, r0, sl, lsr r5
    330c:	005a0e03 	subseq	r0, sl, r3, lsl #28
    3310:	04020000 	streq	r0, [r2], #-0
    3314:	0000db07 	andeq	sp, r0, r7, lsl #22
    3318:	07080200 	streq	r0, [r8, -r0, lsl #4]
    331c:	000000d1 	ldrdeq	r0, [r0], -r1
    3320:	00168f05 	andseq	r8, r6, r5, lsl #30
    3324:	18040400 	stmdane	r4, {sl}
    3328:	00000466 	andeq	r0, r0, r6, ror #8
    332c:	000c3b06 	andeq	r3, ip, r6, lsl #22
    3330:	067f8000 	ldrbteq	r8, [pc], -r0
    3334:	00000b09 	andeq	r0, r0, r9, lsl #22
    3338:	14950600 	ldrne	r0, [r5], #1536	; 0x600
    333c:	06010000 	streq	r0, [r1], -r0
    3340:	00000d56 	andeq	r0, r0, r6, asr sp
    3344:	190f0602 	stmdbne	pc, {r1, r9, sl}	; <UNPREDICTABLE>
    3348:	06030000 	streq	r0, [r3], -r0
    334c:	0000107d 	andeq	r1, r0, sp, ror r0
    3350:	0ac10604 	beq	ff044b68 <__bss_end+0x778434f8>
    3354:	06050000 	streq	r0, [r5], -r0
    3358:	00001625 	andeq	r1, r0, r5, lsr #12
    335c:	0cee0606 	stcleq	6, cr0, [lr], #24
    3360:	06070000 	streq	r0, [r7], -r0
    3364:	000018bb 			; <UNDEFINED> instruction: 0x000018bb
    3368:	122e0608 	eorne	r0, lr, #8, 12	; 0x800000
    336c:	06090000 	streq	r0, [r9], -r0
    3370:	00000d46 	andeq	r0, r0, r6, asr #26
    3374:	17cc060a 	strbne	r0, [ip, sl, lsl #12]
    3378:	060b0000 	streq	r0, [fp], -r0
    337c:	0000108c 	andeq	r1, r0, ip, lsl #1
    3380:	0ad0060c 	beq	ff404bb8 <__bss_end+0x77c03548>
    3384:	060d0000 	streq	r0, [sp], -r0
    3388:	00001418 	andeq	r1, r0, r8, lsl r4
    338c:	0cfd060e 	ldcleq	6, cr0, [sp], #56	; 0x38
    3390:	060f0000 	streq	r0, [pc], -r0
    3394:	0000102c 	andeq	r1, r0, ip, lsr #32
    3398:	0fea0619 	svceq	0x00ea0619
    339c:	061a0000 	ldreq	r0, [sl], -r0
    33a0:	00001112 	andeq	r1, r0, r2, lsl r1
    33a4:	0e87061b 	mcreq	6, 4, r0, cr7, cr11, {0}
    33a8:	061c0000 	ldreq	r0, [ip], -r0
    33ac:	000009d8 	ldrdeq	r0, [r0], -r8
    33b0:	09d5061d 	ldmibeq	r5, {r0, r2, r3, r4, r9, sl}^
    33b4:	061e0000 	ldreq	r0, [lr], -r0
    33b8:	00000f9f 	muleq	r0, pc, pc	; <UNPREDICTABLE>
    33bc:	0fae061f 	svceq	0x00ae061f
    33c0:	06200000 	strteq	r0, [r0], -r0
    33c4:	00001600 	andeq	r1, r0, r0, lsl #12
    33c8:	161b0621 	ldrne	r0, [fp], -r1, lsr #12
    33cc:	06220000 	strteq	r0, [r2], -r0
    33d0:	000010a9 	andeq	r1, r0, r9, lsr #1
    33d4:	0ded0623 	stcleq	6, cr0, [sp, #140]!	; 0x8c
    33d8:	06240000 	strteq	r0, [r4], -r0
    33dc:	00000c9f 	muleq	r0, pc, ip	; <UNPREDICTABLE>
    33e0:	10b20625 	adcsne	r0, r2, r5, lsr #12
    33e4:	06260000 	strteq	r0, [r6], -r0
    33e8:	00000b3e 	andeq	r0, r0, lr, lsr fp
    33ec:	0f030627 	svceq	0x00030627
    33f0:	06280000 	strteq	r0, [r8], -r0
    33f4:	000014f3 	strdeq	r1, [r0], -r3
    33f8:	0e100629 	cfmsub32eq	mvax1, mvfx0, mvfx0, mvfx9
    33fc:	062a0000 	strteq	r0, [sl], -r0
    3400:	00000fdf 	ldrdeq	r0, [r0], -pc	; <UNPREDICTABLE>
    3404:	0f6a062b 	svceq	0x006a062b
    3408:	062c0000 	strteq	r0, [ip], -r0
    340c:	00000950 	andeq	r0, r0, r0, asr r9
    3410:	0e62062d 	cdpeq	6, 6, cr0, cr2, cr13, {1}
    3414:	062e0000 	strteq	r0, [lr], -r0
    3418:	00000c4f 	andeq	r0, r0, pc, asr #24
    341c:	1609062f 	strne	r0, [r9], -pc, lsr #12
    3420:	06300000 	ldrteq	r0, [r0], -r0
    3424:	00000d21 	andeq	r0, r0, r1, lsr #26
    3428:	09420631 	stmdbeq	r2, {r0, r4, r5, r9, sl}^
    342c:	06320000 	ldrteq	r0, [r2], -r0
    3430:	00000d91 	muleq	r0, r1, sp
    3434:	14780633 	ldrbtne	r0, [r8], #-1587	; 0xfffff9cd
    3438:	06340000 	ldrteq	r0, [r4], -r0
    343c:	00001109 	andeq	r1, r0, r9, lsl #2
    3440:	10c70635 	sbcne	r0, r7, r5, lsr r6
    3444:	06360000 	ldrteq	r0, [r6], -r0
    3448:	00000921 	andeq	r0, r0, r1, lsr #18
    344c:	109c0637 	addsne	r0, ip, r7, lsr r6
    3450:	06380000 	ldrteq	r0, [r8], -r0
    3454:	000012f2 	strdeq	r1, [r0], -r2
    3458:	0d860639 	stceq	6, cr0, [r6, #228]	; 0xe4
    345c:	063a0000 	ldrteq	r0, [sl], -r0
    3460:	000017dc 	ldrdeq	r1, [r0], -ip
    3464:	0881063b 	stmeq	r1, {r0, r1, r3, r4, r5, r9, sl}
    3468:	063c0000 	ldrteq	r0, [ip], -r0
    346c:	00000afe 	strdeq	r0, [r0], -lr
    3470:	146d063d 	strbtne	r0, [sp], #-1597	; 0xfffff9c3
    3474:	063e0000 	ldrteq	r0, [lr], -r0
    3478:	00000fba 			; <UNDEFINED> instruction: 0x00000fba
    347c:	09ec063f 	stmibeq	ip!, {r0, r1, r2, r3, r4, r5, r9, sl}^
    3480:	00c00000 	sbceq	r0, r0, r0
    3484:	0012ff06 	andseq	pc, r2, r6, lsl #30
    3488:	0600c100 	streq	ip, [r0], -r0, lsl #2
    348c:	00000c77 	andeq	r0, r0, r7, ror ip
    3490:	230600c2 	movwcs	r0, #24770	; 0x60c2
    3494:	c300000b 	movwgt	r0, #11
    3498:	0ae00600 	beq	ff804ca0 <__bss_end+0x78003630>
    349c:	00c40000 	sbceq	r0, r4, r0
    34a0:	000ee506 	andeq	lr, lr, r6, lsl #10
    34a4:	0600c500 	streq	ip, [r0], -r0, lsl #10
    34a8:	00000d0d 	andeq	r0, r0, sp, lsl #26
    34ac:	fd0600c6 	stc2	0, cr0, [r6, #-792]	; 0xfffffce8
    34b0:	c7000018 	smladgt	r0, r8, r0, r0
    34b4:	12470600 	subne	r0, r7, #0, 12
    34b8:	00c80000 	sbceq	r0, r8, r0
    34bc:	00104406 	andseq	r4, r0, r6, lsl #8
    34c0:	0600c900 	streq	ip, [r0], -r0, lsl #18
    34c4:	00001259 	andeq	r1, r0, r9, asr r2
    34c8:	710600ca 	smlabtvc	r6, sl, r0, r0
    34cc:	cb000009 	blgt	34f8 <shift+0x34f8>
    34d0:	0be30600 	bleq	ff8c4cd8 <__bss_end+0x780c3668>
    34d4:	00cc0000 	sbceq	r0, ip, r0
    34d8:	00181a06 	andseq	r1, r8, r6, lsl #20
    34dc:	0600cd00 	streq	ip, [r0], -r0, lsl #26
    34e0:	0000088c 	andeq	r0, r0, ip, lsl #17
    34e4:	fb0600ce 	blx	183826 <shift+0x183826>
    34e8:	cf00000b 	svcgt	0x0000000b
    34ec:	0a180600 	beq	604cf4 <shift+0x604cf4>
    34f0:	00d00000 	sbcseq	r0, r0, r0
    34f4:	000b8f06 	andeq	r8, fp, r6, lsl #30
    34f8:	0600d100 	streq	sp, [r0], -r0, lsl #2
    34fc:	000008cb 	andeq	r0, r0, fp, asr #17
    3500:	a50600d2 	strge	r0, [r6, #-210]	; 0xffffff2e
    3504:	d300000e 	movwle	r0, #14
    3508:	095a0600 	ldmdbeq	sl, {r9, sl}^
    350c:	00d40000 	sbcseq	r0, r4, r0
    3510:	000d7606 	andeq	r7, sp, r6, lsl #12
    3514:	0600d500 	streq	sp, [r0], -r0, lsl #10
    3518:	00000ce0 	andeq	r0, r0, r0, ror #25
    351c:	ff0600d6 			; <UNDEFINED> instruction: 0xff0600d6
    3520:	d7000017 	smladle	r0, r7, r0, r0
    3524:	10fe0600 	rscsne	r0, lr, r0, lsl #12
    3528:	00d80000 	sbcseq	r0, r8, r0
    352c:	000b1806 	andeq	r1, fp, r6, lsl #16
    3530:	0600d900 	streq	sp, [r0], -r0, lsl #18
    3534:	000010d3 	ldrdeq	r1, [r0], -r3
    3538:	bc0600da 	stclt	0, cr0, [r6], {218}	; 0xda
    353c:	db000017 	blle	35a0 <shift+0x35a0>
    3540:	0c8f0600 	stceq	6, cr0, [pc], {0}
    3544:	00dc0000 	sbcseq	r0, ip, r0
    3548:	0009f806 	andeq	pc, r9, r6, lsl #16
    354c:	0600dd00 	streq	sp, [r0], -r0, lsl #26
    3550:	00000a08 	andeq	r0, r0, r8, lsl #20
    3554:	cf0600de 	svcgt	0x000600de
    3558:	df00000f 	svcle	0x0000000f
    355c:	18610600 	stmdane	r1!, {r9, sl}^
    3560:	00e00000 	rsceq	r0, r0, r0
    3564:	000caa06 	andeq	sl, ip, r6, lsl #20
    3568:	0600e100 	streq	lr, [r0], -r0, lsl #2
    356c:	00000a6b 	andeq	r0, r0, fp, ror #20
    3570:	a70600e2 	strge	r0, [r6, -r2, ror #1]
    3574:	e300000a 	movw	r0, #10
    3578:	17400600 	strbne	r0, [r0, -r0, lsl #12]
    357c:	00e40000 	rsceq	r0, r4, r0
    3580:	0015e606 	andseq	lr, r5, r6, lsl #12
    3584:	0600e500 	streq	lr, [r0], -r0, lsl #10
    3588:	00000b9c 	muleq	r0, ip, fp
    358c:	590600e6 	stmdbpl	r6, {r1, r2, r5, r6, r7}
    3590:	e700000b 	str	r0, [r0, -fp]
    3594:	119f0600 	orrsne	r0, pc, r0, lsl #12
    3598:	00e80000 	rsceq	r0, r8, r0
    359c:	0008fd06 	andeq	pc, r8, r6, lsl #26
    35a0:	0600e900 	streq	lr, [r0], -r0, lsl #18
    35a4:	00001840 	andeq	r1, r0, r0, asr #16
    35a8:	280600ea 	stmdacs	r6, {r1, r3, r5, r6, r7}
    35ac:	eb000014 	bl	3604 <shift+0x3604>
    35b0:	099f0600 	ldmibeq	pc, {r9, sl}	; <UNPREDICTABLE>
    35b4:	00ec0000 	rsceq	r0, ip, r0
    35b8:	00129206 	andseq	r9, r2, r6, lsl #4
    35bc:	0600ed00 	streq	lr, [r0], -r0, lsl #26
    35c0:	00001683 	andeq	r1, r0, r3, lsl #13
    35c4:	6c0600ee 	stcvs	0, cr0, [r6], {238}	; 0xee
    35c8:	ef00000e 	svc	0x0000000e
    35cc:	0cba0600 	ldceq	6, cr0, [sl]
    35d0:	00f00000 	rscseq	r0, r0, r0
    35d4:	00187106 	andseq	r7, r8, r6, lsl #2
    35d8:	0600f100 	streq	pc, [r0], -r0, lsl #2
    35dc:	00001595 	muleq	r0, r5, r5
    35e0:	380600f2 	stmdacc	r6, {r1, r4, r5, r6, r7}
    35e4:	f3000009 	vhadd.u8	d0, d0, d9
    35e8:	148b0600 	strne	r0, [fp], #1536	; 0x600
    35ec:	00f40000 	rscseq	r0, r4, r0
    35f0:	000d1706 	andeq	r1, sp, r6, lsl #14
    35f4:	0600f500 	streq	pc, [r0], -r0, lsl #10
    35f8:	000018d1 	ldrdeq	r1, [r0], -r1	; <UNPREDICTABLE>
    35fc:	4f0600f6 	svcmi	0x000600f6
    3600:	f7000016 			; <UNDEFINED> instruction: 0xf7000016
    3604:	0f110600 	svceq	0x00110600
    3608:	00f80000 	rscseq	r0, r8, r0
    360c:	000e3b06 	andeq	r3, lr, r6, lsl #22
    3610:	0600f900 	streq	pc, [r0], -r0, lsl #18
    3614:	0000101b 	andeq	r1, r0, fp, lsl r0
    3618:	cc0600fa 	stcgt	0, cr0, [r6], {250}	; 0xfa
    361c:	fb000008 	blx	3646 <shift+0x3646>
    3620:	15d50600 	ldrbne	r0, [r5, #1536]	; 0x600
    3624:	00fc0000 	rscseq	r0, ip, r0
    3628:	000b2d06 	andeq	r2, fp, r6, lsl #26
    362c:	0600fd00 	streq	pc, [r0], -r0, lsl #26
    3630:	00000df7 	strdeq	r0, [r0], -r7
    3634:	940600fe 	strls	r0, [r6], #-254	; 0xffffff02
    3638:	ff000016 			; <UNDEFINED> instruction: 0xff000016
    363c:	11f20600 	mvnsne	r0, r0, lsl #12
    3640:	01800000 	orreq	r0, r0, r0
    3644:	0016d806 	andseq	sp, r6, r6, lsl #16
    3648:	06018100 	streq	r8, [r1], -r0, lsl #2
    364c:	00000f84 	andeq	r0, r0, r4, lsl #31
    3650:	e3060182 	movw	r0, #24962	; 0x6182
    3654:	83000010 	movwhi	r0, #16
    3658:	0e580601 	cdpeq	6, 5, cr0, cr8, cr1, {0}
    365c:	01840000 	orreq	r0, r4, r0
    3660:	00132a06 	andseq	r2, r3, r6, lsl #20
    3664:	06018500 	streq	r8, [r1], -r0, lsl #10
    3668:	00000d65 	andeq	r0, r0, r5, ror #26
    366c:	96060186 	strls	r0, [r6], -r6, lsl #3
    3670:	8700000a 	strhi	r0, [r0, -sl]
    3674:	0e4f0601 	cdpeq	6, 4, cr0, cr15, cr1, {0}
    3678:	01880000 	orreq	r0, r8, r0
    367c:	0008d506 	andeq	sp, r8, r6, lsl #10
    3680:	06018900 	streq	r8, [r1], -r0, lsl #18
    3684:	0000136e 	andeq	r1, r0, lr, ror #6
    3688:	b506018a 	strlt	r0, [r6, #-394]	; 0xfffffe76
    368c:	8b00000b 	blhi	36c0 <shift+0x36c0>
    3690:	0eda0601 	cdpeq	6, 13, cr0, cr10, cr1, {0}
    3694:	018c0000 	orreq	r0, ip, r0
    3698:	0010f406 	andseq	pc, r0, r6, lsl #8
    369c:	06018d00 	streq	r8, [r1], -r0, lsl #26
    36a0:	00000917 	andeq	r0, r0, r7, lsl r9
    36a4:	3406018e 	strcc	r0, [r6], #-398	; 0xfffffe72
    36a8:	8f000016 	svchi	0x00000016
    36ac:	18090601 	stmdane	r9, {r0, r9, sl}
    36b0:	01900000 	orrseq	r0, r0, r0
    36b4:	000f1f06 	andeq	r1, pc, r6, lsl #30
    36b8:	06019100 	streq	r9, [r1], -r0, lsl #2
    36bc:	0000123d 	andeq	r1, r0, sp, lsr r2
    36c0:	4f060192 	svcmi	0x00060192
    36c4:	9300000a 	movwls	r0, #10
    36c8:	15cb0601 	strbne	r0, [fp, #1537]	; 0x601
    36cc:	01940000 	orrseq	r0, r4, r0
    36d0:	000e7d06 	andeq	r7, lr, r6, lsl #26
    36d4:	06019500 	streq	r9, [r1], -r0, lsl #10
    36d8:	000016f4 	strdeq	r1, [r0], -r4
    36dc:	6d060196 	stfvss	f0, [r6, #-600]	; 0xfffffda8
    36e0:	97000010 	smladls	r0, r0, r0, r0
    36e4:	10bc0601 	adcsne	r0, ip, r1, lsl #12
    36e8:	01980000 	orrseq	r0, r8, r0
    36ec:	000ddd06 	andeq	sp, sp, r6, lsl #26
    36f0:	06019900 	streq	r9, [r1], -r0, lsl #18
    36f4:	00000dcc 	andeq	r0, r0, ip, asr #27
    36f8:	2b06019a 	blcs	183d68 <shift+0x183d68>
    36fc:	9b000019 	blls	3768 <shift+0x3768>
    3700:	12bd0601 	adcsne	r0, sp, #1048576	; 0x100000
    3704:	019c0000 	orrseq	r0, ip, r0
    3708:	000c6006 	andeq	r6, ip, r6
    370c:	06019d00 	streq	r9, [r1], -r0, lsl #26
    3710:	000016a9 	andeq	r1, r0, r9, lsr #13
    3714:	ad06019e 	stfges	f0, [r6, #-632]	; 0xfffffd88
    3718:	9f000018 	svcls	0x00000018
    371c:	c5040001 	strgt	r0, [r4, #-1]
    3720:	0400000c 	streq	r0, [r0], #-12
    3724:	000068b6 			; <UNDEFINED> instruction: 0x000068b6
    3728:	07040200 	streq	r0, [r4, -r0, lsl #4]
    372c:	00000169 	andeq	r0, r0, r9, ror #2
    3730:	00004f07 	andeq	r4, r0, r7, lsl #30
    3734:	04140800 	ldreq	r0, [r4], #-2048	; 0xfffff800
    3738:	04c5319f 	strbeq	r3, [r5], #415	; 0x19f
    373c:	43090000 	movwmi	r0, #36864	; 0x9000
    3740:	a0040052 	andge	r0, r4, r2, asr r0
    3744:	00047831 	andeq	r7, r4, r1, lsr r8
    3748:	53090000 	movwpl	r0, #36864	; 0x9000
    374c:	a1040052 	qaddge	r0, r2, r4
    3750:	00047831 	andeq	r7, r4, r1, lsr r8
    3754:	4c090400 	cfstrsmi	mvf0, [r9], {-0}
    3758:	a2040052 	andge	r0, r4, #82	; 0x52
    375c:	00047831 	andeq	r7, r4, r1, lsr r8
    3760:	bf0a0800 	svclt	0x000a0800
    3764:	04000019 	streq	r0, [r0], #-25	; 0xffffffe7
    3768:	047831a3 	ldrbteq	r3, [r8], #-419	; 0xfffffe5d
    376c:	090c0000 	stmdbeq	ip, {}	; <UNPREDICTABLE>
    3770:	00524e43 	subseq	r4, r2, r3, asr #28
    3774:	7831a404 	ldmdavc	r1!, {r2, sl, sp, pc}
    3778:	10000004 	andne	r0, r0, r4
    377c:	19920b00 	ldmibne	r2, {r8, r9, fp}
    3780:	a5040000 	strge	r0, [r4, #-0]
    3784:	00047d31 	andeq	r7, r4, r1, lsr sp
    3788:	07040200 	streq	r0, [r4, -r0, lsl #4]
    378c:	000000d6 	ldrdeq	r0, [r0], -r6
    3790:	0006fb04 	andeq	pc, r6, r4, lsl #22
    3794:	41260500 			; <UNDEFINED> instruction: 0x41260500
    3798:	04000000 	streq	r0, [r0], #-0
    379c:	0000193c 	andeq	r1, r0, ip, lsr r9
    37a0:	00332905 	eorseq	r2, r3, r5, lsl #18
    37a4:	38040000 	stmdacc	r4, {}	; <UNPREDICTABLE>
    37a8:	05000005 	streq	r0, [r0, #-5]
    37ac:	00005a2a 	andeq	r5, r0, sl, lsr #20
    37b0:	05040200 	streq	r0, [r4, #-512]	; 0xfffffe00
    37b4:	00000005 	andeq	r0, r0, r5
    37b8:	0102040c 	tsteq	r2, ip, lsl #8
    37bc:	0000f108 	andeq	pc, r0, r8, lsl #2
    37c0:	30040d00 	andcc	r0, r4, r0, lsl #26
    37c4:	93021102 	movwls	r1, #8450	; 0x2102
    37c8:	0a000008 	beq	37f0 <shift+0x37f0>
    37cc:	00001382 	andeq	r1, r0, r2, lsl #7
    37d0:	93021302 	movwls	r1, #8962	; 0x2302
    37d4:	00000008 	andeq	r0, r0, r8
    37d8:	0019080e 	andseq	r0, r9, lr, lsl #16
    37dc:	02140200 	andseq	r0, r4, #0, 4
    37e0:	000008a4 	andeq	r0, r0, r4, lsr #17
    37e4:	2c0e1000 	stccs	0, cr1, [lr], {-0}
    37e8:	0200000d 	andeq	r0, r0, #13
    37ec:	08a90215 	stmiaeq	r9!, {r0, r2, r4, r9}
    37f0:	10040000 	andne	r0, r4, r0
    37f4:	000b730e 	andeq	r7, fp, lr, lsl #6
    37f8:	02160200 	andseq	r0, r6, #0, 4
    37fc:	000008a9 	andeq	r0, r0, r9, lsr #17
    3800:	8c0e1008 	stchi	0, cr1, [lr], {8}
    3804:	02000013 	andeq	r0, r0, #19
    3808:	08ae0217 	stmiaeq	lr!, {r0, r1, r2, r4, r9}
    380c:	100c0000 	andne	r0, ip, r0
    3810:	00152a0e 	andseq	r2, r5, lr, lsl #20
    3814:	02180200 	andseq	r0, r8, #0, 4
    3818:	000008ce 	andeq	r0, r0, lr, asr #17
    381c:	f10e1080 			; <UNDEFINED> instruction: 0xf10e1080
    3820:	0200000b 	andeq	r0, r0, #11
    3824:	08be0219 	ldmeq	lr!, {r0, r3, r4, r9}
    3828:	10c00000 	sbcne	r0, r0, r0
    382c:	0011460e 	andseq	r4, r1, lr, lsl #12
    3830:	021a0200 	andseq	r0, sl, #0, 4
    3834:	000008d3 	ldrdeq	r0, [r0], -r3
    3838:	a50e1100 	strge	r1, [lr, #-256]	; 0xffffff00
    383c:	02000013 	andeq	r0, r0, #19
    3840:	08be021b 	ldmeq	lr!, {r0, r1, r3, r4, r9}
    3844:	11400000 	mrsne	r0, (UNDEF: 64)
    3848:	0015b50e 	andseq	fp, r5, lr, lsl #10
    384c:	021c0200 	andseq	r0, ip, #0, 4
    3850:	000008d8 	ldrdeq	r0, [r0], -r8
    3854:	af0e1180 	svcge	0x000e1180
    3858:	02000013 	andeq	r0, r0, #19
    385c:	08be021d 	ldmeq	lr!, {r0, r2, r3, r4, r9}
    3860:	11c00000 	bicne	r0, r0, r0
    3864:	000f7a0e 	andeq	r7, pc, lr, lsl #20
    3868:	021e0200 	andseq	r0, lr, #0, 4
    386c:	000008dd 	ldrdeq	r0, [r0], -sp
    3870:	b90e1200 	stmdblt	lr, {r9, ip}
    3874:	02000013 	andeq	r0, r0, #19
    3878:	08be021f 	ldmeq	lr!, {r0, r1, r2, r3, r4, r9}
    387c:	12400000 	subne	r0, r0, #0
    3880:	0015c10e 	andseq	ip, r5, lr, lsl #2
    3884:	02200200 	eoreq	r0, r0, #0, 4
    3888:	000008e2 	andeq	r0, r0, r2, ror #17
    388c:	0c0e1280 	sfmeq	f1, 4, [lr], {128}	; 0x80
    3890:	0200000c 	andeq	r0, r0, #12
    3894:	08be0221 	ldmeq	lr!, {r0, r5, r9}
    3898:	12c00000 	sbcne	r0, r0, #0
    389c:	0009650e 	andeq	r6, r9, lr, lsl #10
    38a0:	02220200 	eoreq	r0, r2, #0, 4
    38a4:	000008e7 	andeq	r0, r0, r7, ror #17
    38a8:	d70e1300 	strle	r1, [lr, -r0, lsl #6]
    38ac:	02000013 	andeq	r0, r0, #19
    38b0:	08be0223 	ldmeq	lr!, {r0, r1, r5, r9}
    38b4:	13400000 	movtne	r0, #0
    38b8:	000c830e 	andeq	r8, ip, lr, lsl #6
    38bc:	02240200 	eoreq	r0, r4, #0, 4
    38c0:	000008ec 	andeq	r0, r0, ip, ror #17
    38c4:	160e1380 	strne	r1, [lr], -r0, lsl #7
    38c8:	0200000c 	andeq	r0, r0, #12
    38cc:	08be0225 	ldmeq	lr!, {r0, r2, r5, r9}
    38d0:	13c00000 	bicne	r0, r0, #0
    38d4:	00187c0e 	andseq	r7, r8, lr, lsl #24
    38d8:	02260200 	eoreq	r0, r6, #0, 4
    38dc:	00000902 	andeq	r0, r0, r2, lsl #18
    38e0:	e90e1400 	stmdb	lr, {sl, ip}
    38e4:	02000013 	andeq	r0, r0, #19
    38e8:	09070227 	stmdbeq	r7, {r0, r1, r2, r5, r9}
    38ec:	16000000 	strne	r0, [r0], -r0
    38f0:	0017280e 	andseq	r2, r7, lr, lsl #16
    38f4:	02280200 	eoreq	r0, r8, #0, 4
    38f8:	00000917 	andeq	r0, r0, r7, lsl r9
    38fc:	590e1800 	stmdbpl	lr, {fp, ip}
    3900:	02000017 	andeq	r0, r0, #23
    3904:	09070229 	stmdbeq	r7, {r0, r3, r5, r9}
    3908:	1a000000 	bne	3910 <shift+0x3910>
    390c:	0012ce0e 	andseq	ip, r2, lr, lsl #28
    3910:	022a0200 	eoreq	r0, sl, #0, 4
    3914:	0000092c 	andeq	r0, r0, ip, lsr #18
    3918:	640e1c00 	strvs	r1, [lr], #-3072	; 0xfffff400
    391c:	02000017 	andeq	r0, r0, #23
    3920:	091c022b 	ldmdbeq	ip, {r0, r1, r3, r5, r9}
    3924:	1c800000 	stcne	0, cr0, [r0], {0}
    3928:	0013e10e 	andseq	lr, r3, lr, lsl #2
    392c:	022c0200 	eoreq	r0, ip, #0, 4
    3930:	000008a9 	andeq	r0, r0, r9, lsr #17
    3934:	a30e1d00 	movwge	r1, #60672	; 0xed00
    3938:	02000012 	andeq	r0, r0, #18
    393c:	0941022d 	stmdbeq	r1, {r0, r2, r3, r5, r9}^
    3940:	1d040000 	stcne	0, cr0, [r4, #-0]
    3944:	00176f0e 	andseq	r6, r7, lr, lsl #30
    3948:	022e0200 	eoreq	r0, lr, #0, 4
    394c:	0000094b 	andeq	r0, r0, fp, asr #18
    3950:	660e1d40 	strvs	r1, [lr], -r0, asr #26
    3954:	02000010 	andeq	r0, r0, #16
    3958:	08a4022f 	stmiaeq	r4!, {r0, r1, r2, r3, r5, r9}
    395c:	1f000000 	svcne	0x00000000
    3960:	00177a0e 	andseq	r7, r7, lr, lsl #20
    3964:	02300200 	eorseq	r0, r0, #0, 4
    3968:	0000095b 	andeq	r0, r0, fp, asr r9
    396c:	340e1f04 	strcc	r1, [lr], #-3844	; 0xfffff0fc
    3970:	02000017 	andeq	r0, r0, #23
    3974:	097b0231 	ldmdbeq	fp!, {r0, r4, r5, r9}^
    3978:	1f100000 	svcne	0x00100000
    397c:	000f5e0e 	andeq	r5, pc, lr, lsl #28
    3980:	02320200 	eorseq	r0, r2, #0, 4
    3984:	00000980 	andeq	r0, r0, r0, lsl #19
    3988:	850e1f20 	strhi	r1, [lr, #-3872]	; 0xfffff0e0
    398c:	02000017 	andeq	r0, r0, #23
    3990:	09850233 	stmibeq	r5, {r0, r1, r4, r5, r9}
    3994:	1f300000 	svcne	0x00300000
    3998:	0011720e 	andseq	r7, r1, lr, lsl #4
    399c:	02340200 	eorseq	r0, r4, #0, 4
    39a0:	000008a9 	andeq	r0, r0, r9, lsr #17
    39a4:	7a0e1fd0 	bvc	38b8ec <shift+0x38b8ec>
    39a8:	02000011 	andeq	r0, r0, #17
    39ac:	08a90235 	stmiaeq	r9!, {r0, r2, r4, r5, r9}
    39b0:	1fd40000 	svcne	0x00d40000
    39b4:	0011820e 	andseq	r8, r1, lr, lsl #4
    39b8:	02360200 	eorseq	r0, r6, #0, 4
    39bc:	000008a9 	andeq	r0, r0, r9, lsr #17
    39c0:	8a0e1fd8 	bhi	38b928 <shift+0x38b928>
    39c4:	02000011 	andeq	r0, r0, #17
    39c8:	08a90237 	stmiaeq	r9!, {r0, r1, r2, r4, r5, r9}
    39cc:	1fdc0000 	svcne	0x00dc0000
    39d0:	0011520e 	andseq	r5, r1, lr, lsl #4
    39d4:	02380200 	eorseq	r0, r8, #0, 4
    39d8:	000008a9 	andeq	r0, r0, r9, lsr #17
    39dc:	5a0e1fe0 	bpl	38b964 <shift+0x38b964>
    39e0:	02000011 	andeq	r0, r0, #17
    39e4:	08a90239 	stmiaeq	r9!, {r0, r3, r4, r5, r9}
    39e8:	1fe40000 	svcne	0x00e40000
    39ec:	0011620e 	andseq	r6, r1, lr, lsl #4
    39f0:	023a0200 	eorseq	r0, sl, #0, 4
    39f4:	000008a9 	andeq	r0, r0, r9, lsr #17
    39f8:	6a0e1fe8 	bvs	38b9a0 <shift+0x38b9a0>
    39fc:	02000011 	andeq	r0, r0, #17
    3a00:	08a9023b 	stmiaeq	r9!, {r0, r1, r3, r4, r5, r9}
    3a04:	1fec0000 	svcne	0x00ec0000
    3a08:	00097f0e 	andeq	r7, r9, lr, lsl #30
    3a0c:	023c0200 	eorseq	r0, ip, #0, 4
    3a10:	000008a9 	andeq	r0, r0, r9, lsr #17
    3a14:	870e1ff0 			; <UNDEFINED> instruction: 0x870e1ff0
    3a18:	02000009 	andeq	r0, r0, #9
    3a1c:	08a9023d 	stmiaeq	r9!, {r0, r2, r3, r4, r5, r9}
    3a20:	1ff40000 	svcne	0x00f40000
    3a24:	00098f0e 	andeq	r8, r9, lr, lsl #30
    3a28:	023e0200 	eorseq	r0, lr, #0, 4
    3a2c:	000008a9 	andeq	r0, r0, r9, lsr #17
    3a30:	970e1ff8 			; <UNDEFINED> instruction: 0x970e1ff8
    3a34:	02000009 	andeq	r0, r0, #9
    3a38:	08a9023f 	stmiaeq	r9!, {r0, r1, r2, r3, r4, r5, r9}
    3a3c:	1ffc0000 	svcne	0x00fc0000
    3a40:	0019240e 	andseq	r2, r9, lr, lsl #8
    3a44:	02410200 	subeq	r0, r1, #0, 4
    3a48:	000008a4 	andeq	r0, r0, r4, lsr #17
    3a4c:	710e2000 	mrsvc	r2, (UNDEF: 14)
    3a50:	0200000c 	andeq	r0, r0, #12
    3a54:	08a40242 	stmiaeq	r4!, {r1, r6, r9}
    3a58:	20040000 	andcs	r0, r4, r0
    3a5c:	0018280e 	andseq	r2, r8, lr, lsl #16
    3a60:	02430200 	subeq	r0, r3, #0, 4
    3a64:	000008a4 	andeq	r0, r0, r4, lsr #17
    3a68:	b50e2008 	strlt	r2, [lr, #-8]
    3a6c:	02000014 	andeq	r0, r0, #20
    3a70:	08a90244 	stmiaeq	r9!, {r2, r6, r9}
    3a74:	200c0000 	andcs	r0, ip, r0
    3a78:	0018f60e 	andseq	pc, r8, lr, lsl #12
    3a7c:	02450200 	subeq	r0, r5, #0, 4
    3a80:	000008a4 	andeq	r0, r0, r4, lsr #17
    3a84:	490e2010 	stmdbmi	lr, {r4, sp}
    3a88:	0200000c 	andeq	r0, r0, #12
    3a8c:	08a90246 	stmiaeq	r9!, {r1, r2, r6, r9}
    3a90:	20140000 	andscs	r0, r4, r0
    3a94:	0008c30e 	andeq	ip, r8, lr, lsl #6
    3a98:	02470200 	subeq	r0, r7, #0, 4
    3a9c:	000008a9 	andeq	r0, r0, r9, lsr #17
    3aa0:	ca0e2018 	bgt	38bb08 <shift+0x38bb08>
    3aa4:	02000018 	andeq	r0, r0, #24
    3aa8:	08a40248 	stmiaeq	r4!, {r3, r6, r9}
    3aac:	201c0000 	andscs	r0, ip, r0
    3ab0:	0015680e 	andseq	r6, r5, lr, lsl #16
    3ab4:	02490200 	subeq	r0, r9, #0, 4
    3ab8:	000008a9 	andeq	r0, r0, r9, lsr #17
    3abc:	bb0e2020 	bllt	38bb44 <shift+0x38bb44>
    3ac0:	02000014 	andeq	r0, r0, #20
    3ac4:	08a4024a 	stmiaeq	r4!, {r1, r3, r6, r9}
    3ac8:	20240000 	eorcs	r0, r4, r0
    3acc:	000fc60e 	andeq	ip, pc, lr, lsl #12
    3ad0:	024b0200 	subeq	r0, fp, #0, 4
    3ad4:	000008a9 	andeq	r0, r0, r9, lsr #17
    3ad8:	900e2028 	andls	r2, lr, r8, lsr #32
    3adc:	02000017 	andeq	r0, r0, #23
    3ae0:	0995024c 	ldmibeq	r5, {r2, r3, r6, r9}
    3ae4:	202c0000 	eorcs	r0, ip, r0
    3ae8:	0012520e 	andseq	r5, r2, lr, lsl #4
    3aec:	024d0200 	subeq	r0, sp, #0, 4
    3af0:	000008a4 	andeq	r0, r0, r4, lsr #17
    3af4:	9b0e20d0 	blls	38be3c <shift+0x38be3c>
    3af8:	02000017 	andeq	r0, r0, #23
    3afc:	095b024e 	ldmdbeq	fp, {r1, r2, r3, r6, r9}^
    3b00:	20d40000 	sbcscs	r0, r4, r0
    3b04:	0014d40e 	andseq	sp, r4, lr, lsl #8
    3b08:	024f0200 	subeq	r0, pc, #0, 4
    3b0c:	000008a4 	andeq	r0, r0, r4, lsr #17
    3b10:	a60e20e0 	strge	r2, [lr], -r0, ror #1
    3b14:	02000017 	andeq	r0, r0, #23
    3b18:	09a50250 	stmibeq	r5!, {r4, r6, r9}
    3b1c:	20e40000 	rsccs	r0, r4, r0
    3b20:	0011920e 	andseq	r9, r1, lr, lsl #4
    3b24:	02510200 	subseq	r0, r1, #0, 4
    3b28:	000008a9 	andeq	r0, r0, r9, lsr #17
    3b2c:	b10e20fc 	strdlt	r2, [lr, -ip]
    3b30:	02000017 	andeq	r0, r0, #23
    3b34:	09b50252 	ldmibeq	r5!, {r1, r4, r6, r9}
    3b38:	21000000 	mrscs	r0, (UNDEF: 0)
    3b3c:	000c200e 	andeq	r2, ip, lr
    3b40:	02530200 	subseq	r0, r3, #0, 4
    3b44:	000008a4 	andeq	r0, r0, r4, lsr #17
    3b48:	0f003000 	svceq	0x00003000
    3b4c:	000004ee 	andeq	r0, r0, lr, ror #9
    3b50:	000008a4 	andeq	r0, r0, r4, lsr #17
    3b54:	00047110 	andeq	r7, r4, r0, lsl r1
    3b58:	0003ff00 	andeq	pc, r3, r0, lsl #30
    3b5c:	0004ee07 	andeq	lr, r4, r7, lsl #28
    3b60:	08a41100 	stmiaeq	r4!, {r8, ip}
    3b64:	ee0f0000 	cdp	0, 0, cr0, cr15, cr0, {0}
    3b68:	be000004 	cdplt	0, 0, cr0, cr0, cr4, {0}
    3b6c:	12000008 	andne	r0, r0, #8
    3b70:	00000471 	andeq	r0, r0, r1, ror r4
    3b74:	ee0f001c 	mcr	0, 0, r0, cr15, cr12, {0}
    3b78:	ce000004 	cdpgt	0, 0, cr0, cr0, cr4, {0}
    3b7c:	12000008 	andne	r0, r0, #8
    3b80:	00000471 	andeq	r0, r0, r1, ror r4
    3b84:	be07000f 	cdplt	0, 0, cr0, cr7, cr15, {0}
    3b88:	07000008 	streq	r0, [r0, -r8]
    3b8c:	000008be 			; <UNDEFINED> instruction: 0x000008be
    3b90:	0008be07 	andeq	fp, r8, r7, lsl #28
    3b94:	08be0700 	ldmeq	lr!, {r8, r9, sl}
    3b98:	be070000 	cdplt	0, 0, cr0, cr7, cr0, {0}
    3b9c:	07000008 	streq	r0, [r0, -r8]
    3ba0:	000008be 			; <UNDEFINED> instruction: 0x000008be
    3ba4:	0008be07 	andeq	fp, r8, r7, lsl #28
    3ba8:	04d80f00 	ldrbeq	r0, [r8], #3840	; 0xf00
    3bac:	09020000 	stmdbeq	r2, {}	; <UNPREDICTABLE>
    3bb0:	71100000 	tstvc	r0, r0
    3bb4:	ff000004 			; <UNDEFINED> instruction: 0xff000004
    3bb8:	f1070001 			; <UNDEFINED> instruction: 0xf1070001
    3bbc:	0f000008 	svceq	0x00000008
    3bc0:	000004ee 	andeq	r0, r0, lr, ror #9
    3bc4:	00000917 	andeq	r0, r0, r7, lsl r9
    3bc8:	00047112 	andeq	r7, r4, r2, lsl r1
    3bcc:	07007f00 	streq	r7, [r0, -r0, lsl #30]
    3bd0:	000008f1 	strdeq	r0, [r0], -r1
    3bd4:	0004ee0f 	andeq	lr, r4, pc, lsl #28
    3bd8:	00092c00 	andeq	r2, r9, r0, lsl #24
    3bdc:	04711200 	ldrbteq	r1, [r1], #-512	; 0xfffffe00
    3be0:	001f0000 	andseq	r0, pc, r0
    3be4:	00091c07 	andeq	r1, r9, r7, lsl #24
    3be8:	04ee0f00 	strbteq	r0, [lr], #3840	; 0xf00
    3bec:	09410000 	stmdbeq	r1, {}^	; <UNPREDICTABLE>
    3bf0:	71120000 	tstvc	r2, r0
    3bf4:	0e000004 	cdpeq	0, 0, cr0, cr0, cr4, {0}
    3bf8:	09461100 	stmdbeq	r6, {r8, ip}^
    3bfc:	31070000 	mrscc	r0, (UNDEF: 7)
    3c00:	0f000009 	svceq	0x00000009
    3c04:	000004ee 	andeq	r0, r0, lr, ror #9
    3c08:	0000095b 	andeq	r0, r0, fp, asr r9
    3c0c:	00047112 	andeq	r7, r4, r2, lsl r1
    3c10:	0f006f00 	svceq	0x00006f00
    3c14:	000004ee 	andeq	r0, r0, lr, ror #9
    3c18:	0000096b 	andeq	r0, r0, fp, ror #18
    3c1c:	00047112 	andeq	r7, r4, r2, lsl r1
    3c20:	0f000200 	svceq	0x00000200
    3c24:	000004d8 	ldrdeq	r0, [r0], -r8
    3c28:	0000097b 	andeq	r0, r0, fp, ror r9
    3c2c:	00047112 	andeq	r7, r4, r2, lsl r1
    3c30:	07000f00 	streq	r0, [r0, -r0, lsl #30]
    3c34:	0000096b 	andeq	r0, r0, fp, ror #18
    3c38:	00096b07 	andeq	r6, r9, r7, lsl #22
    3c3c:	04ee0f00 	strbteq	r0, [lr], #3840	; 0xf00
    3c40:	09950000 	ldmibeq	r5, {}	; <UNPREDICTABLE>
    3c44:	71120000 	tstvc	r2, r0
    3c48:	27000004 	strcs	r0, [r0, -r4]
    3c4c:	04ee0f00 	strbteq	r0, [lr], #3840	; 0xf00
    3c50:	09a50000 	stmibeq	r5!, {}	; <UNPREDICTABLE>
    3c54:	71120000 	tstvc	r2, r0
    3c58:	28000004 	stmdacs	r0, {r2}
    3c5c:	04ee0f00 	strbteq	r0, [lr], #3840	; 0xf00
    3c60:	09b50000 	ldmibeq	r5!, {}	; <UNPREDICTABLE>
    3c64:	71120000 	tstvc	r2, r0
    3c68:	05000004 	streq	r0, [r0, #-4]
    3c6c:	04ee0f00 	strbteq	r0, [lr], #3840	; 0xf00
    3c70:	09c60000 	stmibeq	r6, {}^	; <UNPREDICTABLE>
    3c74:	71100000 	tstvc	r0, r0
    3c78:	bf000004 	svclt	0x00000004
    3c7c:	320b0003 	andcc	r0, fp, #3
    3c80:	0200000e 	andeq	r0, r0, #14
    3c84:	05090254 	streq	r0, [r9, #-596]	; 0xfffffdac
    3c88:	ba040000 	blt	103c90 <shift+0x103c90>
    3c8c:	06000016 			; <UNDEFINED> instruction: 0x06000016
    3c90:	0009dd06 	andeq	sp, r9, r6, lsl #26
    3c94:	e3041300 	movw	r1, #17152	; 0x4300
    3c98:	14000009 	strne	r0, [r0], #-9
    3c9c:	000009f3 	strdeq	r0, [r0], -r3
    3ca0:	00005a15 	andeq	r5, r0, r5, lsl sl
    3ca4:	05001500 	streq	r1, [r0, #-1280]	; 0xfffffb00
    3ca8:	16000000 	strne	r0, [r0], -r0
    3cac:	0000092d 	andeq	r0, r0, sp, lsr #18
    3cb0:	ee020302 	cdp	3, 0, cr0, cr2, cr2, {0}
    3cb4:	03000004 	movweq	r0, #4
    3cb8:	00000a13 	andeq	r0, r0, r3, lsl sl
    3cbc:	191e1817 	ldmdbne	lr, {r0, r1, r2, r4, fp, ip}
    3cc0:	05020000 	streq	r0, [r2, #-0]
    3cc4:	0004ee02 	andeq	lr, r4, r2, lsl #28
    3cc8:	19000000 	stmdbne	r0, {}	; <UNPREDICTABLE>
    3ccc:	00001961 	andeq	r1, r0, r1, ror #18
    3cd0:	03027802 	movweq	r7, #10242	; 0x2802
    3cd4:	00000a39 	andeq	r0, r0, r9, lsr sl
    3cd8:	00168f1a 	andseq	r8, r6, sl, lsl pc
    3cdc:	02780200 	rsbseq	r0, r8, #0, 4
    3ce0:	00000466 	andeq	r0, r0, r6, ror #8
    3ce4:	6369671b 	cmnvs	r9, #7077888	; 0x6c0000
    3ce8:	027a0200 	rsbseq	r0, sl, #0, 4
    3cec:	00000a39 	andeq	r0, r0, r9, lsr sl
    3cf0:	c6041300 	strgt	r1, [r4], -r0, lsl #6
    3cf4:	1c000009 	stcne	0, cr0, [r0], {9}
    3cf8:	000019a4 	andeq	r1, r0, r4, lsr #19
    3cfc:	08641701 	stmdaeq	r4!, {r0, r8, r9, sl, ip}^
    3d00:	00228780 	eoreq	r8, r2, r0, lsl #15
    3d04:	9c010000 	stcls	0, cr0, [r1], {-0}
    3d08:	00000a7c 	andeq	r0, r0, ip, ror sl
    3d0c:	00199c1d 	andseq	r9, r9, sp, lsl ip
    3d10:	5a170100 	bpl	5c4118 <shift+0x5c4118>
    3d14:	02000000 	andeq	r0, r0, #0
    3d18:	1d000006 	stcne	0, cr0, [r0, #-24]	; 0xffffffe8
    3d1c:	00001199 	muleq	r0, r9, r1
    3d20:	05001701 	streq	r1, [r0, #-1793]	; 0xfffff8ff
    3d24:	06230000 	strteq	r0, [r3], -r0
    3d28:	761e0000 	ldrvc	r0, [lr], -r0
    3d2c:	1b878008 	blne	fe1e3d54 <__bss_end+0x769e26e4>
    3d30:	0000000b 	andeq	r0, r0, fp
    3d34:	0019b51c 	andseq	fp, r9, ip, lsl r5
    3d38:	88070100 	stmdahi	r7, {r8}
    3d3c:	54878008 	strpl	r8, [r7], #8
    3d40:	01000000 	mrseq	r0, (UNDEF: 0)
    3d44:	000b1b9c 	muleq	fp, ip, fp
    3d48:	198d1d00 	stmibne	sp, {r8, sl, fp, ip}
    3d4c:	07010000 	streq	r0, [r1, -r0]
    3d50:	000004ee 	andeq	r0, r0, lr, ror #9
    3d54:	00000644 	andeq	r0, r0, r4, asr #12
    3d58:	00051d1d 	andeq	r1, r5, sp, lsl sp
    3d5c:	ee070100 	adfs	f0, f7, f0
    3d60:	9a000004 	bls	3d78 <shift+0x3d78>
    3d64:	1f000006 	svcne	0x00000006
    3d68:	00000a13 	andeq	r0, r0, r3, lsl sl
    3d6c:	878008b2 			; <UNDEFINED> instruction: 0x878008b2
    3d70:	00000238 	andeq	r0, r0, r8, lsr r2
    3d74:	0afc1101 	beq	fff08180 <__bss_end+0x78706b10>
    3d78:	20200000 	eorcs	r0, r0, r0
    3d7c:	5800000a 	stmdapl	r0, {r1, r3}
    3d80:	00023821 	andeq	r3, r2, r1, lsr #16
    3d84:	0a2c2200 	beq	b0c58c <shift+0xb0c58c>
    3d88:	06bb0000 	ldrteq	r0, [fp], r0
    3d8c:	f3230000 	vhadd.u32	d0, d3, d0
    3d90:	b2000009 	andlt	r0, r0, #9
    3d94:	04878008 	streq	r8, [r7], #8
    3d98:	02000000 	andeq	r0, r0, #0
    3d9c:	b224027a 	eorlt	r0, r4, #-1610612729	; 0xa0000007
    3da0:	04878008 	streq	r8, [r7], #8
    3da4:	22000000 	andcs	r0, r0, #0
    3da8:	00000a05 	andeq	r0, r0, r5, lsl #20
    3dac:	000006ce 	andeq	r0, r0, lr, asr #13
    3db0:	00000000 	andeq	r0, r0, r0
    3db4:	8008d225 	andhi	sp, r8, r5, lsr #4
    3db8:	000b2287 	andeq	r2, fp, r7, lsl #5
    3dbc:	50012600 	andpl	r2, r1, r0, lsl #12
    3dc0:	26580802 	ldrbcs	r0, [r8], -r2, lsl #16
    3dc4:	03055101 	movweq	r5, #20737	; 0x5101
    3dc8:	87800865 	strhi	r0, [r0, r5, ror #16]
    3dcc:	01520126 	cmpeq	r2, r6, lsr #2
    3dd0:	27000030 	smladxcs	r0, r0, r0, r0
    3dd4:	00000581 	andeq	r0, r0, r1, lsl #11
    3dd8:	db280707 	blle	a059fc <shift+0xa059fc>
    3ddc:	06000018 			; <UNDEFINED> instruction: 0x06000018
    3de0:	0466150f 	strbteq	r1, [r6], #-1295	; 0xfffffaf1
    3de4:	d2150000 	andsle	r0, r5, #0
    3de8:	15000009 	strne	r0, [r0, #-9]
    3dec:	00000500 	andeq	r0, r0, r0, lsl #10
    3df0:	0f170000 	svceq	0x00170000
    3df4:	00040000 	andeq	r0, r4, r0
    3df8:	00000f6e 	andeq	r0, r0, lr, ror #30
    3dfc:	003c0104 	eorseq	r0, ip, r4, lsl #2
    3e00:	e3010000 	movw	r0, #4096	; 0x1000
    3e04:	2a000019 	bcs	3e70 <shift+0x3e70>
    3e08:	dc000001 	stcle	0, cr0, [r0], {1}
    3e0c:	02878008 	addeq	r8, r7, #8
    3e10:	ae000001 	cdpge	0, 0, cr0, cr0, cr1, {0}
    3e14:	02000009 	andeq	r0, r0, #9
    3e18:	00ea0601 	rsceq	r0, sl, r1, lsl #12
    3e1c:	02020000 	andeq	r0, r2, #0
    3e20:	00010105 	andeq	r0, r1, r5, lsl #2
    3e24:	05040300 	streq	r0, [r4, #-768]	; 0xfffffd00
    3e28:	00746e69 	rsbseq	r6, r4, r9, ror #28
    3e2c:	00050802 	andeq	r0, r5, r2, lsl #16
    3e30:	02000000 	andeq	r0, r0, #0
    3e34:	00e80801 	rsceq	r0, r8, r1, lsl #16
    3e38:	02020000 	andeq	r0, r2, #0
    3e3c:	00011207 	andeq	r1, r1, r7, lsl #4
    3e40:	053a0400 	ldreq	r0, [sl, #-1024]!	; 0xfffffc00
    3e44:	0e040000 	cdpeq	0, 0, cr0, cr4, cr0, {0}
    3e48:	0000005a 	andeq	r0, r0, sl, asr r0
    3e4c:	db070402 	blle	1c4e5c <shift+0x1c4e5c>
    3e50:	02000000 	andeq	r0, r0, #0
    3e54:	00d10708 	sbcseq	r0, r1, r8, lsl #14
    3e58:	8f050000 	svchi	0x00050000
    3e5c:	04000016 	streq	r0, [r0], #-22	; 0xffffffea
    3e60:	04661805 	strbteq	r1, [r6], #-2053	; 0xfffff7fb
    3e64:	3b060000 	blcc	183e6c <shift+0x183e6c>
    3e68:	8000000c 	andhi	r0, r0, ip
    3e6c:	0b09067f 	bleq	245870 <shift+0x245870>
    3e70:	06000000 	streq	r0, [r0], -r0
    3e74:	00001495 	muleq	r0, r5, r4
    3e78:	0d560601 	ldcleq	6, cr0, [r6, #-4]
    3e7c:	06020000 	streq	r0, [r2], -r0
    3e80:	0000190f 	andeq	r1, r0, pc, lsl #18
    3e84:	107d0603 	rsbsne	r0, sp, r3, lsl #12
    3e88:	06040000 	streq	r0, [r4], -r0
    3e8c:	00000ac1 	andeq	r0, r0, r1, asr #21
    3e90:	16250605 	strtne	r0, [r5], -r5, lsl #12
    3e94:	06060000 	streq	r0, [r6], -r0
    3e98:	00000cee 	andeq	r0, r0, lr, ror #25
    3e9c:	18bb0607 	ldmne	fp!, {r0, r1, r2, r9, sl}
    3ea0:	06080000 	streq	r0, [r8], -r0
    3ea4:	0000122e 	andeq	r1, r0, lr, lsr #4
    3ea8:	0d460609 	stcleq	6, cr0, [r6, #-36]	; 0xffffffdc
    3eac:	060a0000 	streq	r0, [sl], -r0
    3eb0:	000017cc 	andeq	r1, r0, ip, asr #15
    3eb4:	108c060b 	addne	r0, ip, fp, lsl #12
    3eb8:	060c0000 	streq	r0, [ip], -r0
    3ebc:	00000ad0 	ldrdeq	r0, [r0], -r0	; <UNPREDICTABLE>
    3ec0:	1418060d 	ldrne	r0, [r8], #-1549	; 0xfffff9f3
    3ec4:	060e0000 	streq	r0, [lr], -r0
    3ec8:	00000cfd 	strdeq	r0, [r0], -sp
    3ecc:	102c060f 	eorne	r0, ip, pc, lsl #12
    3ed0:	06190000 	ldreq	r0, [r9], -r0
    3ed4:	00000fea 	andeq	r0, r0, sl, ror #31
    3ed8:	1112061a 	tstne	r2, sl, lsl r6
    3edc:	061b0000 	ldreq	r0, [fp], -r0
    3ee0:	00000e87 	andeq	r0, r0, r7, lsl #29
    3ee4:	09d8061c 	ldmibeq	r8, {r2, r3, r4, r9, sl}^
    3ee8:	061d0000 	ldreq	r0, [sp], -r0
    3eec:	000009d5 	ldrdeq	r0, [r0], -r5
    3ef0:	0f9f061e 	svceq	0x009f061e
    3ef4:	061f0000 	ldreq	r0, [pc], -r0
    3ef8:	00000fae 	andeq	r0, r0, lr, lsr #31
    3efc:	16000620 	strne	r0, [r0], -r0, lsr #12
    3f00:	06210000 	strteq	r0, [r1], -r0
    3f04:	0000161b 	andeq	r1, r0, fp, lsl r6
    3f08:	10a90622 	adcne	r0, r9, r2, lsr #12
    3f0c:	06230000 	strteq	r0, [r3], -r0
    3f10:	00000ded 	andeq	r0, r0, sp, ror #27
    3f14:	0c9f0624 	ldceq	6, cr0, [pc], {36}	; 0x24
    3f18:	06250000 	strteq	r0, [r5], -r0
    3f1c:	000010b2 	strheq	r1, [r0], -r2
    3f20:	0b3e0626 	bleq	f857c0 <shift+0xf857c0>
    3f24:	06270000 	strteq	r0, [r7], -r0
    3f28:	00000f03 	andeq	r0, r0, r3, lsl #30
    3f2c:	14f30628 	ldrbtne	r0, [r3], #1576	; 0x628
    3f30:	06290000 	strteq	r0, [r9], -r0
    3f34:	00000e10 	andeq	r0, r0, r0, lsl lr
    3f38:	0fdf062a 	svceq	0x00df062a
    3f3c:	062b0000 	strteq	r0, [fp], -r0
    3f40:	00000f6a 	andeq	r0, r0, sl, ror #30
    3f44:	0950062c 	ldmdbeq	r0, {r2, r3, r5, r9, sl}^
    3f48:	062d0000 	strteq	r0, [sp], -r0
    3f4c:	00000e62 	andeq	r0, r0, r2, ror #28
    3f50:	0c4f062e 	mcrreq	6, 2, r0, pc, cr14
    3f54:	062f0000 	strteq	r0, [pc], -r0
    3f58:	00001609 	andeq	r1, r0, r9, lsl #12
    3f5c:	0d210630 	stceq	6, cr0, [r1, #-192]!	; 0xffffff40
    3f60:	06310000 	ldrteq	r0, [r1], -r0
    3f64:	00000942 	andeq	r0, r0, r2, asr #18
    3f68:	0d910632 	ldceq	6, cr0, [r1, #200]	; 0xc8
    3f6c:	06330000 	ldrteq	r0, [r3], -r0
    3f70:	00001478 	andeq	r1, r0, r8, ror r4
    3f74:	11090634 	tstne	r9, r4, lsr r6
    3f78:	06350000 	ldrteq	r0, [r5], -r0
    3f7c:	000010c7 	andeq	r1, r0, r7, asr #1
    3f80:	09210636 	stmdbeq	r1!, {r1, r2, r4, r5, r9, sl}
    3f84:	06370000 	ldrteq	r0, [r7], -r0
    3f88:	0000109c 	muleq	r0, ip, r0
    3f8c:	12f20638 	rscsne	r0, r2, #56, 12	; 0x3800000
    3f90:	06390000 	ldrteq	r0, [r9], -r0
    3f94:	00000d86 	andeq	r0, r0, r6, lsl #27
    3f98:	17dc063a 			; <UNDEFINED> instruction: 0x17dc063a
    3f9c:	063b0000 	ldrteq	r0, [fp], -r0
    3fa0:	00000881 	andeq	r0, r0, r1, lsl #17
    3fa4:	0afe063c 	beq	fff8589c <__bss_end+0x7878422c>
    3fa8:	063d0000 	ldrteq	r0, [sp], -r0
    3fac:	0000146d 	andeq	r1, r0, sp, ror #8
    3fb0:	0fba063e 	svceq	0x00ba063e
    3fb4:	063f0000 	ldrteq	r0, [pc], -r0
    3fb8:	000009ec 	andeq	r0, r0, ip, ror #19
    3fbc:	ff0600c0 			; <UNDEFINED> instruction: 0xff0600c0
    3fc0:	c1000012 	tstgt	r0, r2, lsl r0
    3fc4:	0c770600 	ldcleq	6, cr0, [r7], #-0
    3fc8:	00c20000 	sbceq	r0, r2, r0
    3fcc:	000b2306 	andeq	r2, fp, r6, lsl #6
    3fd0:	0600c300 	streq	ip, [r0], -r0, lsl #6
    3fd4:	00000ae0 	andeq	r0, r0, r0, ror #21
    3fd8:	e50600c4 	str	r0, [r6, #-196]	; 0xffffff3c
    3fdc:	c500000e 	strgt	r0, [r0, #-14]
    3fe0:	0d0d0600 	stceq	6, cr0, [sp, #-0]
    3fe4:	00c60000 	sbceq	r0, r6, r0
    3fe8:	0018fd06 	andseq	pc, r8, r6, lsl #26
    3fec:	0600c700 	streq	ip, [r0], -r0, lsl #14
    3ff0:	00001247 	andeq	r1, r0, r7, asr #4
    3ff4:	440600c8 	strmi	r0, [r6], #-200	; 0xffffff38
    3ff8:	c9000010 	stmdbgt	r0, {r4}
    3ffc:	12590600 	subsne	r0, r9, #0, 12
    4000:	00ca0000 	sbceq	r0, sl, r0
    4004:	00097106 	andeq	r7, r9, r6, lsl #2
    4008:	0600cb00 	streq	ip, [r0], -r0, lsl #22
    400c:	00000be3 	andeq	r0, r0, r3, ror #23
    4010:	1a0600cc 	bne	184348 <shift+0x184348>
    4014:	cd000018 	stcgt	0, cr0, [r0, #-96]	; 0xffffffa0
    4018:	088c0600 	stmeq	ip, {r9, sl}
    401c:	00ce0000 	sbceq	r0, lr, r0
    4020:	000bfb06 	andeq	pc, fp, r6, lsl #22
    4024:	0600cf00 	streq	ip, [r0], -r0, lsl #30
    4028:	00000a18 	andeq	r0, r0, r8, lsl sl
    402c:	8f0600d0 	svchi	0x000600d0
    4030:	d100000b 	tstle	r0, fp
    4034:	08cb0600 	stmiaeq	fp, {r9, sl}^
    4038:	00d20000 	sbcseq	r0, r2, r0
    403c:	000ea506 	andeq	sl, lr, r6, lsl #10
    4040:	0600d300 	streq	sp, [r0], -r0, lsl #6
    4044:	0000095a 	andeq	r0, r0, sl, asr r9
    4048:	760600d4 			; <UNDEFINED> instruction: 0x760600d4
    404c:	d500000d 	strle	r0, [r0, #-13]
    4050:	0ce00600 	stcleq	6, cr0, [r0]
    4054:	00d60000 	sbcseq	r0, r6, r0
    4058:	0017ff06 	andseq	pc, r7, r6, lsl #30
    405c:	0600d700 	streq	sp, [r0], -r0, lsl #14
    4060:	000010fe 	strdeq	r1, [r0], -lr
    4064:	180600d8 	stmdane	r6, {r3, r4, r6, r7}
    4068:	d900000b 	stmdble	r0, {r0, r1, r3}
    406c:	10d30600 	sbcsne	r0, r3, r0, lsl #12
    4070:	00da0000 	sbcseq	r0, sl, r0
    4074:	0017bc06 	andseq	fp, r7, r6, lsl #24
    4078:	0600db00 	streq	sp, [r0], -r0, lsl #22
    407c:	00000c8f 	andeq	r0, r0, pc, lsl #25
    4080:	f80600dc 			; <UNDEFINED> instruction: 0xf80600dc
    4084:	dd000009 	stcle	0, cr0, [r0, #-36]	; 0xffffffdc
    4088:	0a080600 	beq	205890 <shift+0x205890>
    408c:	00de0000 	sbcseq	r0, lr, r0
    4090:	000fcf06 	andeq	ip, pc, r6, lsl #30
    4094:	0600df00 	streq	sp, [r0], -r0, lsl #30
    4098:	00001861 	andeq	r1, r0, r1, ror #16
    409c:	aa0600e0 	bge	184424 <shift+0x184424>
    40a0:	e100000c 	tst	r0, ip
    40a4:	0a6b0600 	beq	1ac58ac <shift+0x1ac58ac>
    40a8:	00e20000 	rsceq	r0, r2, r0
    40ac:	000aa706 	andeq	sl, sl, r6, lsl #14
    40b0:	0600e300 	streq	lr, [r0], -r0, lsl #6
    40b4:	00001740 	andeq	r1, r0, r0, asr #14
    40b8:	e60600e4 	str	r0, [r6], -r4, ror #1
    40bc:	e5000015 	str	r0, [r0, #-21]	; 0xffffffeb
    40c0:	0b9c0600 	bleq	fe7058c8 <__bss_end+0x76f04258>
    40c4:	00e60000 	rsceq	r0, r6, r0
    40c8:	000b5906 	andeq	r5, fp, r6, lsl #18
    40cc:	0600e700 	streq	lr, [r0], -r0, lsl #14
    40d0:	0000119f 	muleq	r0, pc, r1	; <UNPREDICTABLE>
    40d4:	fd0600e8 	stc2	0, cr0, [r6, #-928]	; 0xfffffc60
    40d8:	e9000008 	stmdb	r0, {r3}
    40dc:	18400600 	stmdane	r0, {r9, sl}^
    40e0:	00ea0000 	rsceq	r0, sl, r0
    40e4:	00142806 	andseq	r2, r4, r6, lsl #16
    40e8:	0600eb00 	streq	lr, [r0], -r0, lsl #22
    40ec:	0000099f 	muleq	r0, pc, r9	; <UNPREDICTABLE>
    40f0:	920600ec 	andls	r0, r6, #236	; 0xec
    40f4:	ed000012 	stc	0, cr0, [r0, #-72]	; 0xffffffb8
    40f8:	16830600 	strne	r0, [r3], r0, lsl #12
    40fc:	00ee0000 	rsceq	r0, lr, r0
    4100:	000e6c06 	andeq	r6, lr, r6, lsl #24
    4104:	0600ef00 	streq	lr, [r0], -r0, lsl #30
    4108:	00000cba 			; <UNDEFINED> instruction: 0x00000cba
    410c:	710600f0 	strdvc	r0, [r6, -r0]
    4110:	f1000018 	cps	#24
    4114:	15950600 	ldrne	r0, [r5, #1536]	; 0x600
    4118:	00f20000 	rscseq	r0, r2, r0
    411c:	00093806 	andeq	r3, r9, r6, lsl #16
    4120:	0600f300 	streq	pc, [r0], -r0, lsl #6
    4124:	0000148b 	andeq	r1, r0, fp, lsl #9
    4128:	170600f4 			; <UNDEFINED> instruction: 0x170600f4
    412c:	f500000d 			; <UNDEFINED> instruction: 0xf500000d
    4130:	18d10600 	ldmne	r1, {r9, sl}^
    4134:	00f60000 	rscseq	r0, r6, r0
    4138:	00164f06 	andseq	r4, r6, r6, lsl #30
    413c:	0600f700 	streq	pc, [r0], -r0, lsl #14
    4140:	00000f11 	andeq	r0, r0, r1, lsl pc
    4144:	3b0600f8 	blcc	18452c <shift+0x18452c>
    4148:	f900000e 			; <UNDEFINED> instruction: 0xf900000e
    414c:	101b0600 	andsne	r0, fp, r0, lsl #12
    4150:	00fa0000 	rscseq	r0, sl, r0
    4154:	0008cc06 	andeq	ip, r8, r6, lsl #24
    4158:	0600fb00 	streq	pc, [r0], -r0, lsl #22
    415c:	000015d5 	ldrdeq	r1, [r0], -r5
    4160:	2d0600fc 	stccs	0, cr0, [r6, #-1008]	; 0xfffffc10
    4164:	fd00000b 	stc2	0, cr0, [r0, #-44]	; 0xffffffd4
    4168:	0df70600 	ldcleq	6, cr0, [r7]
    416c:	00fe0000 	rscseq	r0, lr, r0
    4170:	00169406 	andseq	r9, r6, r6, lsl #8
    4174:	0600ff00 	streq	pc, [r0], -r0, lsl #30
    4178:	000011f2 	strdeq	r1, [r0], -r2
    417c:	d8060180 	stmdale	r6, {r7, r8}
    4180:	81000016 	tsthi	r0, r6, lsl r0
    4184:	0f840601 	svceq	0x00840601
    4188:	01820000 	orreq	r0, r2, r0
    418c:	0010e306 	andseq	lr, r0, r6, lsl #6
    4190:	06018300 	streq	r8, [r1], -r0, lsl #6
    4194:	00000e58 	andeq	r0, r0, r8, asr lr
    4198:	2a060184 	bcs	1847b0 <shift+0x1847b0>
    419c:	85000013 	strhi	r0, [r0, #-19]	; 0xffffffed
    41a0:	0d650601 	stcleq	6, cr0, [r5, #-4]!
    41a4:	01860000 	orreq	r0, r6, r0
    41a8:	000a9606 	andeq	r9, sl, r6, lsl #12
    41ac:	06018700 	streq	r8, [r1], -r0, lsl #14
    41b0:	00000e4f 	andeq	r0, r0, pc, asr #28
    41b4:	d5060188 	strle	r0, [r6, #-392]	; 0xfffffe78
    41b8:	89000008 	stmdbhi	r0, {r3}
    41bc:	136e0601 	cmnne	lr, #1048576	; 0x100000
    41c0:	018a0000 	orreq	r0, sl, r0
    41c4:	000bb506 	andeq	fp, fp, r6, lsl #10
    41c8:	06018b00 	streq	r8, [r1], -r0, lsl #22
    41cc:	00000eda 	ldrdeq	r0, [r0], -sl
    41d0:	f406018c 	vst4.32	{d0,d2,d4,d6}, [r6], ip
    41d4:	8d000010 	stchi	0, cr0, [r0, #-64]	; 0xffffffc0
    41d8:	09170601 	ldmdbeq	r7, {r0, r9, sl}
    41dc:	018e0000 	orreq	r0, lr, r0
    41e0:	00163406 	andseq	r3, r6, r6, lsl #8
    41e4:	06018f00 	streq	r8, [r1], -r0, lsl #30
    41e8:	00001809 	andeq	r1, r0, r9, lsl #16
    41ec:	1f060190 	svcne	0x00060190
    41f0:	9100000f 	tstls	r0, pc
    41f4:	123d0601 	eorsne	r0, sp, #1048576	; 0x100000
    41f8:	01920000 	orrseq	r0, r2, r0
    41fc:	000a4f06 	andeq	r4, sl, r6, lsl #30
    4200:	06019300 	streq	r9, [r1], -r0, lsl #6
    4204:	000015cb 	andeq	r1, r0, fp, asr #11
    4208:	7d060194 	stfvcs	f0, [r6, #-592]	; 0xfffffdb0
    420c:	9500000e 	strls	r0, [r0, #-14]
    4210:	16f40601 	ldrbtne	r0, [r4], r1, lsl #12
    4214:	01960000 	orrseq	r0, r6, r0
    4218:	00106d06 	andseq	r6, r0, r6, lsl #26
    421c:	06019700 	streq	r9, [r1], -r0, lsl #14
    4220:	000010bc 	strheq	r1, [r0], -ip
    4224:	dd060198 	stfles	f0, [r6, #-608]	; 0xfffffda0
    4228:	9900000d 	stmdbls	r0, {r0, r2, r3}
    422c:	0dcc0601 	stcleq	6, cr0, [ip, #4]
    4230:	019a0000 	orrseq	r0, sl, r0
    4234:	00192b06 	andseq	r2, r9, r6, lsl #22
    4238:	06019b00 	streq	r9, [r1], -r0, lsl #22
    423c:	000012bd 			; <UNDEFINED> instruction: 0x000012bd
    4240:	6006019c 	mulvs	r6, ip, r1
    4244:	9d00000c 	stcls	0, cr0, [r0, #-48]	; 0xffffffd0
    4248:	16a90601 	strtne	r0, [r9], r1, lsl #12
    424c:	019e0000 	orrseq	r0, lr, r0
    4250:	0018ad06 	andseq	sl, r8, r6, lsl #26
    4254:	00019f00 	andeq	r9, r1, r0, lsl #30
    4258:	000cc504 	andeq	ip, ip, r4, lsl #10
    425c:	68b60500 	ldmvs	r6!, {r8, sl}
    4260:	02000000 	andeq	r0, r0, #0
    4264:	01690704 	cmneq	r9, r4, lsl #14
    4268:	4f070000 	svcmi	0x00070000
    426c:	08000000 	stmdaeq	r0, {}	; <UNPREDICTABLE>
    4270:	319f0514 	orrscc	r0, pc, r4, lsl r5	; <UNPREDICTABLE>
    4274:	000004c5 	andeq	r0, r0, r5, asr #9
    4278:	00524309 	subseq	r4, r2, r9, lsl #6
    427c:	7831a005 	ldmdavc	r1!, {r0, r2, sp, pc}
    4280:	00000004 	andeq	r0, r0, r4
    4284:	00525309 	subseq	r5, r2, r9, lsl #6
    4288:	7831a105 	ldmdavc	r1!, {r0, r2, r8, sp, pc}
    428c:	04000004 	streq	r0, [r0], #-4
    4290:	00524c09 	subseq	r4, r2, r9, lsl #24
    4294:	7831a205 	ldmdavc	r1!, {r0, r2, r9, sp, pc}
    4298:	08000004 	stmdaeq	r0, {r2}
    429c:	0019bf0a 	andseq	fp, r9, sl, lsl #30
    42a0:	31a30500 			; <UNDEFINED> instruction: 0x31a30500
    42a4:	00000478 	andeq	r0, r0, r8, ror r4
    42a8:	4e43090c 	vmlami.f16	s1, s6, s24	; <UNPREDICTABLE>
    42ac:	a4050052 	strge	r0, [r5], #-82	; 0xffffffae
    42b0:	00047831 	andeq	r7, r4, r1, lsr r8
    42b4:	0b001000 	bleq	82bc <shift+0x82bc>
    42b8:	00001992 	muleq	r0, r2, r9
    42bc:	7d31a505 	cfldr32vc	mvfx10, [r1, #-20]!	; 0xffffffec
    42c0:	08000004 	stmdaeq	r0, {r2}
    42c4:	34800520 	strcc	r0, [r0], #1312	; 0x520
    42c8:	00000542 	andeq	r0, r0, r2, asr #10
    42cc:	00524409 	subseq	r4, r2, r9, lsl #8
    42d0:	78348105 	ldmdavc	r4!, {r0, r2, r8, pc}
    42d4:	00000004 	andeq	r0, r0, r4
    42d8:	00058c0a 	andeq	r8, r5, sl, lsl #24
    42dc:	34820500 	strcc	r0, [r2], #1280	; 0x500
    42e0:	00000478 	andeq	r0, r0, r8, ror r4
    42e4:	53500904 	cmppl	r0, #4, 18	; 0x10000
    42e8:	83050052 	movwhi	r0, #20562	; 0x5052
    42ec:	00047834 	andeq	r7, r4, r4, lsr r8
    42f0:	100a0800 	andne	r0, sl, r0, lsl #16
    42f4:	05000006 	streq	r0, [r0, #-6]
    42f8:	04783484 	ldrbteq	r3, [r8], #-1156	; 0xfffffb7c
    42fc:	0a0c0000 	beq	304304 <shift+0x304304>
    4300:	00000615 	andeq	r0, r0, r5, lsl r6
    4304:	78348505 	ldmdavc	r4!, {r0, r2, r8, sl, pc}
    4308:	10000004 	andne	r0, r0, r4
    430c:	524d4909 	subpl	r4, sp, #147456	; 0x24000
    4310:	34860500 	strcc	r0, [r6], #1280	; 0x500
    4314:	00000478 	andeq	r0, r0, r8, ror r4
    4318:	53490914 	movtpl	r0, #39188	; 0x9914
    431c:	87050052 	smlsdhi	r5, r2, r0, r0
    4320:	00047834 	andeq	r7, r4, r4, lsr r8
    4324:	070a1800 	streq	r1, [sl, -r0, lsl #16]
    4328:	05000006 	streq	r0, [r0, #-6]
    432c:	04783488 	ldrbteq	r3, [r8], #-1160	; 0xfffffb78
    4330:	001c0000 	andseq	r0, ip, r0
    4334:	0005ce0b 	andeq	ip, r5, fp, lsl #28
    4338:	34890500 	strcc	r0, [r9], #1280	; 0x500
    433c:	000004d1 	ldrdeq	r0, [r0], -r1
    4340:	d6070402 	strle	r0, [r7], -r2, lsl #8
    4344:	04000000 	streq	r0, [r0], #-0
    4348:	000006fb 	strdeq	r0, [r0], -fp
    434c:	00412606 	subeq	r2, r1, r6, lsl #12
    4350:	3c040000 	stccc	0, cr0, [r4], {-0}
    4354:	06000019 			; <UNDEFINED> instruction: 0x06000019
    4358:	00003329 	andeq	r3, r0, r9, lsr #6
    435c:	05380400 	ldreq	r0, [r8, #-1024]!	; 0xfffffc00
    4360:	2a060000 	bcs	184368 <shift+0x184368>
    4364:	0000005a 	andeq	r0, r0, sl, asr r0
    4368:	05050402 	streq	r0, [r5, #-1026]	; 0xfffffbfe
    436c:	0c000000 	stceq	0, cr0, [r0], {-0}
    4370:	08010204 	stmdaeq	r1, {r2, r9}
    4374:	000000f1 	strdeq	r0, [r0], -r1
    4378:	0330040d 	teqeq	r0, #218103808	; 0xd000000
    437c:	09100211 	ldmdbeq	r0, {r0, r4, r9}
    4380:	820a0000 	andhi	r0, sl, #0
    4384:	03000013 	movweq	r0, #19
    4388:	09100213 	ldmdbeq	r0, {r0, r1, r4, r9}
    438c:	0e000000 	cdpeq	0, 0, cr0, cr0, cr0, {0}
    4390:	00001908 	andeq	r1, r0, r8, lsl #18
    4394:	21021403 	tstcs	r2, r3, lsl #8
    4398:	00000009 	andeq	r0, r0, r9
    439c:	0d2c0e10 	stceq	14, cr0, [ip, #-64]!	; 0xffffffc0
    43a0:	15030000 	strne	r0, [r3, #-0]
    43a4:	00092602 	andeq	r2, r9, r2, lsl #12
    43a8:	0e100400 	cfmulseq	mvf0, mvf0, mvf0
    43ac:	00000b73 	andeq	r0, r0, r3, ror fp
    43b0:	26021603 	strcs	r1, [r2], -r3, lsl #12
    43b4:	08000009 	stmdaeq	r0, {r0, r3}
    43b8:	138c0e10 	orrne	r0, ip, #16, 28	; 0x100
    43bc:	17030000 	strne	r0, [r3, -r0]
    43c0:	00092b02 	andeq	r2, r9, r2, lsl #22
    43c4:	0e100c00 	cdpeq	12, 1, cr0, cr0, cr0, {0}
    43c8:	0000152a 	andeq	r1, r0, sl, lsr #10
    43cc:	4b021803 	blmi	8a3e0 <shift+0x8a3e0>
    43d0:	80000009 	andhi	r0, r0, r9
    43d4:	0bf10e10 	bleq	ffc47c1c <__bss_end+0x784465ac>
    43d8:	19030000 	stmdbne	r3, {}	; <UNPREDICTABLE>
    43dc:	00093b02 	andeq	r3, r9, r2, lsl #22
    43e0:	0e10c000 	cdpeq	0, 1, cr12, cr0, cr0, {0}
    43e4:	00001146 	andeq	r1, r0, r6, asr #2
    43e8:	50021a03 	andpl	r1, r2, r3, lsl #20
    43ec:	00000009 	andeq	r0, r0, r9
    43f0:	13a50e11 			; <UNDEFINED> instruction: 0x13a50e11
    43f4:	1b030000 	blne	c43fc <shift+0xc43fc>
    43f8:	00093b02 	andeq	r3, r9, r2, lsl #22
    43fc:	0e114000 	cdpeq	0, 1, cr4, cr1, cr0, {0}
    4400:	000015b5 			; <UNDEFINED> instruction: 0x000015b5
    4404:	55021c03 	strpl	r1, [r2, #-3075]	; 0xfffff3fd
    4408:	80000009 	andhi	r0, r0, r9
    440c:	13af0e11 			; <UNDEFINED> instruction: 0x13af0e11
    4410:	1d030000 	stcne	0, cr0, [r3, #-0]
    4414:	00093b02 	andeq	r3, r9, r2, lsl #22
    4418:	0e11c000 	cdpeq	0, 1, cr12, cr1, cr0, {0}
    441c:	00000f7a 	andeq	r0, r0, sl, ror pc
    4420:	5a021e03 	bpl	8bc34 <shift+0x8bc34>
    4424:	00000009 	andeq	r0, r0, r9
    4428:	13b90e12 			; <UNDEFINED> instruction: 0x13b90e12
    442c:	1f030000 	svcne	0x00030000
    4430:	00093b02 	andeq	r3, r9, r2, lsl #22
    4434:	0e124000 	cdpeq	0, 1, cr4, cr2, cr0, {0}
    4438:	000015c1 	andeq	r1, r0, r1, asr #11
    443c:	5f022003 	svcpl	0x00022003
    4440:	80000009 	andhi	r0, r0, r9
    4444:	0c0c0e12 	stceq	14, cr0, [ip], {18}
    4448:	21030000 	mrscs	r0, (UNDEF: 3)
    444c:	00093b02 	andeq	r3, r9, r2, lsl #22
    4450:	0e12c000 	cdpeq	0, 1, cr12, cr2, cr0, {0}
    4454:	00000965 	andeq	r0, r0, r5, ror #18
    4458:	64022203 	strvs	r2, [r2], #-515	; 0xfffffdfd
    445c:	00000009 	andeq	r0, r0, r9
    4460:	13d70e13 	bicsne	r0, r7, #304	; 0x130
    4464:	23030000 	movwcs	r0, #12288	; 0x3000
    4468:	00093b02 	andeq	r3, r9, r2, lsl #22
    446c:	0e134000 	cdpeq	0, 1, cr4, cr3, cr0, {0}
    4470:	00000c83 	andeq	r0, r0, r3, lsl #25
    4474:	69022403 	stmdbvs	r2, {r0, r1, sl, sp}
    4478:	80000009 	andhi	r0, r0, r9
    447c:	0c160e13 	ldceq	14, cr0, [r6], {19}
    4480:	25030000 	strcs	r0, [r3, #-0]
    4484:	00093b02 	andeq	r3, r9, r2, lsl #22
    4488:	0e13c000 	cdpeq	0, 1, cr12, cr3, cr0, {0}
    448c:	0000187c 	andeq	r1, r0, ip, ror r8
    4490:	7f022603 	svcvc	0x00022603
    4494:	00000009 	andeq	r0, r0, r9
    4498:	13e90e14 	mvnne	r0, #20, 28	; 0x140
    449c:	27030000 	strcs	r0, [r3, -r0]
    44a0:	00098402 	andeq	r8, r9, r2, lsl #8
    44a4:	0e160000 	cdpeq	0, 1, cr0, cr6, cr0, {0}
    44a8:	00001728 	andeq	r1, r0, r8, lsr #14
    44ac:	94022803 	strls	r2, [r2], #-2051	; 0xfffff7fd
    44b0:	00000009 	andeq	r0, r0, r9
    44b4:	17590e18 	smmlane	r9, r8, lr, r0
    44b8:	29030000 	stmdbcs	r3, {}	; <UNPREDICTABLE>
    44bc:	00098402 	andeq	r8, r9, r2, lsl #8
    44c0:	0e1a0000 	cdpeq	0, 1, cr0, cr10, cr0, {0}
    44c4:	000012ce 	andeq	r1, r0, lr, asr #5
    44c8:	a9022a03 	stmdbge	r2, {r0, r1, r9, fp, sp}
    44cc:	00000009 	andeq	r0, r0, r9
    44d0:	17640e1c 			; <UNDEFINED> instruction: 0x17640e1c
    44d4:	2b030000 	blcs	c44dc <shift+0xc44dc>
    44d8:	00099902 	andeq	r9, r9, r2, lsl #18
    44dc:	0e1c8000 	cdpeq	0, 1, cr8, cr12, cr0, {0}
    44e0:	000013e1 	andeq	r1, r0, r1, ror #7
    44e4:	26022c03 	strcs	r2, [r2], -r3, lsl #24
    44e8:	00000009 	andeq	r0, r0, r9
    44ec:	12a30e1d 	adcne	r0, r3, #464	; 0x1d0
    44f0:	2d030000 	stccs	0, cr0, [r3, #-0]
    44f4:	0009be02 	andeq	fp, r9, r2, lsl #28
    44f8:	0e1d0400 	cfmulseq	mvf0, mvf13, mvf0
    44fc:	0000176f 	andeq	r1, r0, pc, ror #14
    4500:	c8022e03 	stmdagt	r2, {r0, r1, r9, sl, fp, sp}
    4504:	40000009 	andmi	r0, r0, r9
    4508:	10660e1d 	rsbne	r0, r6, sp, lsl lr
    450c:	2f030000 	svccs	0x00030000
    4510:	00092102 	andeq	r2, r9, r2, lsl #2
    4514:	0e1f0000 	cdpeq	0, 1, cr0, cr15, cr0, {0}
    4518:	0000177a 	andeq	r1, r0, sl, ror r7
    451c:	d8023003 	stmdale	r2, {r0, r1, ip, sp}
    4520:	04000009 	streq	r0, [r0], #-9
    4524:	17340e1f 			; <UNDEFINED> instruction: 0x17340e1f
    4528:	31030000 	mrscc	r0, (UNDEF: 3)
    452c:	0009f802 	andeq	pc, r9, r2, lsl #16
    4530:	0e1f1000 	cdpeq	0, 1, cr1, cr15, cr0, {0}
    4534:	00000f5e 	andeq	r0, r0, lr, asr pc
    4538:	fd023203 	stc2	2, cr3, [r2, #-12]
    453c:	20000009 	andcs	r0, r0, r9
    4540:	17850e1f 	usada8ne	r5, pc, lr, r0	; <UNPREDICTABLE>
    4544:	33030000 	movwcc	r0, #12288	; 0x3000
    4548:	000a0202 	andeq	r0, sl, r2, lsl #4
    454c:	0e1f3000 	cdpeq	0, 1, cr3, cr15, cr0, {0}
    4550:	00001172 	andeq	r1, r0, r2, ror r1
    4554:	26023403 	strcs	r3, [r2], -r3, lsl #8
    4558:	d0000009 	andle	r0, r0, r9
    455c:	117a0e1f 	cmnne	sl, pc, lsl lr
    4560:	35030000 	strcc	r0, [r3, #-0]
    4564:	00092602 	andeq	r2, r9, r2, lsl #12
    4568:	0e1fd400 	cfmulseq	mvf13, mvf15, mvf0
    456c:	00001182 	andeq	r1, r0, r2, lsl #3
    4570:	26023603 	strcs	r3, [r2], -r3, lsl #12
    4574:	d8000009 	stmdale	r0, {r0, r3}
    4578:	118a0e1f 	orrne	r0, sl, pc, lsl lr
    457c:	37030000 	strcc	r0, [r3, -r0]
    4580:	00092602 	andeq	r2, r9, r2, lsl #12
    4584:	0e1fdc00 	cdpeq	12, 1, cr13, cr15, cr0, {0}
    4588:	00001152 	andeq	r1, r0, r2, asr r1
    458c:	26023803 	strcs	r3, [r2], -r3, lsl #16
    4590:	e0000009 	and	r0, r0, r9
    4594:	115a0e1f 	cmpne	sl, pc, lsl lr
    4598:	39030000 	stmdbcc	r3, {}	; <UNPREDICTABLE>
    459c:	00092602 	andeq	r2, r9, r2, lsl #12
    45a0:	0e1fe400 	cfmulseq	mvf14, mvf15, mvf0
    45a4:	00001162 	andeq	r1, r0, r2, ror #2
    45a8:	26023a03 	strcs	r3, [r2], -r3, lsl #20
    45ac:	e8000009 	stmda	r0, {r0, r3}
    45b0:	116a0e1f 	cmnne	sl, pc, lsl lr
    45b4:	3b030000 	blcc	c45bc <shift+0xc45bc>
    45b8:	00092602 	andeq	r2, r9, r2, lsl #12
    45bc:	0e1fec00 	cdpeq	12, 1, cr14, cr15, cr0, {0}
    45c0:	0000097f 	andeq	r0, r0, pc, ror r9
    45c4:	26023c03 	strcs	r3, [r2], -r3, lsl #24
    45c8:	f0000009 			; <UNDEFINED> instruction: 0xf0000009
    45cc:	09870e1f 	stmibeq	r7, {r0, r1, r2, r3, r4, r9, sl, fp}
    45d0:	3d030000 	stccc	0, cr0, [r3, #-0]
    45d4:	00092602 	andeq	r2, r9, r2, lsl #12
    45d8:	0e1ff400 	cfmulseq	mvf15, mvf15, mvf0
    45dc:	0000098f 	andeq	r0, r0, pc, lsl #19
    45e0:	26023e03 	strcs	r3, [r2], -r3, lsl #28
    45e4:	f8000009 			; <UNDEFINED> instruction: 0xf8000009
    45e8:	09970e1f 	ldmibeq	r7, {r0, r1, r2, r3, r4, r9, sl, fp}
    45ec:	3f030000 	svccc	0x00030000
    45f0:	00092602 	andeq	r2, r9, r2, lsl #12
    45f4:	0e1ffc00 	cdpeq	12, 1, cr15, cr15, cr0, {0}
    45f8:	00001924 	andeq	r1, r0, r4, lsr #18
    45fc:	21024103 	tstcs	r2, r3, lsl #2
    4600:	00000009 	andeq	r0, r0, r9
    4604:	0c710e20 	ldcleq	14, cr0, [r1], #-128	; 0xffffff80
    4608:	42030000 	andmi	r0, r3, #0
    460c:	00092102 	andeq	r2, r9, r2, lsl #2
    4610:	0e200400 	cdpeq	4, 2, cr0, cr0, cr0, {0}
    4614:	00001828 	andeq	r1, r0, r8, lsr #16
    4618:	21024303 	tstcs	r2, r3, lsl #6
    461c:	08000009 	stmdaeq	r0, {r0, r3}
    4620:	14b50e20 	ldrtne	r0, [r5], #3616	; 0xe20
    4624:	44030000 	strmi	r0, [r3], #-0
    4628:	00092602 	andeq	r2, r9, r2, lsl #12
    462c:	0e200c00 	cdpeq	12, 2, cr0, cr0, cr0, {0}
    4630:	000018f6 	strdeq	r1, [r0], -r6
    4634:	21024503 	tstcs	r2, r3, lsl #10
    4638:	10000009 	andne	r0, r0, r9
    463c:	0c490e20 	mcrreq	14, 2, r0, r9, cr0
    4640:	46030000 	strmi	r0, [r3], -r0
    4644:	00092602 	andeq	r2, r9, r2, lsl #12
    4648:	0e201400 	cdpeq	4, 2, cr1, cr0, cr0, {0}
    464c:	000008c3 	andeq	r0, r0, r3, asr #17
    4650:	26024703 	strcs	r4, [r2], -r3, lsl #14
    4654:	18000009 	stmdane	r0, {r0, r3}
    4658:	18ca0e20 	stmiane	sl, {r5, r9, sl, fp}^
    465c:	48030000 	stmdami	r3, {}	; <UNPREDICTABLE>
    4660:	00092102 	andeq	r2, r9, r2, lsl #2
    4664:	0e201c00 	cdpeq	12, 2, cr1, cr0, cr0, {0}
    4668:	00001568 	andeq	r1, r0, r8, ror #10
    466c:	26024903 	strcs	r4, [r2], -r3, lsl #18
    4670:	20000009 	andcs	r0, r0, r9
    4674:	14bb0e20 	ldrtne	r0, [fp], #3616	; 0xe20
    4678:	4a030000 	bmi	c4680 <shift+0xc4680>
    467c:	00092102 	andeq	r2, r9, r2, lsl #2
    4680:	0e202400 	cdpeq	4, 2, cr2, cr0, cr0, {0}
    4684:	00000fc6 	andeq	r0, r0, r6, asr #31
    4688:	26024b03 	strcs	r4, [r2], -r3, lsl #22
    468c:	28000009 	stmdacs	r0, {r0, r3}
    4690:	17900e20 	ldrne	r0, [r0, r0, lsr #28]
    4694:	4c030000 	stcmi	0, cr0, [r3], {-0}
    4698:	000a1202 	andeq	r1, sl, r2, lsl #4
    469c:	0e202c00 	cdpeq	12, 2, cr2, cr0, cr0, {0}
    46a0:	00001252 	andeq	r1, r0, r2, asr r2
    46a4:	21024d03 	tstcs	r2, r3, lsl #26
    46a8:	d0000009 	andle	r0, r0, r9
    46ac:	179b0e20 	ldrne	r0, [fp, r0, lsr #28]
    46b0:	4e030000 	cdpmi	0, 0, cr0, cr3, cr0, {0}
    46b4:	0009d802 	andeq	sp, r9, r2, lsl #16
    46b8:	0e20d400 	cdpeq	4, 2, cr13, cr0, cr0, {0}
    46bc:	000014d4 	ldrdeq	r1, [r0], -r4
    46c0:	21024f03 	tstcs	r2, r3, lsl #30
    46c4:	e0000009 	and	r0, r0, r9
    46c8:	17a60e20 	strne	r0, [r6, r0, lsr #28]!
    46cc:	50030000 	andpl	r0, r3, r0
    46d0:	000a2202 	andeq	r2, sl, r2, lsl #4
    46d4:	0e20e400 	cdpeq	4, 2, cr14, cr0, cr0, {0}
    46d8:	00001192 	muleq	r0, r2, r1
    46dc:	26025103 	strcs	r5, [r2], -r3, lsl #2
    46e0:	fc000009 	stc2	0, cr0, [r0], {9}
    46e4:	17b10e20 	ldrne	r0, [r1, r0, lsr #28]!
    46e8:	52030000 	andpl	r0, r3, #0
    46ec:	000a3202 	andeq	r3, sl, r2, lsl #4
    46f0:	0e210000 	cdpeq	0, 2, cr0, cr1, cr0, {0}
    46f4:	00000c20 	andeq	r0, r0, r0, lsr #24
    46f8:	21025303 	tstcs	r2, r3, lsl #6
    46fc:	00000009 	andeq	r0, r0, r9
    4700:	6b0f0030 	blvs	3c47c8 <shift+0x3c47c8>
    4704:	21000005 	tstcs	r0, r5
    4708:	10000009 	andne	r0, r0, r9
    470c:	00000471 	andeq	r0, r0, r1, ror r4
    4710:	070003ff 			; <UNDEFINED> instruction: 0x070003ff
    4714:	0000056b 	andeq	r0, r0, fp, ror #10
    4718:	00092111 	andeq	r2, r9, r1, lsl r1
    471c:	056b0f00 	strbeq	r0, [fp, #-3840]!	; 0xfffff100
    4720:	093b0000 	ldmdbeq	fp!, {}	; <UNPREDICTABLE>
    4724:	71120000 	tstvc	r2, r0
    4728:	1c000004 	stcne	0, cr0, [r0], {4}
    472c:	056b0f00 	strbeq	r0, [fp, #-3840]!	; 0xfffff100
    4730:	094b0000 	stmdbeq	fp, {}^	; <UNPREDICTABLE>
    4734:	71120000 	tstvc	r2, r0
    4738:	0f000004 	svceq	0x00000004
    473c:	093b0700 	ldmdbeq	fp!, {r8, r9, sl}
    4740:	3b070000 	blcc	1c4748 <shift+0x1c4748>
    4744:	07000009 	streq	r0, [r0, -r9]
    4748:	0000093b 	andeq	r0, r0, fp, lsr r9
    474c:	00093b07 	andeq	r3, r9, r7, lsl #22
    4750:	093b0700 	ldmdbeq	fp!, {r8, r9, sl}
    4754:	3b070000 	blcc	1c475c <shift+0x1c475c>
    4758:	07000009 	streq	r0, [r0, -r9]
    475c:	0000093b 	andeq	r0, r0, fp, lsr r9
    4760:	0005550f 	andeq	r5, r5, pc, lsl #10
    4764:	00097f00 	andeq	r7, r9, r0, lsl #30
    4768:	04711000 	ldrbteq	r1, [r1], #-0
    476c:	01ff0000 	mvnseq	r0, r0
    4770:	096e0700 	stmdbeq	lr!, {r8, r9, sl}^
    4774:	6b0f0000 	blvs	3c477c <shift+0x3c477c>
    4778:	94000005 	strls	r0, [r0], #-5
    477c:	12000009 	andne	r0, r0, #9
    4780:	00000471 	andeq	r0, r0, r1, ror r4
    4784:	6e07007f 	mcrvs	0, 0, r0, cr7, cr15, {3}
    4788:	0f000009 	svceq	0x00000009
    478c:	0000056b 	andeq	r0, r0, fp, ror #10
    4790:	000009a9 	andeq	r0, r0, r9, lsr #19
    4794:	00047112 	andeq	r7, r4, r2, lsl r1
    4798:	07001f00 	streq	r1, [r0, -r0, lsl #30]
    479c:	00000999 	muleq	r0, r9, r9
    47a0:	00056b0f 	andeq	r6, r5, pc, lsl #22
    47a4:	0009be00 	andeq	fp, r9, r0, lsl #28
    47a8:	04711200 	ldrbteq	r1, [r1], #-512	; 0xfffffe00
    47ac:	000e0000 	andeq	r0, lr, r0
    47b0:	0009c311 	andeq	ip, r9, r1, lsl r3
    47b4:	09ae0700 	stmibeq	lr!, {r8, r9, sl}
    47b8:	6b0f0000 	blvs	3c47c0 <shift+0x3c47c0>
    47bc:	d8000005 	stmdale	r0, {r0, r2}
    47c0:	12000009 	andne	r0, r0, #9
    47c4:	00000471 	andeq	r0, r0, r1, ror r4
    47c8:	6b0f006f 	blvs	3c498c <shift+0x3c498c>
    47cc:	e8000005 	stmda	r0, {r0, r2}
    47d0:	12000009 	andne	r0, r0, #9
    47d4:	00000471 	andeq	r0, r0, r1, ror r4
    47d8:	550f0002 	strpl	r0, [pc, #-2]	; 47de <shift+0x47de>
    47dc:	f8000005 			; <UNDEFINED> instruction: 0xf8000005
    47e0:	12000009 	andne	r0, r0, #9
    47e4:	00000471 	andeq	r0, r0, r1, ror r4
    47e8:	e807000f 	stmda	r7, {r0, r1, r2, r3}
    47ec:	07000009 	streq	r0, [r0, -r9]
    47f0:	000009e8 	andeq	r0, r0, r8, ror #19
    47f4:	00056b0f 	andeq	r6, r5, pc, lsl #22
    47f8:	000a1200 	andeq	r1, sl, r0, lsl #4
    47fc:	04711200 	ldrbteq	r1, [r1], #-512	; 0xfffffe00
    4800:	00270000 	eoreq	r0, r7, r0
    4804:	00056b0f 	andeq	r6, r5, pc, lsl #22
    4808:	000a2200 	andeq	r2, sl, r0, lsl #4
    480c:	04711200 	ldrbteq	r1, [r1], #-512	; 0xfffffe00
    4810:	00280000 	eoreq	r0, r8, r0
    4814:	00056b0f 	andeq	r6, r5, pc, lsl #22
    4818:	000a3200 	andeq	r3, sl, r0, lsl #4
    481c:	04711200 	ldrbteq	r1, [r1], #-512	; 0xfffffe00
    4820:	00050000 	andeq	r0, r5, r0
    4824:	00056b0f 	andeq	r6, r5, pc, lsl #22
    4828:	000a4300 	andeq	r4, sl, r0, lsl #6
    482c:	04711000 	ldrbteq	r1, [r1], #-0
    4830:	03bf0000 			; <UNDEFINED> instruction: 0x03bf0000
    4834:	0e320b00 	vaddeq.f64	d0, d2, d0
    4838:	54030000 	strpl	r0, [r3], #-0
    483c:	00058602 	andeq	r8, r5, r2, lsl #12
    4840:	07041300 	streq	r1, [r4, -r0, lsl #6]
    4844:	000a7c06 	andeq	r7, sl, r6, lsl #24
    4848:	06ce0600 	strbeq	r0, [lr], r0, lsl #12
    484c:	06000000 	streq	r0, [r0], -r0
    4850:	00000775 	andeq	r0, r0, r5, ror r7
    4854:	06720601 	ldrbteq	r0, [r2], -r1, lsl #12
    4858:	06020000 	streq	r0, [r2], -r0
    485c:	000007b8 			; <UNDEFINED> instruction: 0x000007b8
    4860:	065d0603 	ldrbeq	r0, [sp], -r3, lsl #12
    4864:	06040000 	streq	r0, [r4], -r0
    4868:	00000743 	andeq	r0, r0, r3, asr #14
    486c:	1f040005 	svcne	0x00040005
    4870:	07000007 	streq	r0, [r0, -r7]
    4874:	000a4f0d 	andeq	r4, sl, sp, lsl #30
    4878:	07041300 	streq	r1, [r4, -r0, lsl #6]
    487c:	000a9c0f 	andeq	r9, sl, pc, lsl #24
    4880:	06b10600 	ldrteq	r0, [r1], r0, lsl #12
    4884:	06000000 	streq	r0, [r0], -r0
    4888:	000006de 	ldrdeq	r0, [r0], -lr
    488c:	60040001 	andvs	r0, r4, r1
    4890:	07000007 	streq	r0, [r0, -r7]
    4894:	000a8712 	andeq	r8, sl, r2, lsl r7
    4898:	070c1400 	streq	r1, [ip, -r0, lsl #8]
    489c:	000ad414 	andeq	sp, sl, r4, lsl r4
    48a0:	06851500 	streq	r1, [r5], r0, lsl #10
    48a4:	16070000 	strne	r0, [r7], -r0
    48a8:	00000a9c 	muleq	r0, ip, sl
    48ac:	07871500 	streq	r1, [r7, r0, lsl #10]
    48b0:	17070000 	strne	r0, [r7, -r0]
    48b4:	00000555 	andeq	r0, r0, r5, asr r5
    48b8:	07351504 	ldreq	r1, [r5, -r4, lsl #10]!
    48bc:	18070000 	stmdane	r7, {}	; <UNPREDICTABLE>
    48c0:	00000a7c 	andeq	r0, r0, ip, ror sl
    48c4:	d5040008 	strle	r0, [r4, #-8]
    48c8:	07000007 	streq	r0, [r0, -r7]
    48cc:	000aa719 	andeq	sl, sl, r9, lsl r7
    48d0:	16ba0400 	ldrtne	r0, [sl], r0, lsl #8
    48d4:	06080000 	streq	r0, [r8], -r0
    48d8:	00000aea 	andeq	r0, r0, sl, ror #21
    48dc:	0af00416 	beq	ffc0593c <__bss_end+0x784042cc>
    48e0:	00170000 	andseq	r0, r7, r0
    48e4:	1800000b 	stmdane	r0, {r0, r1, r3}
    48e8:	0000005a 	andeq	r0, r0, sl, asr r0
    48ec:	00057d18 	andeq	r7, r5, r8, lsl sp
    48f0:	2d190000 	ldccs	0, cr0, [r9, #-0]
    48f4:	03000009 	movweq	r0, #9
    48f8:	056b0203 	strbeq	r0, [fp, #-515]!	; 0xfffffdfd
    48fc:	20030000 	andcs	r0, r3, r0
    4900:	1a00000b 	bne	4934 <shift+0x4934>
    4904:	00191e1b 	andseq	r1, r9, fp, lsl lr
    4908:	02050300 	andeq	r0, r5, #0, 6
    490c:	0000056b 	andeq	r0, r0, fp, ror #10
    4910:	b21c0000 	andslt	r0, ip, #0
    4914:	02000005 	andeq	r0, r0, #5
    4918:	76030423 	strvc	r0, [r3], -r3, lsr #8
    491c:	1d00000b 	stcne	0, cr0, [r0, #-44]	; 0xffffffd4
    4920:	00000591 	muleq	r0, r1, r5
    4924:	6b042302 	blvs	10d534 <shift+0x10d534>
    4928:	1d000005 	stcne	0, cr0, [r0, #-20]	; 0xffffffec
    492c:	0000056b 	andeq	r0, r0, fp, ror #10
    4930:	6b042402 	blvs	10d940 <shift+0x10d940>
    4934:	1d000005 	stcne	0, cr0, [r0, #-20]	; 0xffffffec
    4938:	00000573 	andeq	r0, r0, r3, ror r5
    493c:	6b042502 	blvs	10dd4c <shift+0x10dd4c>
    4940:	1d000005 	stcne	0, cr0, [r0, #-20]	; 0xffffffec
    4944:	000005c3 	andeq	r0, r0, r3, asr #11
    4948:	6b042602 	blvs	10e158 <shift+0x10e158>
    494c:	1d000005 	stcne	0, cr0, [r0, #-20]	; 0xffffffec
    4950:	000005ec 	andeq	r0, r0, ip, ror #11
    4954:	6b042702 	blvs	10e564 <shift+0x10e564>
    4958:	1d000005 	stcne	0, cr0, [r0, #-20]	; 0xffffffec
    495c:	000005a5 	andeq	r0, r0, r5, lsr #11
    4960:	6b042802 	blvs	10e970 <shift+0x10e970>
    4964:	00000005 	andeq	r0, r0, r5
    4968:	0005d81c 	andeq	sp, r5, ip, lsl r8
    496c:	04410200 	strbeq	r0, [r1], #-512	; 0xfffffe00
    4970:	000bcc03 	andeq	ip, fp, r3, lsl #24
    4974:	05911d00 	ldreq	r1, [r1, #3328]	; 0xd00
    4978:	41020000 	mrsmi	r0, (UNDEF: 2)
    497c:	00056b04 	andeq	r6, r5, r4, lsl #22
    4980:	056b1d00 	strbeq	r1, [fp, #-3328]!	; 0xfffff300
    4984:	42020000 	andmi	r0, r2, #0
    4988:	00056b04 	andeq	r6, r5, r4, lsl #22
    498c:	05731d00 	ldrbeq	r1, [r3, #-3328]!	; 0xfffff300
    4990:	43020000 	movwmi	r0, #8192	; 0x2000
    4994:	00056b04 	andeq	r6, r5, r4, lsl #22
    4998:	05c31d00 	strbeq	r1, [r3, #3328]	; 0xd00
    499c:	44020000 	strmi	r0, [r2], #-0
    49a0:	00056b04 	andeq	r6, r5, r4, lsl #22
    49a4:	05ec1d00 	strbeq	r1, [ip, #3328]!	; 0xd00
    49a8:	45020000 	strmi	r0, [r2, #-0]
    49ac:	00056b04 	andeq	r6, r5, r4, lsl #22
    49b0:	05fb1d00 	ldrbeq	r1, [fp, #3328]!	; 0xd00
    49b4:	46020000 	strmi	r0, [r2], -r0
    49b8:	00056b04 	andeq	r6, r5, r4, lsl #22
    49bc:	611c0000 	tstvs	ip, r0
    49c0:	03000019 	movweq	r0, #25
    49c4:	f2030278 	vqsub.s8	q0, <illegal reg q1.5>, q12
    49c8:	1d00000b 	stcne	0, cr0, [r0, #-44]	; 0xffffffd4
    49cc:	0000168f 	andeq	r1, r0, pc, lsl #13
    49d0:	66027803 	strvs	r7, [r2], -r3, lsl #16
    49d4:	1e000004 	cdpne	0, 0, cr0, cr0, cr4, {0}
    49d8:	00636967 	rsbeq	r6, r3, r7, ror #18
    49dc:	f2027a03 	vpmax.s8	d7, d2, d3
    49e0:	0000000b 	andeq	r0, r0, fp
    49e4:	0a430416 	beq	10c5a44 <shift+0x10c5a44>
    49e8:	d81f0000 	ldmdale	pc, {}	; <UNPREDICTABLE>
    49ec:	01000019 	tsteq	r0, r9, lsl r0
    49f0:	03200132 			; <UNDEFINED> instruction: 0x03200132
    49f4:	0100001a 	tsteq	r0, sl, lsl r0
    49f8:	0c180137 	ldfeqs	f0, [r8], {55}	; 0x37
    49fc:	1d210000 	stcne	0, cr0, [r1, #-0]
    4a00:	01000005 	tsteq	r0, r5
    4a04:	00056b37 	andeq	r6, r5, r7, lsr fp
    4a08:	21200000 			; <UNDEFINED> instruction: 0x21200000
    4a0c:	0100001a 	tsteq	r0, sl, lsl r0
    4a10:	0c300127 	ldfeqs	f0, [r0], #-156	; 0xffffff64
    4a14:	1d210000 	stcne	0, cr0, [r1, #-0]
    4a18:	01000005 	tsteq	r0, r5
    4a1c:	00056b27 	andeq	r6, r5, r7, lsr #22
    4a20:	a4220000 	strtge	r0, [r2], #-0
    4a24:	01000019 	tsteq	r0, r9, lsl r0
    4a28:	8008dc3e 	andhi	sp, r8, lr, lsr ip
    4a2c:	00002a87 	andeq	r2, r0, r7, lsl #21
    4a30:	7c9c0100 	ldfvcs	f0, [ip], {0}
    4a34:	2300000c 	movwcs	r0, #12
    4a38:	0000199c 	muleq	r0, ip, r9
    4a3c:	005a3e01 	subseq	r3, sl, r1, lsl #28
    4a40:	06e10000 	strbteq	r0, [r1], r0
    4a44:	99230000 	stmdbls	r3!, {}	; <UNPREDICTABLE>
    4a48:	01000011 	tsteq	r0, r1, lsl r0
    4a4c:	00057d3e 	andeq	r7, r5, lr, lsr sp
    4a50:	00070200 	andeq	r0, r7, r0, lsl #4
    4a54:	0bf82400 	bleq	ffe0da5c <__bss_end+0x7860c3ec>
    4a58:	08ea0000 	stmiaeq	sl!, {}^	; <UNPREDICTABLE>
    4a5c:	00088780 	andeq	r8, r8, r0, lsl #15
    4a60:	41010000 	mrsmi	r0, (UNDEF: 1)
    4a64:	8008f625 	andhi	pc, r8, r5, lsr #12
    4a68:	000ea987 	andeq	sl, lr, r7, lsl #19
    4a6c:	46260000 	strtmi	r0, [r6], -r0
    4a70:	01000019 	tsteq	r0, r9, lsl r0
    4a74:	8009081e 	andhi	r0, r9, lr, lsl r8
    4a78:	00003487 	andeq	r3, r0, r7, lsl #9
    4a7c:	dc9c0100 	ldfles	f0, [ip], {0}
    4a80:	2300000c 	movwcs	r0, #12
    4a84:	000016cf 	andeq	r1, r0, pc, asr #13
    4a88:	005a1e01 	subseq	r1, sl, r1, lsl #28
    4a8c:	07230000 	streq	r0, [r3, -r0]!
    4a90:	99230000 	stmdbls	r3!, {}	; <UNPREDICTABLE>
    4a94:	01000011 	tsteq	r0, r1, lsl r0
    4a98:	00057d1e 	andeq	r7, r5, lr, lsl sp
    4a9c:	00074400 	andeq	r4, r7, r0, lsl #8
    4aa0:	0c002700 	stceq	7, cr2, [r0], {-0}
    4aa4:	09080000 	stmdbeq	r8, {}	; <UNPREDICTABLE>
    4aa8:	02588780 	subseq	r8, r8, #128, 14	; 0x2000000
    4aac:	21010000 	mrscs	r0, (UNDEF: 1)
    4ab0:	00000ccc 	andeq	r0, r0, ip, asr #25
    4ab4:	000c0c28 	andeq	r0, ip, r8, lsr #24
    4ab8:	14244000 	strtne	r4, [r4], #-0
    4abc:	3c290000 	stccc	0, cr0, [r9], #-0
    4ac0:	b0878009 	addlt	r8, r7, r9
    4ac4:	2a00000e 	bcs	4b04 <shift+0x4b04>
    4ac8:	42015101 	andmi	r5, r1, #1073741824	; 0x40000000
    4acc:	11260000 			; <UNDEFINED> instruction: 0x11260000
    4ad0:	0100001a 	tsteq	r0, sl, lsl r0
    4ad4:	80093c0c 	andhi	r3, r9, ip, lsl #24
    4ad8:	0000a287 	andeq	sl, r0, r7, lsl #5
    4adc:	a99c0100 	ldmibge	ip, {r8}
    4ae0:	2b00000e 	blcs	4b20 <shift+0x4b20>
    4ae4:	00000698 	muleq	r0, r8, r6
    4ae8:	0ad41101 	beq	ff508ef4 <__bss_end+0x77d07884>
    4aec:	91020000 	mrsls	r0, (UNDEF: 2)
    4af0:	0b20275c 	bleq	80e868 <shift+0x80e868>
    4af4:	093e0000 	ldmdbeq	lr!, {}	; <UNPREDICTABLE>
    4af8:	02888780 	addeq	r8, r8, #128, 14	; 0x2000000
    4afc:	0e010000 	cdpeq	0, 0, cr0, cr1, cr0, {0}
    4b00:	00000d3d 	andeq	r0, r0, sp, lsr sp
    4b04:	000b5d28 	andeq	r5, fp, r8, lsr #26
    4b08:	0e031800 	cdpeq	8, 0, cr1, cr3, cr0, {0}
    4b0c:	0b692c02 	bleq	1a4fb1c <shift+0x1a4fb1c>
    4b10:	2c000000 	stccs	0, cr0, [r0], {-0}
    4b14:	00000b51 	andeq	r0, r0, r1, asr fp
    4b18:	0b452c00 	bleq	114fb20 <shift+0x114fb20>
    4b1c:	2c000000 	stccs	0, cr0, [r0], {-0}
    4b20:	00000b39 	andeq	r0, r0, r9, lsr fp
    4b24:	0b2d2805 	bleq	b4eb40 <shift+0xb4eb40>
    4b28:	008c0000 	addeq	r0, ip, r0
    4b2c:	2700020e 	strcs	r0, [r0, -lr, lsl #4]
    4b30:	00000b76 	andeq	r0, r0, r6, ror fp
    4b34:	87800940 	strhi	r0, [r0, r0, asr #18]
    4b38:	000002b0 			; <UNDEFINED> instruction: 0x000002b0
    4b3c:	0d7c0f01 	ldcleq	15, cr0, [ip, #-4]!
    4b40:	83280000 			; <UNDEFINED> instruction: 0x83280000
    4b44:	8c00000b 	stchi	0, cr0, [r0], {11}
    4b48:	2c020e00 	stccs	14, cr0, [r2], {-0}
    4b4c:	00000b8f 	andeq	r0, r0, pc, lsl #23
    4b50:	0b9b2c05 	bleq	fe6cfb6c <__bss_end+0x76ece4fc>
    4b54:	2c000000 	stccs	0, cr0, [r0], {-0}
    4b58:	00000ba7 	andeq	r0, r0, r7, lsr #23
    4b5c:	0bbf2d00 	bleq	fefcff64 <__bss_end+0x777ce8f4>
    4b60:	f0800000 			; <UNDEFINED> instruction: 0xf0800000
    4b64:	000bb328 	andeq	fp, fp, r8, lsr #6
    4b68:	0e031800 	cdpeq	8, 0, cr1, cr3, cr0, {0}
    4b6c:	cc270002 	stcgt	0, cr0, [r7], #-8
    4b70:	7400000b 	strvc	r0, [r0], #-11
    4b74:	d8878009 	stmle	r7, {r0, r3, pc}
    4b78:	01000002 	tsteq	r0, r2
    4b7c:	000dc917 	andeq	ip, sp, r7, lsl r9
    4b80:	0bd92c00 	bleq	ff64fb88 <__bss_end+0x77e4e518>
    4b84:	2e630000 	cdpcs	0, 6, cr0, cr3, cr0, {0}
    4b88:	000002d8 	ldrdeq	r0, [r0], -r8
    4b8c:	000be52f 	andeq	lr, fp, pc, lsr #10
    4b90:	00076500 	andeq	r6, r7, r0, lsl #10
    4b94:	0b003000 	bleq	10b9c <shift+0x10b9c>
    4b98:	09740000 	ldmdbeq	r4!, {}^	; <UNPREDICTABLE>
    4b9c:	00048780 	andeq	r8, r4, r0, lsl #15
    4ba0:	7a030000 	bvc	c4ba8 <shift+0xc4ba8>
    4ba4:	09743102 	ldmdbeq	r4!, {r1, r8, ip, sp}^
    4ba8:	00048780 	andeq	r8, r4, r0, lsl #15
    4bac:	122f0000 	eorne	r0, pc, #0
    4bb0:	7800000b 	stmdavc	r0, {r0, r1, r3}
    4bb4:	00000007 	andeq	r0, r0, r7
    4bb8:	32000000 	andcc	r0, r0, #0
    4bbc:	00000c18 	andeq	r0, r0, r8, lsl ip
    4bc0:	8780099c 			; <UNDEFINED> instruction: 0x8780099c
    4bc4:	0000003e 	andeq	r0, r0, lr, lsr r0
    4bc8:	0e511b01 	vnmlseq.f64	d17, d1, d1
    4bcc:	24280000 	strtcs	r0, [r8], #-0
    4bd0:	4000000c 	andmi	r0, r0, ip
    4bd4:	27001424 	strcs	r1, [r0, -r4, lsr #8]
    4bd8:	00000bcc 	andeq	r0, r0, ip, asr #23
    4bdc:	878009b8 			; <UNDEFINED> instruction: 0x878009b8
    4be0:	000002f8 	strdeq	r0, [r0], -r8
    4be4:	0e322e01 	cdpeq	14, 3, cr2, cr2, cr1, {0}
    4be8:	d92c0000 	stmdble	ip!, {}	; <UNPREDICTABLE>
    4bec:	5800000b 	stmdapl	r0, {r0, r1, r3}
    4bf0:	0002f82e 	andeq	pc, r2, lr, lsr #16
    4bf4:	0be52f00 	bleq	ff9507fc <__bss_end+0x7814f18c>
    4bf8:	078b0000 	streq	r0, [fp, r0]
    4bfc:	00300000 	eorseq	r0, r0, r0
    4c00:	b800000b 	stmdalt	r0, {r0, r1, r3}
    4c04:	04878009 	streq	r8, [r7], #9
    4c08:	03000000 	movweq	r0, #0
    4c0c:	b831027a 	ldmdalt	r1!, {r1, r3, r4, r5, r6, r9}
    4c10:	04878009 	streq	r8, [r7], #9
    4c14:	2f000000 	svccs	0x00000000
    4c18:	00000b12 	andeq	r0, r0, r2, lsl fp
    4c1c:	0000079e 	muleq	r0, lr, r7
    4c20:	00000000 	andeq	r0, r0, r0
    4c24:	8009da33 	andhi	sp, r9, r3, lsr sl
    4c28:	000ecc87 	andeq	ip, lr, r7, lsl #25
    4c2c:	50012a00 	andpl	r2, r1, r0, lsl #20
    4c30:	2a580802 	bcs	1606c40 <shift+0x1606c40>
    4c34:	03055101 	movweq	r5, #20737	; 0x5101
    4c38:	878008dd 			; <UNDEFINED> instruction: 0x878008dd
    4c3c:	0152012a 	cmpeq	r2, sl, lsr #2
    4c40:	34000030 	strcc	r0, [r0], #-48	; 0xffffffd0
    4c44:	87800974 			; <UNDEFINED> instruction: 0x87800974
    4c48:	00000ee7 	andeq	r0, r0, r7, ror #29
    4c4c:	00000e70 	andeq	r0, r0, r0, ror lr
    4c50:	0250012a 	subseq	r0, r0, #-2147483638	; 0x8000000a
    4c54:	012a0075 			; <UNDEFINED> instruction: 0x012a0075
    4c58:	2a420151 	bcs	10851a4 <shift+0x10851a4>
    4c5c:	91025201 	tstls	r2, r1, lsl #4
    4c60:	9434005c 	ldrtls	r0, [r4], #-92	; 0xffffffa4
    4c64:	cc878009 	stcgt	0, cr8, [r7], {9}
    4c68:	9300000e 	movwls	r0, #14
    4c6c:	2a00000e 	bcs	4cac <shift+0x4cac>
    4c70:	08025001 	stmdaeq	r2, {r0, ip, lr}
    4c74:	51012a63 	tstpl	r1, r3, ror #20
    4c78:	09090305 	stmdbeq	r9, {r0, r2, r8, r9}
    4c7c:	012a8780 	smlawbeq	sl, r0, r7, r8
    4c80:	00740252 	rsbseq	r0, r4, r2, asr r2
    4c84:	099c3300 	ldmibeq	ip, {r8, r9, ip, sp}
    4c88:	0f088780 	svceq	0x00088780
    4c8c:	012a0000 			; <UNDEFINED> instruction: 0x012a0000
    4c90:	00750250 	rsbseq	r0, r5, r0, asr r2
    4c94:	0151012a 	cmpeq	r1, sl, lsr #2
    4c98:	35000042 	strcc	r0, [r0, #-66]	; 0xffffffbe
    4c9c:	0000062c 	andeq	r0, r0, ip, lsr #12
    4ca0:	f1360709 			; <UNDEFINED> instruction: 0xf1360709
    4ca4:	07000007 	streq	r0, [r0, -r7]
    4ca8:	000ec620 	andeq	ip, lr, r0, lsr #12
    4cac:	0ec61800 	cdpeq	8, 12, cr1, cr6, cr0, {0}
    4cb0:	6b180000 	blvs	604cb8 <shift+0x604cb8>
    4cb4:	00000005 	andeq	r0, r0, r5
    4cb8:	05420416 	strbeq	r0, [r2, #-1046]	; 0xfffffbea
    4cbc:	db360000 	blle	d84cc4 <shift+0xd84cc4>
    4cc0:	08000018 	stmdaeq	r0, {r3, r4}
    4cc4:	000ee70f 	andeq	lr, lr, pc, lsl #14
    4cc8:	04661800 	strbteq	r1, [r6], #-2048	; 0xfffff800
    4ccc:	df180000 	svcle	0x00180000
    4cd0:	1800000a 	stmdane	r0, {r1, r3}
    4cd4:	0000057d 	andeq	r0, r0, sp, ror r5
    4cd8:	07ae3600 	streq	r3, [lr, r0, lsl #12]!
    4cdc:	1b070000 	blne	1c4ce4 <shift+0x1c4ce4>
    4ce0:	00000f02 	andeq	r0, r0, r2, lsl #30
    4ce4:	000ec618 	andeq	ip, lr, r8, lsl r6
    4ce8:	056b1800 	strbeq	r1, [fp, #-2048]!	; 0xfffff800
    4cec:	02180000 	andseq	r0, r8, #0
    4cf0:	0000000f 	andeq	r0, r0, pc
    4cf4:	0ad40416 	beq	ff505d54 <__bss_end+0x77d046e4>
    4cf8:	10370000 	eorsne	r0, r7, r0
    4cfc:	07000008 	streq	r0, [r0, -r8]
    4d00:	0ec6181e 	mcreq	8, 6, r1, cr6, cr14, {0}
    4d04:	6b180000 	blvs	604d0c <shift+0x604d0c>
    4d08:	00000005 	andeq	r0, r0, r5
    4d0c:	0005f000 	andeq	pc, r5, r0
    4d10:	36000400 	strcc	r0, [r0], -r0, lsl #8
    4d14:	04000012 	streq	r0, [r0], #-18	; 0xffffffee
    4d18:	00003c01 	andeq	r3, r0, r1, lsl #24
    4d1c:	1a400100 	bne	1005124 <shift+0x1005124>
    4d20:	012a0000 			; <UNDEFINED> instruction: 0x012a0000
    4d24:	09e00000 	stmibeq	r0!, {}^	; <UNPREDICTABLE>
    4d28:	02fa8780 	rscseq	r8, sl, #128, 14	; 0x2000000
    4d2c:	0b7f0000 	bleq	1fc4d34 <shift+0x1fc4d34>
    4d30:	04020000 	streq	r0, [r2], #-0
    4d34:	0000db07 	andeq	sp, r0, r7, lsl #22
    4d38:	07080200 	streq	r0, [r8, -r0, lsl #4]
    4d3c:	000000d1 	ldrdeq	r0, [r0], -r1
    4d40:	ea060102 	b	185150 <shift+0x185150>
    4d44:	02000000 	andeq	r0, r0, #0
    4d48:	01010502 	tsteq	r1, r2, lsl #10
    4d4c:	04030000 	streq	r0, [r3], #-0
    4d50:	746e6905 	strbtvc	r6, [lr], #-2309	; 0xfffff6fb
    4d54:	05080200 	streq	r0, [r8, #-512]	; 0xfffffe00
    4d58:	00000000 	andeq	r0, r0, r0
    4d5c:	0006fd04 	andeq	pc, r6, r4, lsl #26
    4d60:	5a0c0300 	bpl	305968 <shift+0x305968>
    4d64:	02000000 	andeq	r0, r0, #0
    4d68:	00e80801 	rsceq	r0, r8, r1, lsl #16
    4d6c:	02020000 	andeq	r0, r2, #0
    4d70:	00011207 	andeq	r1, r1, r7, lsl #4
    4d74:	053a0400 	ldreq	r0, [sl, #-1024]!	; 0xfffffc00
    4d78:	0e030000 	cdpeq	0, 0, cr0, cr3, cr0, {0}
    4d7c:	00000025 	andeq	r0, r0, r5, lsr #32
    4d80:	69070402 	stmdbvs	r7, {r1, sl}
    4d84:	05000001 	streq	r0, [r0, #-1]
    4d88:	00000068 	andeq	r0, r0, r8, rrx
    4d8c:	00004f06 	andeq	r4, r0, r6, lsl #30
    4d90:	00008f00 	andeq	r8, r0, r0, lsl #30
    4d94:	00730700 	rsbseq	r0, r3, r0, lsl #14
    4d98:	003b0000 	eorseq	r0, fp, r0
    4d9c:	8404bc08 	strhi	fp, [r4], #-3080	; 0xfffff3f8
    4da0:	00019092 	muleq	r1, r2, r0
    4da4:	1b420900 	blne	10871ac <shift+0x10871ac>
    4da8:	85040000 	strhi	r0, [r4, #-0]
    4dac:	00007a92 	muleq	r0, r2, sl
    4db0:	e7090000 	str	r0, [r9, -r0]
    4db4:	04000003 	streq	r0, [r0], #-3
    4db8:	007f9286 	rsbseq	r9, pc, r6, lsl #5
    4dbc:	09040000 	stmdbeq	r4, {}	; <UNPREDICTABLE>
    4dc0:	00001ad8 	ldrdeq	r1, [r0], -r8
    4dc4:	7a928704 	bvc	fe4a69dc <__bss_end+0x76ca536c>
    4dc8:	40000000 	andmi	r0, r0, r0
    4dcc:	0003f209 	andeq	pc, r3, r9, lsl #4
    4dd0:	92880400 	addls	r0, r8, #0, 8
    4dd4:	0000007f 	andeq	r0, r0, pc, ror r0
    4dd8:	1a2c0944 	bne	b072f0 <shift+0xb072f0>
    4ddc:	89040000 	stmdbhi	r4, {}	; <UNPREDICTABLE>
    4de0:	00007a92 	muleq	r0, r2, sl
    4de4:	31098000 	mrscc	r8, (UNDEF: 9)
    4de8:	0400001a 	streq	r0, [r0], #-26	; 0xffffffe6
    4dec:	007a928a 	rsbseq	r9, sl, sl, lsl #5
    4df0:	09840000 	stmibeq	r4, {}	; <UNPREDICTABLE>
    4df4:	00001a36 	andeq	r1, r0, r6, lsr sl
    4df8:	7a928b04 	bvc	fe4a7a10 <__bss_end+0x76ca63a0>
    4dfc:	88000000 	stmdahi	r0, {}	; <UNPREDICTABLE>
    4e00:	001a3b09 	andseq	r3, sl, r9, lsl #22
    4e04:	928c0400 	addls	r0, ip, #0, 8
    4e08:	0000007a 	andeq	r0, r0, sl, ror r0
    4e0c:	1aeb098c 	bne	ffac7444 <__bss_end+0x782c5dd4>
    4e10:	8d040000 	stchi	0, cr0, [r4, #-0]
    4e14:	00007a92 	muleq	r0, r2, sl
    4e18:	ae099000 	cdpge	0, 0, cr9, cr9, cr0, {0}
    4e1c:	0400001a 	streq	r0, [r0], #-26	; 0xffffffe6
    4e20:	007a928e 	rsbseq	r9, sl, lr, lsl #5
    4e24:	09940000 	ldmibeq	r4, {}	; <UNPREDICTABLE>
    4e28:	00001a67 	andeq	r1, r0, r7, ror #20
    4e2c:	7a928f04 	bvc	fe4a8a44 <__bss_end+0x76ca73d4>
    4e30:	98000000 	stmdals	r0, {}	; <UNPREDICTABLE>
    4e34:	001a5409 	andseq	r5, sl, r9, lsl #8
    4e38:	92900400 	addsls	r0, r0, #0, 8
    4e3c:	0000007a 	andeq	r0, r0, sl, ror r0
    4e40:	1ae6099c 	bne	ff9874b8 <__bss_end+0x78185e48>
    4e44:	91040000 	mrsls	r0, (UNDEF: 4)
    4e48:	00007a92 	muleq	r0, r2, sl
    4e4c:	0009a000 	andeq	sl, r9, r0
    4e50:	0400001b 	streq	r0, [r0], #-27	; 0xffffffe5
    4e54:	007a9292 			; <UNDEFINED> instruction: 0x007a9292
    4e58:	09a40000 	stmibeq	r4!, {}	; <UNPREDICTABLE>
    4e5c:	00001a7c 	andeq	r1, r0, ip, ror sl
    4e60:	7a929304 	bvc	fe4a9a78 <__bss_end+0x76ca8408>
    4e64:	a8000000 	stmdage	r0, {}	; <UNPREDICTABLE>
    4e68:	001a6c09 	andseq	r6, sl, r9, lsl #24
    4e6c:	92940400 	addsls	r0, r4, #0, 8
    4e70:	0000007a 	andeq	r0, r0, sl, ror r0
    4e74:	1afa09ac 	bne	ffe8752c <__bss_end+0x78685ebc>
    4e78:	95040000 	strls	r0, [r4, #-0]
    4e7c:	00007a92 	muleq	r0, r2, sl
    4e80:	550ab000 	strpl	fp, [sl, #-0]
    4e84:	04005354 	streq	r5, [r0], #-852	; 0xfffffcac
    4e88:	007a9296 			; <UNDEFINED> instruction: 0x007a9296
    4e8c:	09b40000 	ldmibeq	r4!, {}	; <UNPREDICTABLE>
    4e90:	00001b5f 	andeq	r1, r0, pc, asr fp
    4e94:	7a929704 	bvc	fe4aaaac <__bss_end+0x76ca943c>
    4e98:	b8000000 	stmdalt	r0, {}	; <UNPREDICTABLE>
    4e9c:	1af00b00 	bne	ffc07aa4 <__bss_end+0x78406434>
    4ea0:	98040000 	stmdals	r4, {}	; <UNPREDICTABLE>
    4ea4:	00008f92 	muleq	r0, r2, pc	; <UNPREDICTABLE>
    4ea8:	07040200 	streq	r0, [r4, -r0, lsl #4]
    4eac:	000000d6 	ldrdeq	r0, [r0], -r6
    4eb0:	00053804 	andeq	r3, r5, r4, lsl #16
    4eb4:	252a0500 	strcs	r0, [sl, #-1280]!	; 0xfffffb00
    4eb8:	04000000 	streq	r0, [r0], #-0
    4ebc:	00001ab3 			; <UNDEFINED> instruction: 0x00001ab3
    4ec0:	002c3005 	eoreq	r3, ip, r5
    4ec4:	04020000 	streq	r0, [r2], #-0
    4ec8:	00000505 	andeq	r0, r0, r5, lsl #10
    4ecc:	c6040c00 	strgt	r0, [r4], -r0, lsl #24
    4ed0:	02000001 	andeq	r0, r0, #1
    4ed4:	00f10801 	rscseq	r0, r1, r1, lsl #16
    4ed8:	b20d0000 	andlt	r0, sp, #0
    4edc:	02000005 	andeq	r0, r0, #5
    4ee0:	23030423 	movwcs	r0, #13347	; 0x3423
    4ee4:	0e000002 	cdpeq	0, 0, cr0, cr0, cr2, {0}
    4ee8:	00000591 	muleq	r0, r1, r5
    4eec:	a3042302 	movwge	r2, #17154	; 0x4302
    4ef0:	0e000001 	cdpeq	0, 0, cr0, cr0, cr1, {0}
    4ef4:	0000056b 	andeq	r0, r0, fp, ror #10
    4ef8:	a3042402 	movwge	r2, #17410	; 0x4402
    4efc:	0e000001 	cdpeq	0, 0, cr0, cr0, cr1, {0}
    4f00:	00000573 	andeq	r0, r0, r3, ror r5
    4f04:	a3042502 	movwge	r2, #17666	; 0x4502
    4f08:	0e000001 	cdpeq	0, 0, cr0, cr0, cr1, {0}
    4f0c:	000005c3 	andeq	r0, r0, r3, asr #11
    4f10:	a3042602 	movwge	r2, #17922	; 0x4602
    4f14:	0e000001 	cdpeq	0, 0, cr0, cr0, cr1, {0}
    4f18:	000005ec 	andeq	r0, r0, ip, ror #11
    4f1c:	a3042702 	movwge	r2, #18178	; 0x4702
    4f20:	0e000001 	cdpeq	0, 0, cr0, cr0, cr1, {0}
    4f24:	000005a5 	andeq	r0, r0, r5, lsr #11
    4f28:	a3042802 	movwge	r2, #18434	; 0x4802
    4f2c:	00000001 	andeq	r0, r0, r1
    4f30:	0005d80d 	andeq	sp, r5, sp, lsl #16
    4f34:	04410200 	strbeq	r0, [r1], #-512	; 0xfffffe00
    4f38:	00027903 	andeq	r7, r2, r3, lsl #18
    4f3c:	05910e00 	ldreq	r0, [r1, #3584]	; 0xe00
    4f40:	41020000 	mrsmi	r0, (UNDEF: 2)
    4f44:	0001a304 	andeq	sl, r1, r4, lsl #6
    4f48:	056b0e00 	strbeq	r0, [fp, #-3584]!	; 0xfffff200
    4f4c:	42020000 	andmi	r0, r2, #0
    4f50:	0001a304 	andeq	sl, r1, r4, lsl #6
    4f54:	05730e00 	ldrbeq	r0, [r3, #-3584]!	; 0xfffff200
    4f58:	43020000 	movwmi	r0, #8192	; 0x2000
    4f5c:	0001a304 	andeq	sl, r1, r4, lsl #6
    4f60:	05c30e00 	strbeq	r0, [r3, #3584]	; 0xe00
    4f64:	44020000 	strmi	r0, [r2], #-0
    4f68:	0001a304 	andeq	sl, r1, r4, lsl #6
    4f6c:	05ec0e00 	strbeq	r0, [ip, #3584]!	; 0xe00
    4f70:	45020000 	strmi	r0, [r2, #-0]
    4f74:	0001a304 	andeq	sl, r1, r4, lsl #6
    4f78:	05fb0e00 	ldrbeq	r0, [fp, #3584]!	; 0xe00
    4f7c:	46020000 	strmi	r0, [r2], -r0
    4f80:	0001a304 	andeq	sl, r1, r4, lsl #6
    4f84:	590f0000 	stmdbpl	pc, {}	; <UNPREDICTABLE>
    4f88:	0100001a 	tsteq	r0, sl, lsl r0
    4f8c:	05100193 	ldreq	r0, [r0, #-403]	; 0xfffffe6d
    4f90:	0100001b 	tsteq	r0, fp, lsl r0
    4f94:	029901a0 	addseq	r0, r9, #160, 2	; 0x28
    4f98:	59110000 	ldmdbpl	r1, {}	; <UNPREDICTABLE>
    4f9c:	01000001 	tsteq	r0, r1
    4fa0:	000299a0 	andeq	r9, r2, r0, lsr #19
    4fa4:	040c0000 	streq	r0, [ip], #-0
    4fa8:	00000190 	muleq	r0, r0, r1
    4fac:	001b4710 	andseq	r4, fp, r0, lsl r7
    4fb0:	01a50100 			; <UNDEFINED> instruction: 0x01a50100
    4fb4:	000002b7 			; <UNDEFINED> instruction: 0x000002b7
    4fb8:	00015911 	andeq	r5, r1, r1, lsl r9
    4fbc:	99a50100 	stmibls	r5!, {r8}
    4fc0:	00000002 	andeq	r0, r0, r2
    4fc4:	001abe10 	andseq	fp, sl, r0, lsl lr
    4fc8:	019b0100 	orrseq	r0, fp, r0, lsl #2
    4fcc:	000002cf 	andeq	r0, r0, pc, asr #5
    4fd0:	00015911 	andeq	r5, r1, r1, lsl r9
    4fd4:	999b0100 	ldmibls	fp, {r8}
    4fd8:	00000002 	andeq	r0, r0, r2
    4fdc:	00015e12 	andeq	r5, r1, r2, lsl lr
    4fe0:	01800100 	orreq	r0, r0, r0, lsl #2
    4fe4:	000002e5 	andeq	r0, r0, r5, ror #5
    4fe8:	01006313 	tsteq	r0, r3, lsl r3
    4fec:	0001c680 	andeq	ip, r1, r0, lsl #13
    4ff0:	81140000 	tsthi	r4, r0
    4ff4:	0100001a 	tsteq	r0, sl, lsl r0
    4ff8:	8009e022 	andhi	lr, r9, r2, lsr #32
    4ffc:	0001f687 	andeq	pc, r1, r7, lsl #13
    5000:	cf9c0100 	svcgt	0x009c0100
    5004:	15000003 	strne	r0, [r0, #-3]
    5008:	00001a92 	muleq	r0, r2, sl
    500c:	02992201 	addseq	r2, r9, #268435456	; 0x10000000
    5010:	07b10000 	ldreq	r0, [r1, r0]!
    5014:	89150000 	ldmdbhi	r5, {}	; <UNPREDICTABLE>
    5018:	0100001a 	tsteq	r0, sl, lsl r0
    501c:	00002522 	andeq	r2, r0, r2, lsr #10
    5020:	0007da00 	andeq	sp, r7, r0, lsl #20
    5024:	1b1a1500 	blne	68a42c <shift+0x68a42c>
    5028:	22010000 	andcs	r0, r1, #0
    502c:	00000025 	andeq	r0, r0, r5, lsr #32
    5030:	00000803 	andeq	r0, r0, r3, lsl #16
    5034:	001a9716 	andseq	r9, sl, r6, lsl r7
    5038:	a3240100 			; <UNDEFINED> instruction: 0xa3240100
    503c:	66000001 	strvs	r0, [r0], -r1
    5040:	16000008 	strne	r0, [r0], -r8
    5044:	00001b26 	andeq	r1, r0, r6, lsr #22
    5048:	01a32501 			; <UNDEFINED> instruction: 0x01a32501
    504c:	090a0000 	stmdbeq	sl, {}	; <UNPREDICTABLE>
    5050:	12160000 	andsne	r0, r6, #0
    5054:	0100001b 	tsteq	r0, fp, lsl r0
    5058:	0001a326 	andeq	sl, r1, r6, lsr #6
    505c:	0009a200 	andeq	sl, r9, r0, lsl #4
    5060:	1a711600 	bne	1c4a868 <shift+0x1c4a868>
    5064:	27010000 	strcs	r0, [r1, -r0]
    5068:	000001a3 	andeq	r0, r0, r3, lsr #3
    506c:	00000a12 	andeq	r0, r0, r2, lsl sl
    5070:	001b5716 	andseq	r5, fp, r6, lsl r7
    5074:	a3280100 			; <UNDEFINED> instruction: 0xa3280100
    5078:	6e000001 	cdpvs	0, 0, cr0, cr0, cr1, {0}
    507c:	1600000a 	strne	r0, [r0], -sl
    5080:	00001add 	ldrdeq	r1, [r0], -sp
    5084:	01ae2901 			; <UNDEFINED> instruction: 0x01ae2901
    5088:	0ab20000 	beq	fec85090 <__bss_end+0x77483a20>
    508c:	ca160000 	bgt	585094 <shift+0x585094>
    5090:	0100001a 	tsteq	r0, sl, lsl r0
    5094:	0001ae2a 	andeq	sl, r1, sl, lsr #28
    5098:	000b1200 	andeq	r1, fp, r0, lsl #4
    509c:	1b321600 	blne	c8a8a4 <shift+0xc8a8a4>
    50a0:	2b010000 	blcs	450a8 <shift+0x450a8>
    50a4:	000001a3 	andeq	r0, r0, r3, lsr #3
    50a8:	00000bef 	andeq	r0, r0, pc, ror #23
    50ac:	00031817 	andeq	r1, r3, r7, lsl r8
    50b0:	006d1800 	rsbeq	r1, sp, r0, lsl #16
    50b4:	01a33e01 			; <UNDEFINED> instruction: 0x01a33e01
    50b8:	0c800000 	stceq	0, cr0, [r0], {0}
    50bc:	6e180000 	cdpvs	0, 1, cr0, cr8, cr0, {0}
    50c0:	a33f0100 	teqge	pc, #0, 2
    50c4:	a3000001 	movwge	r0, #1
    50c8:	1800000c 	stmdane	r0, {r2, r3}
    50cc:	0078616d 	rsbseq	r6, r8, sp, ror #2
    50d0:	01a34001 			; <UNDEFINED> instruction: 0x01a34001
    50d4:	0cdd0000 	ldcleq	0, cr0, [sp], {0}
    50d8:	00000000 	andeq	r0, r0, r0
    50dc:	00003119 	andeq	r3, r0, r9, lsl r1
    50e0:	d8090100 	stmdale	r9, {r8}
    50e4:	a487800b 	strge	r8, [r7], #11
    50e8:	01000000 	mrseq	r0, (UNDEF: 0)
    50ec:	00056a9c 	muleq	r5, ip, sl
    50f0:	02791a00 	rsbseq	r1, r9, #0, 20
    50f4:	0bda0000 	bleq	ff6850fc <__bss_end+0x77e83a8c>
    50f8:	03508780 	cmpeq	r0, #128, 14	; 0x2000000
    50fc:	0b010000 	bleq	45104 <shift+0x45104>
    5100:	000004fa 	strdeq	r0, [r0], -sl
    5104:	0001cd1a 	andeq	ip, r1, sl, lsl sp
    5108:	800bda00 	andhi	sp, fp, r0, lsl #20
    510c:	00037887 	andeq	r7, r3, r7, lsl #17
    5110:	35950100 	ldrcc	r0, [r5, #256]	; 0x100
    5114:	1b000004 	blne	512c <shift+0x512c>
    5118:	0000020a 	andeq	r0, r0, sl, lsl #4
    511c:	00000d11 	andeq	r0, r0, r1, lsl sp
    5120:	0002161c 	andeq	r1, r2, ip, lsl r6
    5124:	fe1c0000 	cdp2	0, 1, cr0, cr12, cr0, {0}
    5128:	00000001 	andeq	r0, r0, r1
    512c:	0001f21c 	andeq	pc, r1, ip, lsl r2	; <UNPREDICTABLE>
    5130:	e61c0000 	ldr	r0, [ip], -r0
    5134:	00000001 	andeq	r0, r0, r1
    5138:	0001da1d 	andeq	sp, r1, sp, lsl sl
    513c:	0e008400 	cfcpyseq	mvf8, mvf0
    5140:	231a0002 	tstcs	sl, #2
    5144:	dc000002 	stcle	0, cr0, [r0], {2}
    5148:	9887800b 	stmls	r7, {r0, r1, r3, pc}
    514c:	01000003 	tsteq	r0, r3
    5150:	00047a96 	muleq	r4, r6, sl
    5154:	02301b00 	eorseq	r1, r0, #0, 22
    5158:	0d390000 	ldceq	0, cr0, [r9, #-0]
    515c:	3c1c0000 	ldccc	0, cr0, [ip], {-0}
    5160:	00000002 	andeq	r0, r0, r2
    5164:	0002481b 	andeq	r4, r2, fp, lsl r8
    5168:	000d6100 	andeq	r6, sp, r0, lsl #2
    516c:	02541b00 	subseq	r1, r4, #0, 22
    5170:	0d850000 	stceq	0, cr0, [r5]
    5174:	6c1e0000 	ldcvs	0, cr0, [lr], {-0}
    5178:	b0000002 	andlt	r0, r0, r2
    517c:	02601d10 	rsbeq	r1, r0, #16, 26	; 0x400
    5180:	03100000 	tsteq	r0, #0
    5184:	1a00020e 	bne	59c4 <shift+0x59c4>
    5188:	000001cd 	andeq	r0, r0, sp, asr #3
    518c:	87800be0 	strhi	r0, [r0, r0, ror #23]
    5190:	000003b8 			; <UNDEFINED> instruction: 0x000003b8
    5194:	04bb9701 	ldrteq	r9, [fp], #1793	; 0x701
    5198:	0a1d0000 	beq	7451a0 <shift+0x7451a0>
    519c:	14000002 	strne	r0, [r0], #-2
    51a0:	1c020e03 	stcne	14, cr0, [r2], {3}
    51a4:	00000216 	andeq	r0, r0, r6, lsl r2
    51a8:	01fe1c00 	mvnseq	r1, r0, lsl #24
    51ac:	1d030000 	stcne	0, cr0, [r3, #-0]
    51b0:	000001f2 	strdeq	r0, [r0], -r2
    51b4:	020e0624 	andeq	r0, lr, #36, 12	; 0x2400000
    51b8:	0001e61c 	andeq	lr, r1, ip, lsl r6
    51bc:	da1d0000 	ble	7451c4 <shift+0x7451c4>
    51c0:	88000001 	stmdahi	r0, {r0}
    51c4:	00020e00 	andeq	r0, r2, r0, lsl #28
    51c8:	0002231f 	andeq	r2, r2, pc, lsl r3
    51cc:	800be600 	andhi	lr, fp, r0, lsl #12
    51d0:	0003e087 	andeq	lr, r3, r7, lsl #1
    51d4:	1d980100 	ldfnes	f0, [r8]
    51d8:	00000230 	andeq	r0, r0, r0, lsr r2
    51dc:	020e0088 	andeq	r0, lr, #136	; 0x88
    51e0:	00023c1c 	andeq	r3, r2, ip, lsl ip
    51e4:	481d0000 	ldmdami	sp, {}	; <UNPREDICTABLE>
    51e8:	24000002 	strcs	r0, [r0], #-2
    51ec:	1c020e06 	stcne	14, cr0, [r2], {6}
    51f0:	00000254 	andeq	r0, r0, r4, asr r2
    51f4:	026c1e03 	rsbeq	r1, ip, #3, 28	; 0x30
    51f8:	10b00000 	adcsne	r0, r0, r0
    51fc:	0002601d 	andeq	r6, r2, sp, lsl r0
    5200:	0e031400 	cfcpyseq	mvf1, mvf3
    5204:	1a000002 	bne	5214 <shift+0x5214>
    5208:	00000281 	andeq	r0, r0, r1, lsl #5
    520c:	87800bea 	strhi	r0, [r0, sl, ror #23]
    5210:	00000400 	andeq	r0, r0, r0, lsl #8
    5214:	05170c01 	ldreq	r0, [r7, #-3073]	; 0xfffff3ff
    5218:	8d1d0000 	ldchi	0, cr0, [sp, #-0]
    521c:	00000002 	andeq	r0, r0, r2
    5220:	00020200 	andeq	r0, r2, r0, lsl #4
    5224:	00029f1a 	andeq	r9, r2, sl, lsl pc
    5228:	800c1400 	andhi	r1, ip, r0, lsl #8
    522c:	00042087 	andeq	r2, r4, r7, lsl #1
    5230:	340d0100 	strcc	r0, [sp], #-256	; 0xffffff00
    5234:	1d000005 	stcne	0, cr0, [r0, #-20]	; 0xffffffec
    5238:	000002ab 	andeq	r0, r0, fp, lsr #5
    523c:	02020000 	andeq	r0, r2, #0
    5240:	02b72000 	adcseq	r2, r7, #0
    5244:	0c6e0000 	stcleq	0, cr0, [lr], #-0
    5248:	000e8780 	andeq	r8, lr, r0, lsl #15
    524c:	16010000 	strne	r0, [r1], -r0
    5250:	00000551 	andeq	r0, r0, r1, asr r5
    5254:	0002c31d 	andeq	ip, r2, sp, lsl r3
    5258:	02000000 	andeq	r0, r0, #0
    525c:	6e210002 	cdpvs	0, 2, cr0, cr1, cr2, {0}
    5260:	e587800c 	str	r8, [r7, #12]
    5264:	22000002 	andcs	r0, r0, #2
    5268:	74025001 	strvc	r5, [r2], #-1
    526c:	51012200 	mrspl	r2, R9_usr
    5270:	39e10804 	stmibcc	r1!, {r2, fp}^
    5274:	23000024 	movwcs	r0, #36	; 0x24
    5278:	000002cf 	andeq	r0, r0, pc, asr #5
    527c:	87800c7c 			; <UNDEFINED> instruction: 0x87800c7c
    5280:	00000018 	andeq	r0, r0, r8, lsl r0
    5284:	05859c01 	streq	r9, [r5, #3073]	; 0xc01
    5288:	db240000 	blle	905290 <shift+0x905290>
    528c:	01000002 	tsteq	r0, r2
    5290:	f6250050 			; <UNDEFINED> instruction: 0xf6250050
    5294:	01000000 	mrseq	r0, (UNDEF: 0)
    5298:	0001c686 	andeq	ip, r1, r6, lsl #13
    529c:	800c9400 	andhi	r9, ip, r0, lsl #8
    52a0:	00001a87 	andeq	r1, r0, r7, lsl #21
    52a4:	199c0100 	ldmibne	ip, {r8}
    52a8:	00000026 	andeq	r0, r0, r6, lsr #32
    52ac:	0cb08c01 	ldceq	12, cr8, [r0], #4
    52b0:	00268780 	eoreq	r8, r6, r0, lsl #15
    52b4:	9c010000 	stcls	0, cr0, [r1], {-0}
    52b8:	000005d4 	ldrdeq	r0, [r0], -r4
    52bc:	72747326 	rsbsvc	r7, r4, #-1744830464	; 0x98000000
    52c0:	c08c0100 	addgt	r0, ip, r0, lsl #2
    52c4:	a5000001 	strge	r0, [r0, #-1]
    52c8:	1f00000d 	svcne	0x0000000d
    52cc:	000002cf 	andeq	r0, r0, pc, asr #5
    52d0:	87800cb4 			; <UNDEFINED> instruction: 0x87800cb4
    52d4:	00000438 	andeq	r0, r0, r8, lsr r4
    52d8:	db278f01 	blle	9e8ee4 <shift+0x9e8ee4>
    52dc:	00000002 	andeq	r0, r0, r2
    52e0:	1aa82800 	bne	fea0f2e8 <__bss_end+0x7720dc78>
    52e4:	ad010000 	stcge	0, cr0, [r1, #-0]
    52e8:	87800cd8 			; <UNDEFINED> instruction: 0x87800cd8
    52ec:	00000002 	andeq	r0, r0, r2
    52f0:	a1299c01 			; <UNDEFINED> instruction: 0xa1299c01
    52f4:	0100001a 	tsteq	r0, sl, lsl r0
    52f8:	000041ad 	andeq	r4, r0, sp, lsr #3
    52fc:	00500100 	subseq	r0, r0, r0, lsl #2
	...

Disassembly of section .debug_abbrev:

00000000 <.debug_abbrev>:
       0:	25011101 	strcs	r1, [r1, #-257]	; 0xfffffeff
       4:	030b130e 	movweq	r1, #45838	; 0xb30e
       8:	550e1b0e 	strpl	r1, [lr, #-2830]	; 0xfffff4f2
       c:	10011117 	andne	r1, r1, r7, lsl r1
      10:	02000017 	andeq	r0, r0, #23
      14:	0b0b0024 	bleq	2c00ac <shift+0x2c00ac>
      18:	0e030b3e 	vmoveq.16	d3[0], r0
      1c:	24030000 	strcs	r0, [r3], #-0
      20:	3e0b0b00 	vmlacc.f64	d0, d11, d0
      24:	0008030b 	andeq	r0, r8, fp, lsl #6
      28:	000f0400 	andeq	r0, pc, r0, lsl #8
      2c:	13490b0b 	movtne	r0, #39691	; 0x9b0b
      30:	2e050000 	cdpcs	0, 0, cr0, cr5, cr0, {0}
      34:	03193f01 	tsteq	r9, #1, 30
      38:	3b0b3a0e 	blcc	2ce878 <shift+0x2ce878>
      3c:	4919270b 	ldmdbmi	r9, {r0, r1, r3, r8, r9, sl, sp}
      40:	12011113 	andne	r1, r1, #-1073741820	; 0xc0000004
      44:	97184006 	ldrls	r4, [r8, -r6]
      48:	13011942 	movwne	r1, #6466	; 0x1942
      4c:	34060000 	strcc	r0, [r6], #-0
      50:	3a080300 	bcc	200c58 <shift+0x200c58>
      54:	490b3b0b 	stmdbmi	fp, {r0, r1, r3, r8, r9, fp, ip, sp}
      58:	00180213 	andseq	r0, r8, r3, lsl r2
      5c:	82890700 	addhi	r0, r9, #0, 14
      60:	01110001 	tsteq	r1, r1
      64:	00001331 	andeq	r1, r0, r1, lsr r3
      68:	01828908 	orreq	r8, r2, r8, lsl #18
      6c:	31011101 	tstcc	r1, r1, lsl #2
      70:	00130113 	andseq	r0, r3, r3, lsl r1
      74:	828a0900 	addhi	r0, sl, #0, 18
      78:	18020001 	stmdane	r2, {r0}
      7c:	00184291 	mulseq	r8, r1, r2
      80:	82890a00 	addhi	r0, r9, #0, 20
      84:	01110101 	tsteq	r1, r1, lsl #2
      88:	00001331 	andeq	r1, r0, r1, lsr r3
      8c:	3f002e0b 	svccc	0x00002e0b
      90:	3a0e0319 	bcc	380cfc <shift+0x380cfc>
      94:	270b3b0b 	strcs	r3, [fp, -fp, lsl #22]
      98:	00193c19 	andseq	r3, r9, r9, lsl ip
      9c:	012e0c00 			; <UNDEFINED> instruction: 0x012e0c00
      a0:	0e03193f 			; <UNDEFINED> instruction: 0x0e03193f
      a4:	0b3b0b3a 	bleq	ec2d94 <shift+0xec2d94>
      a8:	193c1927 	ldmdbne	ip!, {r0, r1, r2, r5, r8, fp, ip}
      ac:	00001301 	andeq	r1, r0, r1, lsl #6
      b0:	4900050d 	stmdbmi	r0, {r0, r2, r3, r8, sl}
      b4:	0e000013 	mcreq	0, 0, r0, cr0, cr3, {0}
      b8:	193f002e 	ldmdbne	pc!, {r1, r2, r3, r5}	; <UNPREDICTABLE>
      bc:	0b3a0e03 	bleq	e838d0 <shift+0xe838d0>
      c0:	19270b3b 	stmdbne	r7!, {r0, r1, r3, r4, r5, r8, r9, fp}
      c4:	193c1349 	ldmdbne	ip!, {r0, r3, r6, r8, r9, ip}
      c8:	2e0f0000 	cdpcs	0, 0, cr0, cr15, cr0, {0}
      cc:	03193f01 	tsteq	r9, #1, 30
      d0:	3b0b3a0e 	blcc	2ce910 <shift+0x2ce910>
      d4:	3c19270b 	ldccc	7, cr2, [r9], {11}
      d8:	00000019 	andeq	r0, r0, r9, lsl r0
      dc:	25011101 	strcs	r1, [r1, #-257]	; 0xfffffeff
      e0:	030b130e 	movweq	r1, #45838	; 0xb30e
      e4:	110e1b0e 	tstne	lr, lr, lsl #22
      e8:	10061201 	andne	r1, r6, r1, lsl #4
      ec:	02000017 	andeq	r0, r0, #23
      f0:	0b0b0024 	bleq	2c0188 <shift+0x2c0188>
      f4:	0e030b3e 	vmoveq.16	d3[0], r0
      f8:	24030000 	strcs	r0, [r3], #-0
      fc:	3e0b0b00 	vmlacc.f64	d0, d11, d0
     100:	0008030b 	andeq	r0, r8, fp, lsl #6
     104:	00160400 	andseq	r0, r6, r0, lsl #8
     108:	0b3a0e03 	bleq	e8391c <shift+0xe8391c>
     10c:	13490b3b 	movtne	r0, #39739	; 0x9b3b
     110:	01050000 	mrseq	r0, (UNDEF: 5)
     114:	01134901 	tsteq	r3, r1, lsl #18
     118:	06000013 			; <UNDEFINED> instruction: 0x06000013
     11c:	13490021 	movtne	r0, #36897	; 0x9021
     120:	00000b2f 	andeq	r0, r0, pc, lsr #22
     124:	49003507 	stmdbmi	r0, {r0, r1, r2, r8, sl, ip, sp}
     128:	08000013 	stmdaeq	r0, {r0, r1, r4}
     12c:	0b0b0113 	bleq	2c0580 <shift+0x2c0580>
     130:	053b0b3a 	ldreq	r0, [fp, #-2874]!	; 0xfffff4c6
     134:	00001301 	andeq	r1, r0, r1, lsl #6
     138:	03000d09 	movweq	r0, #3337	; 0xd09
     13c:	3b0b3a08 	blcc	2ce964 <shift+0x2ce964>
     140:	38134905 	ldmdacc	r3, {r0, r2, r8, fp, lr}
     144:	0a00000b 	beq	178 <shift+0x178>
     148:	0e03000d 	cdpeq	0, 0, cr0, cr3, cr13, {0}
     14c:	053b0b3a 	ldreq	r0, [fp, #-2874]!	; 0xfffff4c6
     150:	0b381349 	bleq	e04e7c <shift+0xe04e7c>
     154:	160b0000 	strne	r0, [fp], -r0
     158:	3a0e0300 	bcc	380d60 <shift+0x380d60>
     15c:	49053b0b 	stmdbmi	r5, {r0, r1, r3, r8, r9, fp, ip, sp}
     160:	0c000013 	stceq	0, cr0, [r0], {19}
     164:	050b0113 	streq	r0, [fp, #-275]	; 0xfffffeed
     168:	053b0b3a 	ldreq	r0, [fp, #-2874]!	; 0xfffff4c6
     16c:	00001301 	andeq	r1, r0, r1, lsl #6
     170:	03000d0d 	movweq	r0, #3341	; 0xd0d
     174:	3b0b3a0e 	blcc	2ce9b4 <shift+0x2ce9b4>
     178:	38134905 	ldmdacc	r3, {r0, r2, r8, fp, lr}
     17c:	0e000005 	cdpeq	0, 0, cr0, cr0, cr5, {0}
     180:	193f002e 	ldmdbne	pc!, {r1, r2, r3, r5}	; <UNPREDICTABLE>
     184:	0b3a0e03 	bleq	e83998 <shift+0xe83998>
     188:	19270b3b 	stmdbne	r7!, {r0, r1, r3, r4, r5, r8, r9, fp}
     18c:	06120111 			; <UNDEFINED> instruction: 0x06120111
     190:	42971840 	addsmi	r1, r7, #64, 16	; 0x400000
     194:	0f000019 	svceq	0x00000019
     198:	193f012e 	ldmdbne	pc!, {r1, r2, r3, r5, r8}	; <UNPREDICTABLE>
     19c:	0b3a0e03 	bleq	e839b0 <shift+0xe839b0>
     1a0:	19270b3b 	stmdbne	r7!, {r0, r1, r3, r4, r5, r8, r9, fp}
     1a4:	06120111 			; <UNDEFINED> instruction: 0x06120111
     1a8:	42971840 	addsmi	r1, r7, #64, 16	; 0x400000
     1ac:	10000019 	andne	r0, r0, r9, lsl r0
     1b0:	08030034 	stmdaeq	r3, {r2, r4, r5}
     1b4:	0b3b0b3a 	bleq	ec2ea4 <shift+0xec2ea4>
     1b8:	17021349 	strne	r1, [r2, -r9, asr #6]
     1bc:	01000000 	mrseq	r0, (UNDEF: 0)
     1c0:	0e250111 	mcreq	1, 1, r0, cr5, cr1, {0}
     1c4:	0e030b13 	vmoveq.32	d3[0], r0
     1c8:	01110e1b 	tsteq	r1, fp, lsl lr
     1cc:	17100612 			; <UNDEFINED> instruction: 0x17100612
     1d0:	24020000 	strcs	r0, [r2], #-0
     1d4:	3e0b0b00 	vmlacc.f64	d0, d11, d0
     1d8:	000e030b 	andeq	r0, lr, fp, lsl #6
     1dc:	00240300 	eoreq	r0, r4, r0, lsl #6
     1e0:	0b3e0b0b 	bleq	f82e14 <shift+0xf82e14>
     1e4:	00000803 	andeq	r0, r0, r3, lsl #16
     1e8:	03001604 	movweq	r1, #1540	; 0x604
     1ec:	3b0b3a0e 	blcc	2cea2c <shift+0x2cea2c>
     1f0:	0013490b 	andseq	r4, r3, fp, lsl #18
     1f4:	00350500 	eorseq	r0, r5, r0, lsl #10
     1f8:	00001349 	andeq	r1, r0, r9, asr #6
     1fc:	49010106 	stmdbmi	r1, {r1, r2, r8}
     200:	00130113 	andseq	r0, r3, r3, lsl r1
     204:	00210700 	eoreq	r0, r1, r0, lsl #14
     208:	0b2f1349 	bleq	bc4f34 <shift+0xbc4f34>
     20c:	13080000 	movwne	r0, #32768	; 0x8000
     210:	3a0b0b01 	bcc	2c2e1c <shift+0x2c2e1c>
     214:	01053b0b 	tsteq	r5, fp, lsl #22
     218:	09000013 	stmdbeq	r0, {r0, r1, r4}
     21c:	0803000d 	stmdaeq	r3, {r0, r2, r3}
     220:	053b0b3a 	ldreq	r0, [fp, #-2874]!	; 0xfffff4c6
     224:	0b381349 	bleq	e04f50 <shift+0xe04f50>
     228:	160a0000 	strne	r0, [sl], -r0
     22c:	3a0e0300 	bcc	380e34 <shift+0x380e34>
     230:	49053b0b 	stmdbmi	r5, {r0, r1, r3, r8, r9, fp, ip, sp}
     234:	0b000013 	bleq	288 <shift+0x288>
     238:	193f012e 	ldmdbne	pc!, {r1, r2, r3, r5, r8}	; <UNPREDICTABLE>
     23c:	0b3a0e03 	bleq	e83a50 <shift+0xe83a50>
     240:	19270b3b 	stmdbne	r7!, {r0, r1, r3, r4, r5, r8, r9, fp}
     244:	13010b20 	movwne	r0, #6944	; 0x1b20
     248:	050c0000 	streq	r0, [ip, #-0]
     24c:	3a080300 	bcc	200e54 <shift+0x200e54>
     250:	490b3b0b 	stmdbmi	fp, {r0, r1, r3, r8, r9, fp, ip, sp}
     254:	0d000013 	stceq	0, cr0, [r0, #-76]	; 0xffffffb4
     258:	08030034 	stmdaeq	r3, {r2, r4, r5}
     25c:	0b3b0b3a 	bleq	ec2f4c <shift+0xec2f4c>
     260:	00001349 	andeq	r1, r0, r9, asr #6
     264:	0300340e 	movweq	r3, #1038	; 0x40e
     268:	3b0b3a0e 	blcc	2ceaa8 <shift+0x2ceaa8>
     26c:	0013490b 	andseq	r4, r3, fp, lsl #18
     270:	002e0f00 	eoreq	r0, lr, r0, lsl #30
     274:	0e03193f 			; <UNDEFINED> instruction: 0x0e03193f
     278:	0b3b0b3a 	bleq	ec2f68 <shift+0xec2f68>
     27c:	01111927 	tsteq	r1, r7, lsr #18
     280:	18400612 	stmdane	r0, {r1, r4, r9, sl}^
     284:	00194297 	mulseq	r9, r7, r2
     288:	012e1000 			; <UNDEFINED> instruction: 0x012e1000
     28c:	0e03193f 			; <UNDEFINED> instruction: 0x0e03193f
     290:	0b3b0b3a 	bleq	ec2f80 <shift+0xec2f80>
     294:	01111927 	tsteq	r1, r7, lsr #18
     298:	18400612 	stmdane	r0, {r1, r4, r9, sl}^
     29c:	01194297 			; <UNDEFINED> instruction: 0x01194297
     2a0:	11000013 	tstne	r0, r3, lsl r0
     2a4:	08030005 	stmdaeq	r3, {r0, r2}
     2a8:	0b3b0b3a 	bleq	ec2f98 <shift+0xec2f98>
     2ac:	18021349 	stmdane	r2, {r0, r3, r6, r8, r9, ip}
     2b0:	2e120000 	cdpcs	0, 1, cr0, cr2, cr0, {0}
     2b4:	11133101 	tstne	r3, r1, lsl #2
     2b8:	40061201 	andmi	r1, r6, r1, lsl #4
     2bc:	19429718 	stmdbne	r2, {r3, r4, r8, r9, sl, ip, pc}^
     2c0:	00001301 	andeq	r1, r0, r1, lsl #6
     2c4:	31000513 	tstcc	r0, r3, lsl r5
     2c8:	00180213 	andseq	r0, r8, r3, lsl r2
     2cc:	00341400 	eorseq	r1, r4, r0, lsl #8
     2d0:	17021331 	smladxne	r2, r1, r3, r1
     2d4:	2e150000 	cdpcs	0, 1, cr0, cr5, cr0, {0}
     2d8:	03193f01 	tsteq	r9, #1, 30
     2dc:	3b0b3a0e 	blcc	2ceb1c <shift+0x2ceb1c>
     2e0:	1119270b 	tstne	r9, fp, lsl #14
     2e4:	40061201 	andmi	r1, r6, r1, lsl #4
     2e8:	19429718 	stmdbne	r2, {r3, r4, r8, r9, sl, ip, pc}^
     2ec:	05160000 	ldreq	r0, [r6, #-0]
     2f0:	3a080300 	bcc	200ef8 <shift+0x200ef8>
     2f4:	490b3b0b 	stmdbmi	fp, {r0, r1, r3, r8, r9, fp, ip, sp}
     2f8:	00170213 	andseq	r0, r7, r3, lsl r2
     2fc:	011d1700 	tsteq	sp, r0, lsl #14
     300:	01521331 	cmpeq	r2, r1, lsr r3
     304:	0b581755 	bleq	1606060 <shift+0x1606060>
     308:	00000b59 	andeq	r0, r0, r9, asr fp
     30c:	31000518 	tstcc	r0, r8, lsl r5
     310:	00170213 	andseq	r0, r7, r3, lsl r2
     314:	010b1900 	tsteq	fp, r0, lsl #18
     318:	00001755 	andeq	r1, r0, r5, asr r7
     31c:	01110100 	tsteq	r1, r0, lsl #2
     320:	0b130e25 	bleq	4c3bbc <shift+0x4c3bbc>
     324:	0e1b0e03 	cdpeq	14, 1, cr0, cr11, cr3, {0}
     328:	06120111 			; <UNDEFINED> instruction: 0x06120111
     32c:	00001710 	andeq	r1, r0, r0, lsl r7
     330:	0b002402 	bleq	9340 <shift+0x9340>
     334:	030b3e0b 	movweq	r3, #48651	; 0xbe0b
     338:	0300000e 	movweq	r0, #14
     33c:	0b0b0024 	bleq	2c03d4 <shift+0x2c03d4>
     340:	08030b3e 	stmdaeq	r3, {r1, r2, r3, r4, r5, r8, r9, fp}
     344:	16040000 	strne	r0, [r4], -r0
     348:	3a0e0300 	bcc	380f50 <shift+0x380f50>
     34c:	490b3b0b 	stmdbmi	fp, {r0, r1, r3, r8, r9, fp, ip, sp}
     350:	05000013 	streq	r0, [r0, #-19]	; 0xffffffed
     354:	13490035 	movtne	r0, #36917	; 0x9035
     358:	13060000 	movwne	r0, #24576	; 0x6000
     35c:	3a0b0b01 	bcc	2c2f68 <shift+0x2c2f68>
     360:	01053b0b 	tsteq	r5, fp, lsl #22
     364:	07000013 	smladeq	r0, r3, r0, r0
     368:	0803000d 	stmdaeq	r3, {r0, r2, r3}
     36c:	053b0b3a 	ldreq	r0, [fp, #-2874]!	; 0xfffff4c6
     370:	0b381349 	bleq	e0509c <shift+0xe0509c>
     374:	0d080000 	stceq	0, cr0, [r8, #-0]
     378:	3a0e0300 	bcc	380f80 <shift+0x380f80>
     37c:	49053b0b 	stmdbmi	r5, {r0, r1, r3, r8, r9, fp, ip, sp}
     380:	000b3813 	andeq	r3, fp, r3, lsl r8
     384:	00160900 	andseq	r0, r6, r0, lsl #18
     388:	0b3a0e03 	bleq	e83b9c <shift+0xe83b9c>
     38c:	1349053b 	movtne	r0, #38203	; 0x953b
     390:	2e0a0000 	cdpcs	0, 0, cr0, cr10, cr0, {0}
     394:	3a0e0301 	bcc	380fa0 <shift+0x380fa0>
     398:	27053b0b 	strcs	r3, [r5, -fp, lsl #22]
     39c:	010b2019 	tsteq	fp, r9, lsl r0
     3a0:	0b000013 	bleq	3f4 <shift+0x3f4>
     3a4:	0e030005 	cdpeq	0, 0, cr0, cr3, cr5, {0}
     3a8:	053b0b3a 	ldreq	r0, [fp, #-2874]!	; 0xfffff4c6
     3ac:	00001349 	andeq	r1, r0, r9, asr #6
     3b0:	3f012e0c 	svccc	0x00012e0c
     3b4:	3a0e0319 	bcc	381020 <shift+0x381020>
     3b8:	270b3b0b 	strcs	r3, [fp, -fp, lsl #22]
     3bc:	12011119 	andne	r1, r1, #1073741830	; 0x40000006
     3c0:	97184006 	ldrls	r4, [r8, -r6]
     3c4:	13011942 	movwne	r1, #6466	; 0x1942
     3c8:	1d0d0000 	stcne	0, cr0, [sp, #-0]
     3cc:	52133101 	andspl	r3, r3, #1073741824	; 0x40000000
     3d0:	58175501 	ldmdapl	r7, {r0, r8, sl, ip, lr}
     3d4:	010b590b 	tsteq	fp, fp, lsl #18
     3d8:	0e000013 	mcreq	0, 0, r0, cr0, cr3, {0}
     3dc:	13310005 	teqne	r1, #5
     3e0:	0000061c 	andeq	r0, r0, ip, lsl r6
     3e4:	3100050f 	tstcc	r0, pc, lsl #10
     3e8:	000b1c13 	andeq	r1, fp, r3, lsl ip
     3ec:	011d1000 	tsteq	sp, r0
     3f0:	01521331 	cmpeq	r2, r1, lsr r3
     3f4:	0b581755 	bleq	1606150 <shift+0x1606150>
     3f8:	00000b59 	andeq	r0, r0, r9, asr fp
     3fc:	31000511 	tstcc	r0, r1, lsl r5
     400:	00051c13 	andeq	r1, r5, r3, lsl ip
     404:	002e1200 	eoreq	r1, lr, r0, lsl #4
     408:	0e03193f 			; <UNDEFINED> instruction: 0x0e03193f
     40c:	0b3b0b3a 	bleq	ec30fc <shift+0xec30fc>
     410:	01111927 	tsteq	r1, r7, lsr #18
     414:	18400612 	stmdane	r0, {r1, r4, r9, sl}^
     418:	00194297 	mulseq	r9, r7, r2
     41c:	11010000 	mrsne	r0, (UNDEF: 1)
     420:	130e2501 	movwne	r2, #58625	; 0xe501
     424:	1b0e030b 	blne	381058 <shift+0x381058>
     428:	1201110e 	andne	r1, r1, #-2147483645	; 0x80000003
     42c:	00171006 	andseq	r1, r7, r6
     430:	00240200 	eoreq	r0, r4, r0, lsl #4
     434:	0b3e0b0b 	bleq	f83068 <shift+0xf83068>
     438:	00000e03 	andeq	r0, r0, r3, lsl #28
     43c:	0b002403 	bleq	9450 <shift+0x9450>
     440:	030b3e0b 	movweq	r3, #48651	; 0xbe0b
     444:	04000008 	streq	r0, [r0], #-8
     448:	0e030016 	mcreq	0, 0, r0, cr3, cr6, {0}
     44c:	0b3b0b3a 	bleq	ec313c <shift+0xec313c>
     450:	00001349 	andeq	r1, r0, r9, asr #6
     454:	49003505 	stmdbmi	r0, {r0, r2, r8, sl, ip, sp}
     458:	06000013 			; <UNDEFINED> instruction: 0x06000013
     45c:	0b0b0113 	bleq	2c08b0 <shift+0x2c08b0>
     460:	053b0b3a 	ldreq	r0, [fp, #-2874]!	; 0xfffff4c6
     464:	00001301 	andeq	r1, r0, r1, lsl #6
     468:	03000d07 	movweq	r0, #3335	; 0xd07
     46c:	3b0b3a08 	blcc	2cec94 <shift+0x2cec94>
     470:	38134905 	ldmdacc	r3, {r0, r2, r8, fp, lr}
     474:	0800000b 	stmdaeq	r0, {r0, r1, r3}
     478:	0e03000d 	cdpeq	0, 0, cr0, cr3, cr13, {0}
     47c:	053b0b3a 	ldreq	r0, [fp, #-2874]!	; 0xfffff4c6
     480:	0b381349 	bleq	e051ac <shift+0xe051ac>
     484:	16090000 	strne	r0, [r9], -r0
     488:	3a0e0300 	bcc	381090 <shift+0x381090>
     48c:	49053b0b 	stmdbmi	r5, {r0, r1, r3, r8, r9, fp, ip, sp}
     490:	0a000013 	beq	4e4 <shift+0x4e4>
     494:	0e03012e 	adfeqsp	f0, f3, #0.5
     498:	053b0b3a 	ldreq	r0, [fp, #-2874]!	; 0xfffff4c6
     49c:	0b201927 	bleq	806940 <shift+0x806940>
     4a0:	00001301 	andeq	r1, r0, r1, lsl #6
     4a4:	0300050b 	movweq	r0, #1291	; 0x50b
     4a8:	3b0b3a0e 	blcc	2cece8 <shift+0x2cece8>
     4ac:	00134905 	andseq	r4, r3, r5, lsl #18
     4b0:	012e0c00 			; <UNDEFINED> instruction: 0x012e0c00
     4b4:	0e03193f 			; <UNDEFINED> instruction: 0x0e03193f
     4b8:	0b3b0b3a 	bleq	ec31a8 <shift+0xec31a8>
     4bc:	01111927 	tsteq	r1, r7, lsr #18
     4c0:	18400612 	stmdane	r0, {r1, r4, r9, sl}^
     4c4:	01194297 			; <UNDEFINED> instruction: 0x01194297
     4c8:	0d000013 	stceq	0, cr0, [r0, #-76]	; 0xffffffb4
     4cc:	1331011d 	teqne	r1, #1073741831	; 0x40000007
     4d0:	17550152 			; <UNDEFINED> instruction: 0x17550152
     4d4:	0b590b58 	bleq	164323c <shift+0x164323c>
     4d8:	00001301 	andeq	r1, r0, r1, lsl #6
     4dc:	3100050e 	tstcc	r0, lr, lsl #10
     4e0:	00061c13 	andeq	r1, r6, r3, lsl ip
     4e4:	00050f00 	andeq	r0, r5, r0, lsl #30
     4e8:	0b1c1331 	bleq	7051b4 <shift+0x7051b4>
     4ec:	1d100000 	ldcne	0, cr0, [r0, #-0]
     4f0:	52133101 	andspl	r3, r3, #1073741824	; 0x40000000
     4f4:	58175501 	ldmdapl	r7, {r0, r8, sl, ip, lr}
     4f8:	000b590b 	andeq	r5, fp, fp, lsl #18
     4fc:	00051100 	andeq	r1, r5, r0, lsl #2
     500:	051c1331 	ldreq	r1, [ip, #-817]	; 0xfffffccf
     504:	2e120000 	cdpcs	0, 1, cr0, cr2, cr0, {0}
     508:	03193f00 	tsteq	r9, #0, 30
     50c:	3b0b3a0e 	blcc	2ced4c <shift+0x2ced4c>
     510:	1119270b 	tstne	r9, fp, lsl #14
     514:	40061201 	andmi	r1, r6, r1, lsl #4
     518:	19429718 	stmdbne	r2, {r3, r4, r8, r9, sl, ip, pc}^
     51c:	01000000 	mrseq	r0, (UNDEF: 0)
     520:	0e250111 	mcreq	1, 1, r0, cr5, cr1, {0}
     524:	0e030b13 	vmoveq.32	d3[0], r0
     528:	01110e1b 	tsteq	r1, fp, lsl lr
     52c:	17100612 			; <UNDEFINED> instruction: 0x17100612
     530:	04020000 	streq	r0, [r2], #-0
     534:	3a0b0b01 	bcc	2c3140 <shift+0x2c3140>
     538:	010b3b0b 	tsteq	fp, fp, lsl #22
     53c:	03000013 	movweq	r0, #19
     540:	0e030028 	cdpeq	0, 0, cr0, cr3, cr8, {1}
     544:	00000d1c 	andeq	r0, r0, ip, lsl sp
     548:	03001604 	movweq	r1, #1540	; 0x604
     54c:	3b0b3a0e 	blcc	2ced8c <shift+0x2ced8c>
     550:	0013490b 	andseq	r4, r3, fp, lsl #18
     554:	00240500 	eoreq	r0, r4, r0, lsl #10
     558:	0b3e0b0b 	bleq	f8318c <shift+0xf8318c>
     55c:	00000e03 	andeq	r0, r0, r3, lsl #28
     560:	0b002406 	bleq	9580 <shift+0x9580>
     564:	030b3e0b 	movweq	r3, #48651	; 0xbe0b
     568:	07000008 	streq	r0, [r0, -r8]
     56c:	13490035 	movtne	r0, #36917	; 0x9035
     570:	13080000 	movwne	r0, #32768	; 0x8000
     574:	3a0b0b01 	bcc	2c3180 <shift+0x2c3180>
     578:	01053b0b 	tsteq	r5, fp, lsl #22
     57c:	09000013 	stmdbeq	r0, {r0, r1, r4}
     580:	0803000d 	stmdaeq	r3, {r0, r2, r3}
     584:	053b0b3a 	ldreq	r0, [fp, #-2874]!	; 0xfffff4c6
     588:	0b381349 	bleq	e052b4 <shift+0xe052b4>
     58c:	0d0a0000 	stceq	0, cr0, [sl, #-0]
     590:	3a0e0300 	bcc	381198 <shift+0x381198>
     594:	49053b0b 	stmdbmi	r5, {r0, r1, r3, r8, r9, fp, ip, sp}
     598:	000b3813 	andeq	r3, fp, r3, lsl r8
     59c:	00160b00 	andseq	r0, r6, r0, lsl #22
     5a0:	0b3a0e03 	bleq	e83db4 <shift+0xe83db4>
     5a4:	1349053b 	movtne	r0, #38203	; 0x953b
     5a8:	130c0000 	movwne	r0, #49152	; 0xc000
     5ac:	3a0b0b01 	bcc	2c31b8 <shift+0x2c31b8>
     5b0:	010b3b0b 	tsteq	fp, fp, lsl #22
     5b4:	0d000013 	stceq	0, cr0, [r0, #-76]	; 0xffffffb4
     5b8:	0e03000d 	cdpeq	0, 0, cr0, cr3, cr13, {0}
     5bc:	0b3b0b3a 	bleq	ec32ac <shift+0xec32ac>
     5c0:	0b381349 	bleq	e052ec <shift+0xe052ec>
     5c4:	2e0e0000 	cdpcs	0, 0, cr0, cr14, cr0, {0}
     5c8:	3a0e0301 	bcc	3811d4 <shift+0x3811d4>
     5cc:	27053b0b 	strcs	r3, [r5, -fp, lsl #22]
     5d0:	010b2019 	tsteq	fp, r9, lsl r0
     5d4:	0f000013 	svceq	0x00000013
     5d8:	0e030005 	cdpeq	0, 0, cr0, cr3, cr5, {0}
     5dc:	053b0b3a 	ldreq	r0, [fp, #-2874]!	; 0xfffff4c6
     5e0:	00001349 	andeq	r1, r0, r9, asr #6
     5e4:	03002e10 	movweq	r2, #3600	; 0xe10
     5e8:	3b0b3a0e 	blcc	2cee28 <shift+0x2cee28>
     5ec:	4919270b 	ldmdbmi	r9, {r0, r1, r3, r8, r9, sl, sp}
     5f0:	000b2013 	andeq	r2, fp, r3, lsl r0
     5f4:	012e1100 			; <UNDEFINED> instruction: 0x012e1100
     5f8:	0e03193f 			; <UNDEFINED> instruction: 0x0e03193f
     5fc:	0b3b0b3a 	bleq	ec32ec <shift+0xec32ec>
     600:	01111927 	tsteq	r1, r7, lsr #18
     604:	18400612 	stmdane	r0, {r1, r4, r9, sl}^
     608:	01194297 			; <UNDEFINED> instruction: 0x01194297
     60c:	12000013 	andne	r0, r0, #19
     610:	0e030034 	mcreq	0, 0, r0, cr3, cr4, {1}
     614:	0b3b0b3a 	bleq	ec3304 <shift+0xec3304>
     618:	18021349 	stmdane	r2, {r0, r3, r6, r8, r9, ip}
     61c:	1d130000 	ldcne	0, cr0, [r3, #-0]
     620:	52133101 	andspl	r3, r3, #1073741824	; 0x40000000
     624:	58175501 	ldmdapl	r7, {r0, r8, sl, ip, lr}
     628:	010b590b 	tsteq	fp, fp, lsl #18
     62c:	14000013 	strne	r0, [r0], #-19	; 0xffffffed
     630:	13310005 	teqne	r1, #5
     634:	0000061c 	andeq	r0, r0, ip, lsl r6
     638:	31000515 	tstcc	r0, r5, lsl r5
     63c:	000b1c13 	andeq	r1, fp, r3, lsl ip
     640:	00051600 	andeq	r1, r5, r0, lsl #12
     644:	051c1331 	ldreq	r1, [ip, #-817]	; 0xfffffccf
     648:	89170000 	ldmdbhi	r7, {}	; <UNPREDICTABLE>
     64c:	11010182 	smlabbne	r1, r2, r1, r0
     650:	00133101 	andseq	r3, r3, r1, lsl #2
     654:	828a1800 	addhi	r1, sl, #0, 16
     658:	18020001 	stmdane	r2, {r0}
     65c:	00184291 	mulseq	r8, r1, r2
     660:	012e1900 			; <UNDEFINED> instruction: 0x012e1900
     664:	0e03193f 			; <UNDEFINED> instruction: 0x0e03193f
     668:	0b3b0b3a 	bleq	ec3358 <shift+0xec3358>
     66c:	13491927 	movtne	r1, #39207	; 0x9927
     670:	06120111 			; <UNDEFINED> instruction: 0x06120111
     674:	42971840 	addsmi	r1, r7, #64, 16	; 0x400000
     678:	00130119 	andseq	r0, r3, r9, lsl r1
     67c:	00341a00 	eorseq	r1, r4, r0, lsl #20
     680:	0b3a0803 	bleq	e82694 <shift+0xe82694>
     684:	13490b3b 	movtne	r0, #39739	; 0x9b3b
     688:	00001702 	andeq	r1, r0, r2, lsl #14
     68c:	31011d1b 	tstcc	r1, fp, lsl sp
     690:	12011113 	andne	r1, r1, #-1073741820	; 0xc0000004
     694:	590b5806 	stmdbpl	fp, {r1, r2, fp, ip, lr}
     698:	0013010b 	andseq	r0, r3, fp, lsl #2
     69c:	012e1c00 			; <UNDEFINED> instruction: 0x012e1c00
     6a0:	0e03193f 			; <UNDEFINED> instruction: 0x0e03193f
     6a4:	0b3b0b3a 	bleq	ec3394 <shift+0xec3394>
     6a8:	193c1927 	ldmdbne	ip!, {r0, r1, r2, r5, r8, fp, ip}
     6ac:	00001301 	andeq	r1, r0, r1, lsl #6
     6b0:	4900051d 	stmdbmi	r0, {r0, r2, r3, r4, r8, sl}
     6b4:	1e000013 	mcrne	0, 0, r0, cr0, cr3, {0}
     6b8:	0b0b000f 	bleq	2c06fc <shift+0x2c06fc>
     6bc:	00001349 	andeq	r1, r0, r9, asr #6
     6c0:	3f012e1f 	svccc	0x00012e1f
     6c4:	3a0e0319 	bcc	381330 <shift+0x381330>
     6c8:	270b3b0b 	strcs	r3, [fp, -fp, lsl #22]
     6cc:	3c134919 			; <UNDEFINED> instruction: 0x3c134919
     6d0:	00130119 	andseq	r0, r3, r9, lsl r1
     6d4:	012e2000 			; <UNDEFINED> instruction: 0x012e2000
     6d8:	0e03193f 			; <UNDEFINED> instruction: 0x0e03193f
     6dc:	0b3b0b3a 	bleq	ec33cc <shift+0xec33cc>
     6e0:	193c1927 	ldmdbne	ip!, {r0, r1, r2, r5, r8, fp, ip}
     6e4:	01000000 	mrseq	r0, (UNDEF: 0)
     6e8:	0e250111 	mcreq	1, 1, r0, cr5, cr1, {0}
     6ec:	0e030b13 	vmoveq.32	d3[0], r0
     6f0:	01110e1b 	tsteq	r1, fp, lsl lr
     6f4:	17100612 			; <UNDEFINED> instruction: 0x17100612
     6f8:	24020000 	strcs	r0, [r2], #-0
     6fc:	3e0b0b00 	vmlacc.f64	d0, d11, d0
     700:	000e030b 	andeq	r0, lr, fp, lsl #6
     704:	00240300 	eoreq	r0, r4, r0, lsl #6
     708:	0b3e0b0b 	bleq	f8333c <shift+0xf8333c>
     70c:	00000803 	andeq	r0, r0, r3, lsl #16
     710:	03001604 	movweq	r1, #1540	; 0x604
     714:	3b0b3a0e 	blcc	2cef54 <shift+0x2cef54>
     718:	0013490b 	andseq	r4, r3, fp, lsl #18
     71c:	00350500 	eorseq	r0, r5, r0, lsl #10
     720:	00001349 	andeq	r1, r0, r9, asr #6
     724:	0b011306 	bleq	45344 <shift+0x45344>
     728:	3b0b3a0b 	blcc	2cef5c <shift+0x2cef5c>
     72c:	00130105 	andseq	r0, r3, r5, lsl #2
     730:	000d0700 	andeq	r0, sp, r0, lsl #14
     734:	0b3a0803 	bleq	e82748 <shift+0xe82748>
     738:	1349053b 	movtne	r0, #38203	; 0x953b
     73c:	00000b38 	andeq	r0, r0, r8, lsr fp
     740:	03000d08 	movweq	r0, #3336	; 0xd08
     744:	3b0b3a0e 	blcc	2cef84 <shift+0x2cef84>
     748:	38134905 	ldmdacc	r3, {r0, r2, r8, fp, lr}
     74c:	0900000b 	stmdbeq	r0, {r0, r1, r3}
     750:	0e030016 	mcreq	0, 0, r0, cr3, cr6, {0}
     754:	053b0b3a 	ldreq	r0, [fp, #-2874]!	; 0xfffff4c6
     758:	00001349 	andeq	r1, r0, r9, asr #6
     75c:	0b01040a 	bleq	4178c <shift+0x4178c>
     760:	3b0b3a0b 	blcc	2cef94 <shift+0x2cef94>
     764:	0013010b 	andseq	r0, r3, fp, lsl #2
     768:	00280b00 	eoreq	r0, r8, r0, lsl #22
     76c:	0d1c0e03 	ldceq	14, cr0, [ip, #-12]
     770:	130c0000 	movwne	r0, #49152	; 0xc000
     774:	3a0b0b01 	bcc	2c3380 <shift+0x2c3380>
     778:	010b3b0b 	tsteq	fp, fp, lsl #22
     77c:	0d000013 	stceq	0, cr0, [r0, #-76]	; 0xffffffb4
     780:	0e03000d 	cdpeq	0, 0, cr0, cr3, cr13, {0}
     784:	0b3b0b3a 	bleq	ec3474 <shift+0xec3474>
     788:	0b381349 	bleq	e054b4 <shift+0xe054b4>
     78c:	2e0e0000 	cdpcs	0, 0, cr0, cr14, cr0, {0}
     790:	03193f01 	tsteq	r9, #1, 30
     794:	3b0b3a0e 	blcc	2cefd4 <shift+0x2cefd4>
     798:	2019270b 	andscs	r2, r9, fp, lsl #14
     79c:	0013010b 	andseq	r0, r3, fp, lsl #2
     7a0:	00050f00 	andeq	r0, r5, r0, lsl #30
     7a4:	0b3a0e03 	bleq	e83fb8 <shift+0xe83fb8>
     7a8:	13490b3b 	movtne	r0, #39739	; 0x9b3b
     7ac:	05100000 	ldreq	r0, [r0, #-0]
     7b0:	3a080300 	bcc	2013b8 <shift+0x2013b8>
     7b4:	490b3b0b 	stmdbmi	fp, {r0, r1, r3, r8, r9, fp, ip, sp}
     7b8:	11000013 	tstne	r0, r3, lsl r0
     7bc:	0b0b000f 	bleq	2c0800 <shift+0x2c0800>
     7c0:	00001349 	andeq	r1, r0, r9, asr #6
     7c4:	3f012e12 	svccc	0x00012e12
     7c8:	3a0e0319 	bcc	381434 <shift+0x381434>
     7cc:	270b3b0b 	strcs	r3, [fp, -fp, lsl #22]
     7d0:	12011119 	andne	r1, r1, #1073741830	; 0x40000006
     7d4:	97184006 	ldrls	r4, [r8, -r6]
     7d8:	13011942 	movwne	r1, #6466	; 0x1942
     7dc:	05130000 	ldreq	r0, [r3, #-0]
     7e0:	3a0e0300 	bcc	3813e8 <shift+0x3813e8>
     7e4:	490b3b0b 	stmdbmi	fp, {r0, r1, r3, r8, r9, fp, ip, sp}
     7e8:	00180213 	andseq	r0, r8, r3, lsl r2
     7ec:	00051400 	andeq	r1, r5, r0, lsl #8
     7f0:	0b3a0803 	bleq	e82804 <shift+0xe82804>
     7f4:	13490b3b 	movtne	r0, #39739	; 0x9b3b
     7f8:	00001802 	andeq	r1, r0, r2, lsl #16
     7fc:	03000515 	movweq	r0, #1301	; 0x515
     800:	3b0b3a08 	blcc	2cf028 <shift+0x2cf028>
     804:	0213490b 	andseq	r4, r3, #180224	; 0x2c000
     808:	16000017 			; <UNDEFINED> instruction: 0x16000017
     80c:	0e030005 	cdpeq	0, 0, cr0, cr3, cr5, {0}
     810:	0b3b0b3a 	bleq	ec3500 <shift+0xec3500>
     814:	17021349 	strne	r1, [r2, -r9, asr #6]
     818:	34170000 	ldrcc	r0, [r7], #-0
     81c:	3a080300 	bcc	201424 <shift+0x201424>
     820:	490b3b0b 	stmdbmi	fp, {r0, r1, r3, r8, r9, fp, ip, sp}
     824:	00170213 	andseq	r0, r7, r3, lsl r2
     828:	00341800 	eorseq	r1, r4, r0, lsl #16
     82c:	0b3a0e03 	bleq	e84040 <shift+0xe84040>
     830:	13490b3b 	movtne	r0, #39739	; 0x9b3b
     834:	00001702 	andeq	r1, r0, r2, lsl #14
     838:	31011d19 	tstcc	r1, r9, lsl sp
     83c:	55015213 	strpl	r5, [r1, #-531]	; 0xfffffded
     840:	590b5817 	stmdbpl	fp, {r0, r1, r2, r4, fp, ip, lr}
     844:	0013010b 	andseq	r0, r3, fp, lsl #2
     848:	00051a00 	andeq	r1, r5, r0, lsl #20
     84c:	17021331 	smladxne	r2, r1, r3, r1
     850:	0b1b0000 	bleq	6c0858 <shift+0x6c0858>
     854:	00175501 	andseq	r5, r7, r1, lsl #10
     858:	82891c00 	addhi	r1, r9, #0, 24
     85c:	01110101 	tsteq	r1, r1, lsl #2
     860:	31194295 			; <UNDEFINED> instruction: 0x31194295
     864:	00130113 	andseq	r0, r3, r3, lsl r1
     868:	828a1d00 	addhi	r1, sl, #0, 26
     86c:	18020001 	stmdane	r2, {r0}
     870:	00184291 	mulseq	r8, r1, r2
     874:	82891e00 	addhi	r1, r9, #0, 28
     878:	01110101 	tsteq	r1, r1, lsl #2
     87c:	31194295 			; <UNDEFINED> instruction: 0x31194295
     880:	1f000013 	svcne	0x00000013
     884:	1331012e 	teqne	r1, #-2147483637	; 0x8000000b
     888:	06120111 			; <UNDEFINED> instruction: 0x06120111
     88c:	42971840 	addsmi	r1, r7, #64, 16	; 0x400000
     890:	00130119 	andseq	r0, r3, r9, lsl r1
     894:	00052000 	andeq	r2, r5, r0
     898:	18021331 	stmdane	r2, {r0, r4, r5, r8, r9, ip}
     89c:	05210000 	streq	r0, [r1, #-0]!
     8a0:	1c133100 	ldfnes	f3, [r3], {-0}
     8a4:	2200000b 	andcs	r0, r0, #11
     8a8:	193f012e 	ldmdbne	pc!, {r1, r2, r3, r5, r8}	; <UNPREDICTABLE>
     8ac:	0b3a0e03 	bleq	e840c0 <shift+0xe840c0>
     8b0:	19270b3b 	stmdbne	r7!, {r0, r1, r3, r4, r5, r8, r9, fp}
     8b4:	01111349 	tsteq	r1, r9, asr #6
     8b8:	18400612 	stmdane	r0, {r1, r4, r9, sl}^
     8bc:	00194297 	mulseq	r9, r7, r2
     8c0:	11010000 	mrsne	r0, (UNDEF: 1)
     8c4:	130e2501 	movwne	r2, #58625	; 0xe501
     8c8:	1b0e030b 	blne	3814fc <shift+0x3814fc>
     8cc:	1201110e 	andne	r1, r1, #-2147483645	; 0x80000003
     8d0:	00171006 	andseq	r1, r7, r6
     8d4:	00240200 	eoreq	r0, r4, r0, lsl #4
     8d8:	0b3e0b0b 	bleq	f8350c <shift+0xf8350c>
     8dc:	00000e03 	andeq	r0, r0, r3, lsl #28
     8e0:	0b002403 	bleq	98f4 <shift+0x98f4>
     8e4:	030b3e0b 	movweq	r3, #48651	; 0xbe0b
     8e8:	04000008 	streq	r0, [r0], #-8
     8ec:	0e030104 	adfeqs	f0, f3, f4
     8f0:	0b3a0b0b 	bleq	e83524 <shift+0xe83524>
     8f4:	13010b3b 	movwne	r0, #6971	; 0x1b3b
     8f8:	28050000 	stmdacs	r5, {}	; <UNPREDICTABLE>
     8fc:	1c0e0300 	stcne	3, cr0, [lr], {-0}
     900:	0600000d 	streq	r0, [r0], -sp
     904:	0e030016 	mcreq	0, 0, r0, cr3, cr6, {0}
     908:	0b3b0b3a 	bleq	ec35f8 <shift+0xec35f8>
     90c:	00001349 	andeq	r1, r0, r9, asr #6
     910:	0b000f07 	bleq	4534 <shift+0x4534>
     914:	0800000b 	stmdaeq	r0, {r0, r1, r3}
     918:	050b0113 	streq	r0, [fp, #-275]	; 0xfffffeed
     91c:	053b0b3a 	ldreq	r0, [fp, #-2874]!	; 0xfffff4c6
     920:	00001301 	andeq	r1, r0, r1, lsl #6
     924:	03000d09 	movweq	r0, #3337	; 0xd09
     928:	3b0b3a0e 	blcc	2cf168 <shift+0x2cf168>
     92c:	38134905 	ldmdacc	r3, {r0, r2, r8, fp, lr}
     930:	0a00000b 	beq	964 <shift+0x964>
     934:	0e03000d 	cdpeq	0, 0, cr0, cr3, cr13, {0}
     938:	053b0b3a 	ldreq	r0, [fp, #-2874]!	; 0xfffff4c6
     93c:	05381349 	ldreq	r1, [r8, #-841]!	; 0xfffffcb7
     940:	010b0000 	mrseq	r0, (UNDEF: 11)
     944:	01134901 	tsteq	r3, r1, lsl #18
     948:	0c000013 	stceq	0, cr0, [r0], {19}
     94c:	13490021 	movtne	r0, #36897	; 0x9021
     950:	0000052f 	andeq	r0, r0, pc, lsr #10
     954:	4900350d 	stmdbmi	r0, {r0, r2, r3, r8, sl, ip, sp}
     958:	0e000013 	mcreq	0, 0, r0, cr0, cr3, {0}
     95c:	13490026 	movtne	r0, #36902	; 0x9026
     960:	210f0000 	mrscs	r0, CPSR
     964:	2f134900 	svccs	0x00134900
     968:	1000000b 	andne	r0, r0, fp
     96c:	0e030016 	mcreq	0, 0, r0, cr3, cr6, {0}
     970:	053b0b3a 	ldreq	r0, [fp, #-2874]!	; 0xfffff4c6
     974:	00001349 	andeq	r1, r0, r9, asr #6
     978:	0b000f11 	bleq	45c4 <shift+0x45c4>
     97c:	0013490b 	andseq	r4, r3, fp, lsl #18
     980:	01151200 	tsteq	r5, r0, lsl #4
     984:	13011927 	movwne	r1, #6439	; 0x1927
     988:	05130000 	ldreq	r0, [r3, #-0]
     98c:	00134900 	andseq	r4, r3, r0, lsl #18
     990:	01131400 	tsteq	r3, r0, lsl #8
     994:	0b3a0b0b 	bleq	e835c8 <shift+0xe835c8>
     998:	13010b3b 	movwne	r0, #6971	; 0x1b3b
     99c:	0d150000 	ldceq	0, cr0, [r5, #-0]
     9a0:	3a0e0300 	bcc	3815a8 <shift+0x3815a8>
     9a4:	490b3b0b 	stmdbmi	fp, {r0, r1, r3, r8, r9, fp, ip, sp}
     9a8:	000b3813 	andeq	r3, fp, r3, lsl r8
     9ac:	012e1600 			; <UNDEFINED> instruction: 0x012e1600
     9b0:	0b3a0e03 	bleq	e841c4 <shift+0xe841c4>
     9b4:	1927053b 	stmdbne	r7!, {r0, r1, r3, r4, r5, r8, sl}
     9b8:	0b201349 	bleq	8056e4 <shift+0x8056e4>
     9bc:	00001301 	andeq	r1, r0, r1, lsl #6
     9c0:	00010b17 	andeq	r0, r1, r7, lsl fp
     9c4:	00341800 	eorseq	r1, r4, r0, lsl #16
     9c8:	0b3a0e03 	bleq	e841dc <shift+0xe841dc>
     9cc:	1349053b 	movtne	r0, #38203	; 0x953b
     9d0:	2e190000 	cdpcs	0, 1, cr0, cr9, cr0, {0}
     9d4:	3a0e0301 	bcc	3815e0 <shift+0x3815e0>
     9d8:	27053b0b 	strcs	r3, [r5, -fp, lsl #22]
     9dc:	010b2019 	tsteq	fp, r9, lsl r0
     9e0:	1a000013 	bne	a34 <shift+0xa34>
     9e4:	08030034 	stmdaeq	r3, {r2, r4, r5}
     9e8:	053b0b3a 	ldreq	r0, [fp, #-2874]!	; 0xfffff4c6
     9ec:	00001349 	andeq	r1, r0, r9, asr #6
     9f0:	3f012e1b 	svccc	0x00012e1b
     9f4:	3a0e0319 	bcc	381660 <shift+0x381660>
     9f8:	270b3b0b 	strcs	r3, [fp, -fp, lsl #22]
     9fc:	010b2019 	tsteq	fp, r9, lsl r0
     a00:	1c000013 	stcne	0, cr0, [r0], {19}
     a04:	08030034 	stmdaeq	r3, {r2, r4, r5}
     a08:	0b3b0b3a 	bleq	ec36f8 <shift+0xec36f8>
     a0c:	00001349 	andeq	r1, r0, r9, asr #6
     a10:	0300051d 	movweq	r0, #1309	; 0x51d
     a14:	3b0b3a0e 	blcc	2cf254 <shift+0x2cf254>
     a18:	00134905 	andseq	r4, r3, r5, lsl #18
     a1c:	012e1e00 			; <UNDEFINED> instruction: 0x012e1e00
     a20:	0e03193f 			; <UNDEFINED> instruction: 0x0e03193f
     a24:	0b3b0b3a 	bleq	ec3714 <shift+0xec3714>
     a28:	01111927 	tsteq	r1, r7, lsr #18
     a2c:	18400612 	stmdane	r0, {r1, r4, r9, sl}^
     a30:	01194297 			; <UNDEFINED> instruction: 0x01194297
     a34:	1f000013 	svcne	0x00000013
     a38:	0e030005 	cdpeq	0, 0, cr0, cr3, cr5, {0}
     a3c:	0b3b0b3a 	bleq	ec372c <shift+0xec372c>
     a40:	18021349 	stmdane	r2, {r0, r3, r6, r8, r9, ip}
     a44:	2e200000 	cdpcs	0, 2, cr0, cr0, cr0, {0}
     a48:	11133101 	tstne	r3, r1, lsl #2
     a4c:	40061201 	andmi	r1, r6, r1, lsl #4
     a50:	19429718 	stmdbne	r2, {r3, r4, r8, r9, sl, ip, pc}^
     a54:	00001301 	andeq	r1, r0, r1, lsl #6
     a58:	11010b21 	tstne	r1, r1, lsr #22
     a5c:	00061201 	andeq	r1, r6, r1, lsl #4
     a60:	00342200 	eorseq	r2, r4, r0, lsl #4
     a64:	17021331 	smladxne	r2, r1, r3, r1
     a68:	05230000 	streq	r0, [r3, #-0]!
     a6c:	3a080300 	bcc	201674 <shift+0x201674>
     a70:	490b3b0b 	stmdbmi	fp, {r0, r1, r3, r8, r9, fp, ip, sp}
     a74:	00180213 	andseq	r0, r8, r3, lsl r2
     a78:	011d2400 	tsteq	sp, r0, lsl #8
     a7c:	01521331 	cmpeq	r2, r1, lsr r3
     a80:	0b581755 	bleq	16067dc <shift+0x16067dc>
     a84:	13010b59 	movwne	r0, #7001	; 0x1b59
     a88:	0b250000 	bleq	940a90 <shift+0x940a90>
     a8c:	00175501 	andseq	r5, r7, r1, lsl #10
     a90:	011d2600 	tsteq	sp, r0, lsl #12
     a94:	01111331 	tsteq	r1, r1, lsr r3
     a98:	0b580612 	bleq	16022e8 <shift+0x16022e8>
     a9c:	00000559 	andeq	r0, r0, r9, asr r5
     aa0:	31003427 	tstcc	r0, r7, lsr #8
     aa4:	28000013 	stmdacs	r0, {r0, r1, r4}
     aa8:	1331011d 	teqne	r1, #1073741831	; 0x40000007
     aac:	06120111 			; <UNDEFINED> instruction: 0x06120111
     ab0:	0b590b58 	bleq	1643818 <shift+0x1643818>
     ab4:	05290000 	streq	r0, [r9, #-0]!
     ab8:	1c133100 	ldfnes	f3, [r3], {-0}
     abc:	2a00000d 	bcs	af8 <shift+0xaf8>
     ac0:	0e030005 	cdpeq	0, 0, cr0, cr3, cr5, {0}
     ac4:	0b3b0b3a 	bleq	ec37b4 <shift+0xec37b4>
     ac8:	17021349 	strne	r1, [r2, -r9, asr #6]
     acc:	892b0000 	stmdbhi	fp!, {}	; <UNPREDICTABLE>
     ad0:	11010182 	smlabbne	r1, r2, r1, r0
     ad4:	2c000001 	stccs	0, cr0, [r0], {1}
     ad8:	0001828a 	andeq	r8, r1, sl, lsl #5
     adc:	42911802 	addsmi	r1, r1, #131072	; 0x20000
     ae0:	2d000018 	stccs	0, cr0, [r0, #-96]	; 0xffffffa0
     ae4:	0e030034 	mcreq	0, 0, r0, cr3, cr4, {1}
     ae8:	0b3b0b3a 	bleq	ec37d8 <shift+0xec37d8>
     aec:	18021349 	stmdane	r2, {r0, r3, r6, r8, r9, ip}
     af0:	01000000 	mrseq	r0, (UNDEF: 0)
     af4:	0e250111 	mcreq	1, 1, r0, cr5, cr1, {0}
     af8:	0e030b13 	vmoveq.32	d3[0], r0
     afc:	01110e1b 	tsteq	r1, fp, lsl lr
     b00:	17100612 			; <UNDEFINED> instruction: 0x17100612
     b04:	24020000 	strcs	r0, [r2], #-0
     b08:	3e0b0b00 	vmlacc.f64	d0, d11, d0
     b0c:	000e030b 	andeq	r0, lr, fp, lsl #6
     b10:	00240300 	eoreq	r0, r4, r0, lsl #6
     b14:	0b3e0b0b 	bleq	f83748 <shift+0xf83748>
     b18:	00000803 	andeq	r0, r0, r3, lsl #16
     b1c:	03001604 	movweq	r1, #1540	; 0x604
     b20:	3b0b3a0e 	blcc	2cf360 <shift+0x2cf360>
     b24:	0013490b 	andseq	r4, r3, fp, lsl #18
     b28:	01040500 	tsteq	r4, r0, lsl #10
     b2c:	0b0b0e03 	bleq	2c4340 <shift+0x2c4340>
     b30:	0b3b0b3a 	bleq	ec3820 <shift+0xec3820>
     b34:	00001301 	andeq	r1, r0, r1, lsl #6
     b38:	03002806 	movweq	r2, #2054	; 0x806
     b3c:	000d1c0e 	andeq	r1, sp, lr, lsl #24
     b40:	00350700 	eorseq	r0, r5, r0, lsl #14
     b44:	00001349 	andeq	r1, r0, r9, asr #6
     b48:	0b011308 	bleq	45770 <shift+0x45770>
     b4c:	3b0b3a0b 	blcc	2cf380 <shift+0x2cf380>
     b50:	00130105 	andseq	r0, r3, r5, lsl #2
     b54:	000d0900 	andeq	r0, sp, r0, lsl #18
     b58:	0b3a0803 	bleq	e82b6c <shift+0xe82b6c>
     b5c:	1349053b 	movtne	r0, #38203	; 0x953b
     b60:	00000b38 	andeq	r0, r0, r8, lsr fp
     b64:	03000d0a 	movweq	r0, #3338	; 0xd0a
     b68:	3b0b3a0e 	blcc	2cf3a8 <shift+0x2cf3a8>
     b6c:	38134905 	ldmdacc	r3, {r0, r2, r8, fp, lr}
     b70:	0b00000b 	bleq	ba4 <shift+0xba4>
     b74:	0e030016 	mcreq	0, 0, r0, cr3, cr6, {0}
     b78:	053b0b3a 	ldreq	r0, [fp, #-2874]!	; 0xfffff4c6
     b7c:	00001349 	andeq	r1, r0, r9, asr #6
     b80:	0b000f0c 	bleq	47b8 <shift+0x47b8>
     b84:	0d00000b 	stceq	0, cr0, [r0, #-44]	; 0xffffffd4
     b88:	050b0113 	streq	r0, [fp, #-275]	; 0xfffffeed
     b8c:	053b0b3a 	ldreq	r0, [fp, #-2874]!	; 0xfffff4c6
     b90:	00001301 	andeq	r1, r0, r1, lsl #6
     b94:	03000d0e 	movweq	r0, #3342	; 0xd0e
     b98:	3b0b3a0e 	blcc	2cf3d8 <shift+0x2cf3d8>
     b9c:	38134905 	ldmdacc	r3, {r0, r2, r8, fp, lr}
     ba0:	0f000005 	svceq	0x00000005
     ba4:	13490101 	movtne	r0, #37121	; 0x9101
     ba8:	00001301 	andeq	r1, r0, r1, lsl #6
     bac:	49002110 	stmdbmi	r0, {r4, r8, sp}
     bb0:	00052f13 	andeq	r2, r5, r3, lsl pc
     bb4:	00261100 	eoreq	r1, r6, r0, lsl #2
     bb8:	00001349 	andeq	r1, r0, r9, asr #6
     bbc:	49002112 	stmdbmi	r0, {r1, r4, r8, sp}
     bc0:	000b2f13 	andeq	r2, fp, r3, lsl pc
     bc4:	01041300 	mrseq	r1, LR_abt
     bc8:	0b3a0b0b 	bleq	e837fc <shift+0xe837fc>
     bcc:	13010b3b 	movwne	r0, #6971	; 0x1b3b
     bd0:	13140000 	tstne	r4, #0
     bd4:	3a0b0b01 	bcc	2c37e0 <shift+0x2c37e0>
     bd8:	010b3b0b 	tsteq	fp, fp, lsl #22
     bdc:	15000013 	strne	r0, [r0, #-19]	; 0xffffffed
     be0:	0e03000d 	cdpeq	0, 0, cr0, cr3, cr13, {0}
     be4:	0b3b0b3a 	bleq	ec38d4 <shift+0xec38d4>
     be8:	0b381349 	bleq	e05914 <shift+0xe05914>
     bec:	0f160000 	svceq	0x00160000
     bf0:	490b0b00 	stmdbmi	fp, {r8, r9, fp}
     bf4:	17000013 	smladne	r0, r3, r0, r0
     bf8:	19270115 	stmdbne	r7!, {r0, r2, r4, r8}
     bfc:	00001301 	andeq	r1, r0, r1, lsl #6
     c00:	49000518 	stmdbmi	r0, {r3, r4, r8, sl}
     c04:	19000013 	stmdbne	r0, {r0, r1, r4}
     c08:	0e03012e 	adfeqsp	f0, f3, #0.5
     c0c:	053b0b3a 	ldreq	r0, [fp, #-2874]!	; 0xfffff4c6
     c10:	13491927 	movtne	r1, #39207	; 0x9927
     c14:	13010b20 	movwne	r0, #6944	; 0x1b20
     c18:	0b1a0000 	bleq	680c20 <shift+0x680c20>
     c1c:	1b000001 	blne	c28 <shift+0xc28>
     c20:	0e030034 	mcreq	0, 0, r0, cr3, cr4, {1}
     c24:	053b0b3a 	ldreq	r0, [fp, #-2874]!	; 0xfffff4c6
     c28:	00001349 	andeq	r1, r0, r9, asr #6
     c2c:	03012e1c 	movweq	r2, #7708	; 0x1e1c
     c30:	3b0b3a0e 	blcc	2cf470 <shift+0x2cf470>
     c34:	20192705 	andscs	r2, r9, r5, lsl #14
     c38:	0013010b 	andseq	r0, r3, fp, lsl #2
     c3c:	00051d00 	andeq	r1, r5, r0, lsl #26
     c40:	0b3a0e03 	bleq	e84454 <shift+0xe84454>
     c44:	1349053b 	movtne	r0, #38203	; 0x953b
     c48:	341e0000 	ldrcc	r0, [lr], #-0
     c4c:	3a080300 	bcc	201854 <shift+0x201854>
     c50:	49053b0b 	stmdbmi	r5, {r0, r1, r3, r8, r9, fp, ip, sp}
     c54:	1f000013 	svcne	0x00000013
     c58:	0e03012e 	adfeqsp	f0, f3, #0.5
     c5c:	0b3b0b3a 	bleq	ec394c <shift+0xec394c>
     c60:	01111927 	tsteq	r1, r7, lsr #18
     c64:	18400612 	stmdane	r0, {r1, r4, r9, sl}^
     c68:	01194297 			; <UNDEFINED> instruction: 0x01194297
     c6c:	20000013 	andcs	r0, r0, r3, lsl r0
     c70:	0e030005 	cdpeq	0, 0, cr0, cr3, cr5, {0}
     c74:	0b3b0b3a 	bleq	ec3964 <shift+0xec3964>
     c78:	17021349 	strne	r1, [r2, -r9, asr #6]
     c7c:	89210000 	stmdbhi	r1!, {}	; <UNPREDICTABLE>
     c80:	11010182 	smlabbne	r1, r2, r1, r0
     c84:	01133101 	tsteq	r3, r1, lsl #2
     c88:	22000013 	andcs	r0, r0, #19
     c8c:	0001828a 	andeq	r8, r1, sl, lsl #5
     c90:	42911802 	addsmi	r1, r1, #131072	; 0x20000
     c94:	23000018 	movwcs	r0, #24
     c98:	00018289 	andeq	r8, r1, r9, lsl #5
     c9c:	13310111 	teqne	r1, #1073741828	; 0x40000004
     ca0:	89240000 	stmdbhi	r4!, {}	; <UNPREDICTABLE>
     ca4:	11010182 	smlabbne	r1, r2, r1, r0
     ca8:	19429501 	stmdbne	r2, {r0, r8, sl, ip, pc}^
     cac:	00001331 	andeq	r1, r0, r1, lsr r3
     cb0:	3f012e25 	svccc	0x00012e25
     cb4:	3a0e0319 	bcc	381920 <shift+0x381920>
     cb8:	270b3b0b 	strcs	r3, [fp, -fp, lsl #22]
     cbc:	12011119 	andne	r1, r1, #1073741830	; 0x40000006
     cc0:	97184006 	ldrls	r4, [r8, -r6]
     cc4:	13011942 	movwne	r1, #6466	; 0x1942
     cc8:	34260000 	strtcc	r0, [r6], #-0
     ccc:	3a0e0300 	bcc	3818d4 <shift+0x3818d4>
     cd0:	490b3b0b 	stmdbmi	fp, {r0, r1, r3, r8, r9, fp, ip, sp}
     cd4:	00180213 	andseq	r0, r8, r3, lsl r2
     cd8:	011d2700 	tsteq	sp, r0, lsl #14
     cdc:	01521331 	cmpeq	r2, r1, lsr r3
     ce0:	0b581755 	bleq	1606a3c <shift+0x1606a3c>
     ce4:	13010b59 	movwne	r0, #7001	; 0x1b59
     ce8:	05280000 	streq	r0, [r8, #-0]!
     cec:	1c133100 	ldfnes	f3, [r3], {-0}
     cf0:	29000006 	stmdbcs	r0, {r1, r2}
     cf4:	13310005 	teqne	r1, #5
     cf8:	00000b1c 	andeq	r0, r0, ip, lsl fp
     cfc:	3100052a 	tstcc	r0, sl, lsr #10
     d00:	00051c13 	andeq	r1, r5, r3, lsl ip
     d04:	010b2b00 	tsteq	fp, r0, lsl #22
     d08:	00001755 	andeq	r1, r0, r5, asr r7
     d0c:	3100342c 	tstcc	r0, ip, lsr #8
     d10:	00170213 	andseq	r0, r7, r3, lsl r2
     d14:	011d2d00 	tsteq	sp, r0, lsl #26
     d18:	01111331 	tsteq	r1, r1, lsr r3
     d1c:	0b580612 	bleq	160256c <shift+0x160256c>
     d20:	00000559 	andeq	r0, r0, r9, asr r5
     d24:	11010b2e 	tstne	r1, lr, lsr #22
     d28:	00061201 	andeq	r1, r6, r1, lsl #4
     d2c:	82892f00 	addhi	r2, r9, #0, 30
     d30:	01110101 	tsteq	r1, r1, lsl #2
     d34:	00001331 	andeq	r1, r0, r1, lsr r3
     d38:	3f012e30 	svccc	0x00012e30
     d3c:	3a0e0319 	bcc	3819a8 <shift+0x3819a8>
     d40:	270b3b0b 	strcs	r3, [fp, -fp, lsl #22]
     d44:	01193c19 	tsteq	r9, r9, lsl ip
     d48:	31000013 	tstcc	r0, r3, lsl r0
     d4c:	193f012e 	ldmdbne	pc!, {r1, r2, r3, r5, r8}	; <UNPREDICTABLE>
     d50:	0b3a0e03 	bleq	e84564 <shift+0xe84564>
     d54:	19270b3b 	stmdbne	r7!, {r0, r1, r3, r4, r5, r8, r9, fp}
     d58:	193c1349 	ldmdbne	ip!, {r0, r3, r6, r8, r9, ip}
     d5c:	00001301 	andeq	r1, r0, r1, lsl #6
     d60:	3f002e32 	svccc	0x00002e32
     d64:	3a0e0319 	bcc	3819d0 <shift+0x3819d0>
     d68:	270b3b0b 	strcs	r3, [fp, -fp, lsl #22]
     d6c:	00193c19 	andseq	r3, r9, r9, lsl ip
     d70:	012e3300 			; <UNDEFINED> instruction: 0x012e3300
     d74:	0e03193f 			; <UNDEFINED> instruction: 0x0e03193f
     d78:	0b3b0b3a 	bleq	ec3a68 <shift+0xec3a68>
     d7c:	193c1927 	ldmdbne	ip!, {r0, r1, r2, r5, r8, fp, ip}
     d80:	01000000 	mrseq	r0, (UNDEF: 0)
     d84:	0e250111 	mcreq	1, 1, r0, cr5, cr1, {0}
     d88:	0e030b13 	vmoveq.32	d3[0], r0
     d8c:	01110e1b 	tsteq	r1, fp, lsl lr
     d90:	17100612 			; <UNDEFINED> instruction: 0x17100612
     d94:	24020000 	strcs	r0, [r2], #-0
     d98:	3e0b0b00 	vmlacc.f64	d0, d11, d0
     d9c:	000e030b 	andeq	r0, lr, fp, lsl #6
     da0:	00240300 	eoreq	r0, r4, r0, lsl #6
     da4:	0b3e0b0b 	bleq	f839d8 <shift+0xf839d8>
     da8:	00000803 	andeq	r0, r0, r3, lsl #16
     dac:	03001604 	movweq	r1, #1540	; 0x604
     db0:	3b0b3a0e 	blcc	2cf5f0 <shift+0x2cf5f0>
     db4:	0013490b 	andseq	r4, r3, fp, lsl #18
     db8:	01040500 	tsteq	r4, r0, lsl #10
     dbc:	0b0b0e03 	bleq	2c45d0 <shift+0x2c45d0>
     dc0:	0b3b0b3a 	bleq	ec3ab0 <shift+0xec3ab0>
     dc4:	00001301 	andeq	r1, r0, r1, lsl #6
     dc8:	03002806 	movweq	r2, #2054	; 0x806
     dcc:	000d1c0e 	andeq	r1, sp, lr, lsl #24
     dd0:	00350700 	eorseq	r0, r5, r0, lsl #14
     dd4:	00001349 	andeq	r1, r0, r9, asr #6
     dd8:	0b011308 	bleq	45a00 <shift+0x45a00>
     ddc:	3b0b3a0b 	blcc	2cf610 <shift+0x2cf610>
     de0:	00130105 	andseq	r0, r3, r5, lsl #2
     de4:	000d0900 	andeq	r0, sp, r0, lsl #18
     de8:	0b3a0803 	bleq	e82dfc <shift+0xe82dfc>
     dec:	1349053b 	movtne	r0, #38203	; 0x953b
     df0:	00000b38 	andeq	r0, r0, r8, lsr fp
     df4:	03000d0a 	movweq	r0, #3338	; 0xd0a
     df8:	3b0b3a0e 	blcc	2cf638 <shift+0x2cf638>
     dfc:	38134905 	ldmdacc	r3, {r0, r2, r8, fp, lr}
     e00:	0b00000b 	bleq	e34 <shift+0xe34>
     e04:	0e030016 	mcreq	0, 0, r0, cr3, cr6, {0}
     e08:	053b0b3a 	ldreq	r0, [fp, #-2874]!	; 0xfffff4c6
     e0c:	00001349 	andeq	r1, r0, r9, asr #6
     e10:	0b000f0c 	bleq	4a48 <shift+0x4a48>
     e14:	0d00000b 	stceq	0, cr0, [r0, #-44]	; 0xffffffd4
     e18:	050b0113 	streq	r0, [fp, #-275]	; 0xfffffeed
     e1c:	053b0b3a 	ldreq	r0, [fp, #-2874]!	; 0xfffff4c6
     e20:	00001301 	andeq	r1, r0, r1, lsl #6
     e24:	03000d0e 	movweq	r0, #3342	; 0xd0e
     e28:	3b0b3a0e 	blcc	2cf668 <shift+0x2cf668>
     e2c:	38134905 	ldmdacc	r3, {r0, r2, r8, fp, lr}
     e30:	0f000005 	svceq	0x00000005
     e34:	13490101 	movtne	r0, #37121	; 0x9101
     e38:	00001301 	andeq	r1, r0, r1, lsl #6
     e3c:	49002110 	stmdbmi	r0, {r4, r8, sp}
     e40:	00052f13 	andeq	r2, r5, r3, lsl pc
     e44:	00261100 	eoreq	r1, r6, r0, lsl #2
     e48:	00001349 	andeq	r1, r0, r9, asr #6
     e4c:	49002112 	stmdbmi	r0, {r1, r4, r8, sp}
     e50:	000b2f13 	andeq	r2, fp, r3, lsl pc
     e54:	000f1300 	andeq	r1, pc, r0, lsl #6
     e58:	13490b0b 	movtne	r0, #39691	; 0x9b0b
     e5c:	15140000 	ldrne	r0, [r4, #-0]
     e60:	01192701 	tsteq	r9, r1, lsl #14
     e64:	15000013 	strne	r0, [r0, #-19]	; 0xffffffed
     e68:	13490005 	movtne	r0, #36869	; 0x9005
     e6c:	2e160000 	cdpcs	0, 1, cr0, cr6, cr0, {0}
     e70:	3a0e0301 	bcc	381a7c <shift+0x381a7c>
     e74:	27053b0b 	strcs	r3, [r5, -fp, lsl #22]
     e78:	20134919 	andscs	r4, r3, r9, lsl r9
     e7c:	0013010b 	andseq	r0, r3, fp, lsl #2
     e80:	010b1700 	tsteq	fp, r0, lsl #14
     e84:	34180000 	ldrcc	r0, [r8], #-0
     e88:	3a0e0300 	bcc	381a90 <shift+0x381a90>
     e8c:	49053b0b 	stmdbmi	r5, {r0, r1, r3, r8, r9, fp, ip, sp}
     e90:	19000013 	stmdbne	r0, {r0, r1, r4}
     e94:	0e03012e 	adfeqsp	f0, f3, #0.5
     e98:	053b0b3a 	ldreq	r0, [fp, #-2874]!	; 0xfffff4c6
     e9c:	0b201927 	bleq	807340 <shift+0x807340>
     ea0:	00001301 	andeq	r1, r0, r1, lsl #6
     ea4:	0300051a 	movweq	r0, #1306	; 0x51a
     ea8:	3b0b3a0e 	blcc	2cf6e8 <shift+0x2cf6e8>
     eac:	00134905 	andseq	r4, r3, r5, lsl #18
     eb0:	00341b00 	eorseq	r1, r4, r0, lsl #22
     eb4:	0b3a0803 	bleq	e82ec8 <shift+0xe82ec8>
     eb8:	1349053b 	movtne	r0, #38203	; 0x953b
     ebc:	2e1c0000 	cdpcs	0, 1, cr0, cr12, cr0, {0}
     ec0:	03193f01 	tsteq	r9, #1, 30
     ec4:	3b0b3a0e 	blcc	2cf704 <shift+0x2cf704>
     ec8:	1119270b 	tstne	r9, fp, lsl #14
     ecc:	40061201 	andmi	r1, r6, r1, lsl #4
     ed0:	19429718 	stmdbne	r2, {r3, r4, r8, r9, sl, ip, pc}^
     ed4:	00001301 	andeq	r1, r0, r1, lsl #6
     ed8:	0300051d 	movweq	r0, #1309	; 0x51d
     edc:	3b0b3a0e 	blcc	2cf71c <shift+0x2cf71c>
     ee0:	0213490b 	andseq	r4, r3, #180224	; 0x2c000
     ee4:	1e000017 	mcrne	0, 0, r0, cr0, cr7, {0}
     ee8:	00018289 	andeq	r8, r1, r9, lsl #5
     eec:	13310111 	teqne	r1, #1073741828	; 0x40000004
     ef0:	1d1f0000 	ldcne	0, cr0, [pc, #-0]	; ef8 <shift+0xef8>
     ef4:	52133101 	andspl	r3, r3, #1073741824	; 0x40000000
     ef8:	58175501 	ldmdapl	r7, {r0, r8, sl, ip, lr}
     efc:	010b590b 	tsteq	fp, fp, lsl #18
     f00:	20000013 	andcs	r0, r0, r3, lsl r0
     f04:	13310005 	teqne	r1, #5
     f08:	00000b1c 	andeq	r0, r0, ip, lsl fp
     f0c:	55010b21 	strpl	r0, [r1, #-2849]	; 0xfffff4df
     f10:	22000017 	andcs	r0, r0, #23
     f14:	13310034 	teqne	r1, #52	; 0x34
     f18:	00001702 	andeq	r1, r0, r2, lsl #14
     f1c:	31011d23 	tstcc	r1, r3, lsr #26
     f20:	12011113 	andne	r1, r1, #-1073741820	; 0xc0000004
     f24:	590b5806 	stmdbpl	fp, {r1, r2, fp, ip, lr}
     f28:	24000005 	strcs	r0, [r0], #-5
     f2c:	0111010b 	tsteq	r1, fp, lsl #2
     f30:	00000612 	andeq	r0, r0, r2, lsl r6
     f34:	01828925 	orreq	r8, r2, r5, lsr #18
     f38:	31011101 	tstcc	r1, r1, lsl #2
     f3c:	26000013 			; <UNDEFINED> instruction: 0x26000013
     f40:	0001828a 	andeq	r8, r1, sl, lsl #5
     f44:	42911802 	addsmi	r1, r1, #131072	; 0x20000
     f48:	27000018 	smladcs	r0, r8, r0, r0
     f4c:	193f002e 	ldmdbne	pc!, {r1, r2, r3, r5}	; <UNPREDICTABLE>
     f50:	0b3a0e03 	bleq	e84764 <shift+0xe84764>
     f54:	19270b3b 	stmdbne	r7!, {r0, r1, r3, r4, r5, r8, r9, fp}
     f58:	0000193c 	andeq	r1, r0, ip, lsr r9
     f5c:	3f012e28 	svccc	0x00012e28
     f60:	3a0e0319 	bcc	381bcc <shift+0x381bcc>
     f64:	270b3b0b 	strcs	r3, [fp, -fp, lsl #22]
     f68:	00193c19 	andseq	r3, r9, r9, lsl ip
     f6c:	11010000 	mrsne	r0, (UNDEF: 1)
     f70:	130e2501 	movwne	r2, #58625	; 0xe501
     f74:	1b0e030b 	blne	381ba8 <shift+0x381ba8>
     f78:	1201110e 	andne	r1, r1, #-2147483645	; 0x80000003
     f7c:	00171006 	andseq	r1, r7, r6
     f80:	00240200 	eoreq	r0, r4, r0, lsl #4
     f84:	0b3e0b0b 	bleq	f83bb8 <shift+0xf83bb8>
     f88:	00000e03 	andeq	r0, r0, r3, lsl #28
     f8c:	0b002403 	bleq	9fa0 <shift+0x9fa0>
     f90:	030b3e0b 	movweq	r3, #48651	; 0xbe0b
     f94:	04000008 	streq	r0, [r0], #-8
     f98:	0e030016 	mcreq	0, 0, r0, cr3, cr6, {0}
     f9c:	0b3b0b3a 	bleq	ec3c8c <shift+0xec3c8c>
     fa0:	00001349 	andeq	r1, r0, r9, asr #6
     fa4:	03010405 	movweq	r0, #5125	; 0x1405
     fa8:	3a0b0b0e 	bcc	2c3be8 <shift+0x2c3be8>
     fac:	010b3b0b 	tsteq	fp, fp, lsl #22
     fb0:	06000013 			; <UNDEFINED> instruction: 0x06000013
     fb4:	0e030028 	cdpeq	0, 0, cr0, cr3, cr8, {1}
     fb8:	00000d1c 	andeq	r0, r0, ip, lsl sp
     fbc:	49003507 	stmdbmi	r0, {r0, r1, r2, r8, sl, ip, sp}
     fc0:	08000013 	stmdaeq	r0, {r0, r1, r4}
     fc4:	0b0b0113 	bleq	2c1418 <shift+0x2c1418>
     fc8:	053b0b3a 	ldreq	r0, [fp, #-2874]!	; 0xfffff4c6
     fcc:	00001301 	andeq	r1, r0, r1, lsl #6
     fd0:	03000d09 	movweq	r0, #3337	; 0xd09
     fd4:	3b0b3a08 	blcc	2cf7fc <shift+0x2cf7fc>
     fd8:	38134905 	ldmdacc	r3, {r0, r2, r8, fp, lr}
     fdc:	0a00000b 	beq	1010 <shift+0x1010>
     fe0:	0e03000d 	cdpeq	0, 0, cr0, cr3, cr13, {0}
     fe4:	053b0b3a 	ldreq	r0, [fp, #-2874]!	; 0xfffff4c6
     fe8:	0b381349 	bleq	e05d14 <shift+0xe05d14>
     fec:	160b0000 	strne	r0, [fp], -r0
     ff0:	3a0e0300 	bcc	381bf8 <shift+0x381bf8>
     ff4:	49053b0b 	stmdbmi	r5, {r0, r1, r3, r8, r9, fp, ip, sp}
     ff8:	0c000013 	stceq	0, cr0, [r0], {19}
     ffc:	0b0b000f 	bleq	2c1040 <shift+0x2c1040>
    1000:	130d0000 	movwne	r0, #53248	; 0xd000
    1004:	3a050b01 	bcc	143c10 <shift+0x143c10>
    1008:	01053b0b 	tsteq	r5, fp, lsl #22
    100c:	0e000013 	mcreq	0, 0, r0, cr0, cr3, {0}
    1010:	0e03000d 	cdpeq	0, 0, cr0, cr3, cr13, {0}
    1014:	053b0b3a 	ldreq	r0, [fp, #-2874]!	; 0xfffff4c6
    1018:	05381349 	ldreq	r1, [r8, #-841]!	; 0xfffffcb7
    101c:	010f0000 	mrseq	r0, CPSR
    1020:	01134901 	tsteq	r3, r1, lsl #18
    1024:	10000013 	andne	r0, r0, r3, lsl r0
    1028:	13490021 	movtne	r0, #36897	; 0x9021
    102c:	0000052f 	andeq	r0, r0, pc, lsr #10
    1030:	49002611 	stmdbmi	r0, {r0, r4, r9, sl, sp}
    1034:	12000013 	andne	r0, r0, #19
    1038:	13490021 	movtne	r0, #36897	; 0x9021
    103c:	00000b2f 	andeq	r0, r0, pc, lsr #22
    1040:	0b010413 	bleq	42094 <shift+0x42094>
    1044:	3b0b3a0b 	blcc	2cf878 <shift+0x2cf878>
    1048:	0013010b 	andseq	r0, r3, fp, lsl #2
    104c:	01131400 	tsteq	r3, r0, lsl #8
    1050:	0b3a0b0b 	bleq	e83c84 <shift+0xe83c84>
    1054:	13010b3b 	movwne	r0, #6971	; 0x1b3b
    1058:	0d150000 	ldceq	0, cr0, [r5, #-0]
    105c:	3a0e0300 	bcc	381c64 <shift+0x381c64>
    1060:	490b3b0b 	stmdbmi	fp, {r0, r1, r3, r8, r9, fp, ip, sp}
    1064:	000b3813 	andeq	r3, fp, r3, lsl r8
    1068:	000f1600 	andeq	r1, pc, r0, lsl #12
    106c:	13490b0b 	movtne	r0, #39691	; 0x9b0b
    1070:	15170000 	ldrne	r0, [r7, #-0]
    1074:	01192701 	tsteq	r9, r1, lsl #14
    1078:	18000013 	stmdane	r0, {r0, r1, r4}
    107c:	13490005 	movtne	r0, #36869	; 0x9005
    1080:	2e190000 	cdpcs	0, 1, cr0, cr9, cr0, {0}
    1084:	3a0e0301 	bcc	381c90 <shift+0x381c90>
    1088:	27053b0b 	strcs	r3, [r5, -fp, lsl #22]
    108c:	20134919 	andscs	r4, r3, r9, lsl r9
    1090:	0013010b 	andseq	r0, r3, fp, lsl #2
    1094:	010b1a00 	tsteq	fp, r0, lsl #20
    1098:	341b0000 	ldrcc	r0, [fp], #-0
    109c:	3a0e0300 	bcc	381ca4 <shift+0x381ca4>
    10a0:	49053b0b 	stmdbmi	r5, {r0, r1, r3, r8, r9, fp, ip, sp}
    10a4:	1c000013 	stcne	0, cr0, [r0], {19}
    10a8:	0e03012e 	adfeqsp	f0, f3, #0.5
    10ac:	053b0b3a 	ldreq	r0, [fp, #-2874]!	; 0xfffff4c6
    10b0:	0b201927 	bleq	807554 <shift+0x807554>
    10b4:	00001301 	andeq	r1, r0, r1, lsl #6
    10b8:	0300051d 	movweq	r0, #1309	; 0x51d
    10bc:	3b0b3a0e 	blcc	2cf8fc <shift+0x2cf8fc>
    10c0:	00134905 	andseq	r4, r3, r5, lsl #18
    10c4:	00341e00 	eorseq	r1, r4, r0, lsl #28
    10c8:	0b3a0803 	bleq	e830dc <shift+0xe830dc>
    10cc:	1349053b 	movtne	r0, #38203	; 0x953b
    10d0:	2e1f0000 	cdpcs	0, 1, cr0, cr15, cr0, {0}
    10d4:	3a0e0300 	bcc	381cdc <shift+0x381cdc>
    10d8:	270b3b0b 	strcs	r3, [fp, -fp, lsl #22]
    10dc:	000b2019 	andeq	r2, fp, r9, lsl r0
    10e0:	012e2000 			; <UNDEFINED> instruction: 0x012e2000
    10e4:	0b3a0e03 	bleq	e848f8 <shift+0xe848f8>
    10e8:	19270b3b 	stmdbne	r7!, {r0, r1, r3, r4, r5, r8, r9, fp}
    10ec:	13010b20 	movwne	r0, #6944	; 0x1b20
    10f0:	05210000 	streq	r0, [r1, #-0]!
    10f4:	3a0e0300 	bcc	381cfc <shift+0x381cfc>
    10f8:	490b3b0b 	stmdbmi	fp, {r0, r1, r3, r8, r9, fp, ip, sp}
    10fc:	22000013 	andcs	r0, r0, #19
    1100:	0e03012e 	adfeqsp	f0, f3, #0.5
    1104:	0b3b0b3a 	bleq	ec3df4 <shift+0xec3df4>
    1108:	01111927 	tsteq	r1, r7, lsr #18
    110c:	18400612 	stmdane	r0, {r1, r4, r9, sl}^
    1110:	01194297 			; <UNDEFINED> instruction: 0x01194297
    1114:	23000013 	movwcs	r0, #19
    1118:	0e030005 	cdpeq	0, 0, cr0, cr3, cr5, {0}
    111c:	0b3b0b3a 	bleq	ec3e0c <shift+0xec3e0c>
    1120:	17021349 	strne	r1, [r2, -r9, asr #6]
    1124:	1d240000 	stcne	0, cr0, [r4, #-0]
    1128:	11133100 	tstne	r3, r0, lsl #2
    112c:	58061201 	stmdapl	r6, {r0, r9, ip}
    1130:	000b590b 	andeq	r5, fp, fp, lsl #18
    1134:	82892500 	addhi	r2, r9, #0, 10
    1138:	01110001 	tsteq	r1, r1
    113c:	00001331 	andeq	r1, r0, r1, lsr r3
    1140:	3f012e26 	svccc	0x00012e26
    1144:	3a0e0319 	bcc	381db0 <shift+0x381db0>
    1148:	270b3b0b 	strcs	r3, [fp, -fp, lsl #22]
    114c:	12011119 	andne	r1, r1, #1073741830	; 0x40000006
    1150:	97184006 	ldrls	r4, [r8, -r6]
    1154:	13011942 	movwne	r1, #6466	; 0x1942
    1158:	1d270000 	stcne	0, cr0, [r7, #-0]
    115c:	52133101 	andspl	r3, r3, #1073741824	; 0x40000000
    1160:	58175501 	ldmdapl	r7, {r0, r8, sl, ip, lr}
    1164:	010b590b 	tsteq	fp, fp, lsl #18
    1168:	28000013 	stmdacs	r0, {r0, r1, r4}
    116c:	13310005 	teqne	r1, #5
    1170:	0000061c 	andeq	r0, r0, ip, lsl r6
    1174:	01828929 	orreq	r8, r2, r9, lsr #18
    1178:	95011101 	strls	r1, [r1, #-257]	; 0xfffffeff
    117c:	13311942 	teqne	r1, #1081344	; 0x108000
    1180:	8a2a0000 	bhi	a81188 <shift+0xa81188>
    1184:	02000182 	andeq	r0, r0, #-2147483616	; 0x80000020
    1188:	18429118 	stmdane	r2, {r3, r4, r8, ip, pc}^
    118c:	342b0000 	strtcc	r0, [fp], #-0
    1190:	3a0e0300 	bcc	381d98 <shift+0x381d98>
    1194:	490b3b0b 	stmdbmi	fp, {r0, r1, r3, r8, r9, fp, ip, sp}
    1198:	00180213 	andseq	r0, r8, r3, lsl r2
    119c:	00052c00 	andeq	r2, r5, r0, lsl #24
    11a0:	0b1c1331 	bleq	705e6c <shift+0x705e6c>
    11a4:	052d0000 	streq	r0, [sp, #-0]!
    11a8:	1c133100 	ldfnes	f3, [r3], {-0}
    11ac:	2e000005 	cdpcs	0, 0, cr0, cr0, cr5, {0}
    11b0:	1755010b 	ldrbne	r0, [r5, -fp, lsl #2]
    11b4:	342f0000 	strtcc	r0, [pc], #-0	; 11bc <shift+0x11bc>
    11b8:	02133100 	andseq	r3, r3, #0, 2
    11bc:	30000017 	andcc	r0, r0, r7, lsl r0
    11c0:	1331011d 	teqne	r1, #1073741831	; 0x40000007
    11c4:	06120111 			; <UNDEFINED> instruction: 0x06120111
    11c8:	05590b58 	ldrbeq	r0, [r9, #-2904]	; 0xfffff4a8
    11cc:	0b310000 	bleq	c411d4 <shift+0xc411d4>
    11d0:	12011101 	andne	r1, r1, #1073741824	; 0x40000000
    11d4:	32000006 	andcc	r0, r0, #6
    11d8:	1331011d 	teqne	r1, #1073741831	; 0x40000007
    11dc:	06120111 			; <UNDEFINED> instruction: 0x06120111
    11e0:	0b590b58 	bleq	1643f48 <shift+0x1643f48>
    11e4:	00001301 	andeq	r1, r0, r1, lsl #6
    11e8:	01828933 	orreq	r8, r2, r3, lsr r9
    11ec:	31011101 	tstcc	r1, r1, lsl #2
    11f0:	34000013 	strcc	r0, [r0], #-19	; 0xffffffed
    11f4:	01018289 	smlabbeq	r1, r9, r2, r8
    11f8:	13310111 	teqne	r1, #1073741828	; 0x40000004
    11fc:	00001301 	andeq	r1, r0, r1, lsl #6
    1200:	3f002e35 	svccc	0x00002e35
    1204:	3a0e0319 	bcc	381e70 <shift+0x381e70>
    1208:	270b3b0b 	strcs	r3, [fp, -fp, lsl #22]
    120c:	00193c19 	andseq	r3, r9, r9, lsl ip
    1210:	012e3600 			; <UNDEFINED> instruction: 0x012e3600
    1214:	0e03193f 			; <UNDEFINED> instruction: 0x0e03193f
    1218:	0b3b0b3a 	bleq	ec3f08 <shift+0xec3f08>
    121c:	193c1927 	ldmdbne	ip!, {r0, r1, r2, r5, r8, fp, ip}
    1220:	00001301 	andeq	r1, r0, r1, lsl #6
    1224:	3f012e37 	svccc	0x00012e37
    1228:	3a0e0319 	bcc	381e94 <shift+0x381e94>
    122c:	270b3b0b 	strcs	r3, [fp, -fp, lsl #22]
    1230:	00193c19 	andseq	r3, r9, r9, lsl ip
    1234:	11010000 	mrsne	r0, (UNDEF: 1)
    1238:	130e2501 	movwne	r2, #58625	; 0xe501
    123c:	1b0e030b 	blne	381e70 <shift+0x381e70>
    1240:	1201110e 	andne	r1, r1, #-2147483645	; 0x80000003
    1244:	00171006 	andseq	r1, r7, r6
    1248:	00240200 	eoreq	r0, r4, r0, lsl #4
    124c:	0b3e0b0b 	bleq	f83e80 <shift+0xf83e80>
    1250:	00000e03 	andeq	r0, r0, r3, lsl #28
    1254:	0b002403 	bleq	a268 <shift+0xa268>
    1258:	030b3e0b 	movweq	r3, #48651	; 0xbe0b
    125c:	04000008 	streq	r0, [r0], #-8
    1260:	0e030016 	mcreq	0, 0, r0, cr3, cr6, {0}
    1264:	0b3b0b3a 	bleq	ec3f54 <shift+0xec3f54>
    1268:	00001349 	andeq	r1, r0, r9, asr #6
    126c:	49003505 	stmdbmi	r0, {r0, r2, r8, sl, ip, sp}
    1270:	06000013 			; <UNDEFINED> instruction: 0x06000013
    1274:	13490101 	movtne	r0, #37121	; 0x9101
    1278:	00001301 	andeq	r1, r0, r1, lsl #6
    127c:	49002107 	stmdbmi	r0, {r0, r1, r2, r8, sp}
    1280:	000b2f13 	andeq	r2, fp, r3, lsl pc
    1284:	01130800 	tsteq	r3, r0, lsl #16
    1288:	0b3a0b0b 	bleq	e83ebc <shift+0xe83ebc>
    128c:	1301053b 	movwne	r0, #5435	; 0x153b
    1290:	0d090000 	stceq	0, cr0, [r9, #-0]
    1294:	3a0e0300 	bcc	381e9c <shift+0x381e9c>
    1298:	49053b0b 	stmdbmi	r5, {r0, r1, r3, r8, r9, fp, ip, sp}
    129c:	000b3813 	andeq	r3, fp, r3, lsl r8
    12a0:	000d0a00 	andeq	r0, sp, r0, lsl #20
    12a4:	0b3a0803 	bleq	e832b8 <shift+0xe832b8>
    12a8:	1349053b 	movtne	r0, #38203	; 0x953b
    12ac:	00000b38 	andeq	r0, r0, r8, lsr fp
    12b0:	0300160b 	movweq	r1, #1547	; 0x60b
    12b4:	3b0b3a0e 	blcc	2cfaf4 <shift+0x2cfaf4>
    12b8:	00134905 	andseq	r4, r3, r5, lsl #18
    12bc:	000f0c00 	andeq	r0, pc, r0, lsl #24
    12c0:	13490b0b 	movtne	r0, #39691	; 0x9b0b
    12c4:	2e0d0000 	cdpcs	0, 0, cr0, cr13, cr0, {0}
    12c8:	3a0e0301 	bcc	381ed4 <shift+0x381ed4>
    12cc:	27053b0b 	strcs	r3, [r5, -fp, lsl #22]
    12d0:	010b2019 	tsteq	fp, r9, lsl r0
    12d4:	0e000013 	mcreq	0, 0, r0, cr0, cr3, {0}
    12d8:	0e030005 	cdpeq	0, 0, cr0, cr3, cr5, {0}
    12dc:	053b0b3a 	ldreq	r0, [fp, #-2874]!	; 0xfffff4c6
    12e0:	00001349 	andeq	r1, r0, r9, asr #6
    12e4:	03002e0f 	movweq	r2, #3599	; 0xe0f
    12e8:	3b0b3a0e 	blcc	2cfb28 <shift+0x2cfb28>
    12ec:	2019270b 	andscs	r2, r9, fp, lsl #14
    12f0:	1000000b 	andne	r0, r0, fp
    12f4:	0e03012e 	adfeqsp	f0, f3, #0.5
    12f8:	0b3b0b3a 	bleq	ec3fe8 <shift+0xec3fe8>
    12fc:	0b201927 	bleq	8077a0 <shift+0x8077a0>
    1300:	00001301 	andeq	r1, r0, r1, lsl #6
    1304:	03000511 	movweq	r0, #1297	; 0x511
    1308:	3b0b3a0e 	blcc	2cfb48 <shift+0x2cfb48>
    130c:	0013490b 	andseq	r4, r3, fp, lsl #18
    1310:	012e1200 			; <UNDEFINED> instruction: 0x012e1200
    1314:	0e03193f 			; <UNDEFINED> instruction: 0x0e03193f
    1318:	0b3b0b3a 	bleq	ec4008 <shift+0xec4008>
    131c:	0b201927 	bleq	8077c0 <shift+0x8077c0>
    1320:	00001301 	andeq	r1, r0, r1, lsl #6
    1324:	03000513 	movweq	r0, #1299	; 0x513
    1328:	3b0b3a08 	blcc	2cfb50 <shift+0x2cfb50>
    132c:	0013490b 	andseq	r4, r3, fp, lsl #18
    1330:	012e1400 			; <UNDEFINED> instruction: 0x012e1400
    1334:	0e03193f 			; <UNDEFINED> instruction: 0x0e03193f
    1338:	0b3b0b3a 	bleq	ec4028 <shift+0xec4028>
    133c:	01111927 	tsteq	r1, r7, lsr #18
    1340:	18400612 	stmdane	r0, {r1, r4, r9, sl}^
    1344:	01194296 			; <UNDEFINED> instruction: 0x01194296
    1348:	15000013 	strne	r0, [r0, #-19]	; 0xffffffed
    134c:	0e030005 	cdpeq	0, 0, cr0, cr3, cr5, {0}
    1350:	0b3b0b3a 	bleq	ec4040 <shift+0xec4040>
    1354:	17021349 	strne	r1, [r2, -r9, asr #6]
    1358:	34160000 	ldrcc	r0, [r6], #-0
    135c:	3a0e0300 	bcc	381f64 <shift+0x381f64>
    1360:	490b3b0b 	stmdbmi	fp, {r0, r1, r3, r8, r9, fp, ip, sp}
    1364:	00170213 	andseq	r0, r7, r3, lsl r2
    1368:	010b1700 	tsteq	fp, r0, lsl #14
    136c:	00001755 	andeq	r1, r0, r5, asr r7
    1370:	03003418 	movweq	r3, #1048	; 0x418
    1374:	3b0b3a08 	blcc	2cfb9c <shift+0x2cfb9c>
    1378:	0213490b 	andseq	r4, r3, #180224	; 0x2c000
    137c:	19000017 	stmdbne	r0, {r0, r1, r2, r4}
    1380:	193f012e 	ldmdbne	pc!, {r1, r2, r3, r5, r8}	; <UNPREDICTABLE>
    1384:	0b3a0e03 	bleq	e84b98 <shift+0xe84b98>
    1388:	19270b3b 	stmdbne	r7!, {r0, r1, r3, r4, r5, r8, r9, fp}
    138c:	06120111 			; <UNDEFINED> instruction: 0x06120111
    1390:	42971840 	addsmi	r1, r7, #64, 16	; 0x400000
    1394:	00130119 	andseq	r0, r3, r9, lsl r1
    1398:	011d1a00 	tsteq	sp, r0, lsl #20
    139c:	01521331 	cmpeq	r2, r1, lsr r3
    13a0:	0b581755 	bleq	16070fc <shift+0x16070fc>
    13a4:	13010b59 	movwne	r0, #7001	; 0x1b59
    13a8:	051b0000 	ldreq	r0, [fp, #-0]
    13ac:	02133100 	andseq	r3, r3, #0, 2
    13b0:	1c000017 	stcne	0, cr0, [r0], {23}
    13b4:	13310005 	teqne	r1, #5
    13b8:	00000b1c 	andeq	r0, r0, ip, lsl fp
    13bc:	3100051d 	tstcc	r0, sp, lsl r5
    13c0:	00061c13 	andeq	r1, r6, r3, lsl ip
    13c4:	00051e00 	andeq	r1, r5, r0, lsl #28
    13c8:	051c1331 	ldreq	r1, [ip, #-817]	; 0xfffffccf
    13cc:	1d1f0000 	ldcne	0, cr0, [pc, #-0]	; 13d4 <shift+0x13d4>
    13d0:	52133101 	andspl	r3, r3, #1073741824	; 0x40000000
    13d4:	58175501 	ldmdapl	r7, {r0, r8, sl, ip, lr}
    13d8:	000b590b 	andeq	r5, fp, fp, lsl #18
    13dc:	011d2000 	tsteq	sp, r0
    13e0:	01111331 	tsteq	r1, r1, lsr r3
    13e4:	0b580612 	bleq	1602c34 <shift+0x1602c34>
    13e8:	13010b59 	movwne	r0, #7001	; 0x1b59
    13ec:	89210000 	stmdbhi	r1!, {}	; <UNPREDICTABLE>
    13f0:	11010182 	smlabbne	r1, r2, r1, r0
    13f4:	00133101 	andseq	r3, r3, r1, lsl #2
    13f8:	828a2200 	addhi	r2, sl, #0, 4
    13fc:	18020001 	stmdane	r2, {r0}
    1400:	00184291 	mulseq	r8, r1, r2
    1404:	012e2300 			; <UNDEFINED> instruction: 0x012e2300
    1408:	01111331 	tsteq	r1, r1, lsr r3
    140c:	18400612 	stmdane	r0, {r1, r4, r9, sl}^
    1410:	01194297 			; <UNDEFINED> instruction: 0x01194297
    1414:	24000013 	strcs	r0, [r0], #-19	; 0xffffffed
    1418:	13310005 	teqne	r1, #5
    141c:	00001802 	andeq	r1, r0, r2, lsl #16
    1420:	3f002e25 	svccc	0x00002e25
    1424:	3a0e0319 	bcc	382090 <shift+0x382090>
    1428:	270b3b0b 	strcs	r3, [fp, -fp, lsl #22]
    142c:	11134919 	tstne	r3, r9, lsl r9
    1430:	40061201 	andmi	r1, r6, r1, lsl #4
    1434:	19429718 	stmdbne	r2, {r3, r4, r8, r9, sl, ip, pc}^
    1438:	05260000 	streq	r0, [r6, #-0]!
    143c:	3a080300 	bcc	202044 <shift+0x202044>
    1440:	490b3b0b 	stmdbmi	fp, {r0, r1, r3, r8, r9, fp, ip, sp}
    1444:	00170213 	andseq	r0, r7, r3, lsl r2
    1448:	00052700 	andeq	r2, r5, r0, lsl #14
    144c:	00001331 	andeq	r1, r0, r1, lsr r3
    1450:	3f012e28 	svccc	0x00012e28
    1454:	3a0e0319 	bcc	3820c0 <shift+0x3820c0>
    1458:	270b3b0b 	strcs	r3, [fp, -fp, lsl #22]
    145c:	12011119 	andne	r1, r1, #1073741830	; 0x40000006
    1460:	97184006 	ldrls	r4, [r8, -r6]
    1464:	00001942 	andeq	r1, r0, r2, asr #18
    1468:	03000529 	movweq	r0, #1321	; 0x529
    146c:	3b0b3a0e 	blcc	2cfcac <shift+0x2cfcac>
    1470:	0213490b 	andseq	r4, r3, #180224	; 0x2c000
    1474:	00000018 	andeq	r0, r0, r8, lsl r0

Disassembly of section .debug_aranges:

00000000 <.debug_aranges>:
   0:	0000001c 	andeq	r0, r0, ip, lsl r0
   4:	00000002 	andeq	r0, r0, r2
   8:	00040000 	andeq	r0, r4, r0
   c:	00000000 	andeq	r0, r0, r0
  10:	878010b0 			; <UNDEFINED> instruction: 0x878010b0
  14:	00000064 	andeq	r0, r0, r4, rrx
	...
  20:	0000001c 	andeq	r0, r0, ip, lsl r0
  24:	01d70002 	bicseq	r0, r7, r2
  28:	00040000 	andeq	r0, r4, r0
  2c:	00000000 	andeq	r0, r0, r0
  30:	878002c0 	strhi	r0, [r0, r0, asr #5]
  34:	000000da 	ldrdeq	r0, [r0], -sl
	...
  40:	0000001c 	andeq	r0, r0, ip, lsl r0
  44:	07f70002 	ldrbeq	r0, [r7, r2]!
  48:	00040000 	andeq	r0, r4, r0
  4c:	00000000 	andeq	r0, r0, r0
  50:	8780039c 			; <UNDEFINED> instruction: 0x8780039c
  54:	000000ba 	strheq	r0, [r0], -sl
	...
  60:	0000001c 	andeq	r0, r0, ip, lsl r0
  64:	0a200002 	beq	800074 <shift+0x800074>
  68:	00040000 	andeq	r0, r4, r0
  6c:	00000000 	andeq	r0, r0, r0
  70:	87800458 			; <UNDEFINED> instruction: 0x87800458
  74:	0000006a 	andeq	r0, r0, sl, rrx
	...
  80:	0000001c 	andeq	r0, r0, ip, lsl r0
  84:	0c800002 	stceq	0, cr0, [r0], {2}
  88:	00040000 	andeq	r0, r4, r0
  8c:	00000000 	andeq	r0, r0, r0
  90:	878004c4 	strhi	r0, [r0, r4, asr #9]
  94:	00000072 	andeq	r0, r0, r2, ror r0
	...
  a0:	0000001c 	andeq	r0, r0, ip, lsl r0
  a4:	0ee00002 	cdpeq	0, 14, cr0, cr0, cr2, {0}
  a8:	00040000 	andeq	r0, r4, r0
  ac:	00000000 	andeq	r0, r0, r0
  b0:	87800538 			; <UNDEFINED> instruction: 0x87800538
  b4:	0000008e 	andeq	r0, r0, lr, lsl #1
	...
  c0:	0000001c 	andeq	r0, r0, ip, lsl r0
  c4:	13270002 			; <UNDEFINED> instruction: 0x13270002
  c8:	00040000 	andeq	r0, r4, r0
  cc:	00000000 	andeq	r0, r0, r0
  d0:	878005c8 	strhi	r0, [r0, r8, asr #11]
  d4:	00000112 	andeq	r0, r0, r2, lsl r1
	...
  e0:	0000001c 	andeq	r0, r0, ip, lsl r0
  e4:	17620002 	strbne	r0, [r2, -r2]!
  e8:	00040000 	andeq	r0, r4, r0
  ec:	00000000 	andeq	r0, r0, r0
  f0:	878006dc 			; <UNDEFINED> instruction: 0x878006dc
  f4:	000000f2 	strdeq	r0, [r0], -r2
	...
 100:	0000001c 	andeq	r0, r0, ip, lsl r0
 104:	24c10002 	strbcs	r0, [r1], #2
 108:	00040000 	andeq	r0, r4, r0
 10c:	00000000 	andeq	r0, r0, r0
 110:	878007d0 			; <UNDEFINED> instruction: 0x878007d0
 114:	00000094 	muleq	r0, r4, r0
	...
 120:	0000001c 	andeq	r0, r0, ip, lsl r0
 124:	32b80002 	adcscc	r0, r8, #2
 128:	00040000 	andeq	r0, r4, r0
 12c:	00000000 	andeq	r0, r0, r0
 130:	87800864 	strhi	r0, [r0, r4, ror #16]
 134:	00000078 	andeq	r0, r0, r8, ror r0
	...
 140:	0000001c 	andeq	r0, r0, ip, lsl r0
 144:	3df20002 	ldclcc	0, cr0, [r2, #8]!
 148:	00040000 	andeq	r0, r4, r0
 14c:	00000000 	andeq	r0, r0, r0
 150:	878008dc 			; <UNDEFINED> instruction: 0x878008dc
 154:	00000102 	andeq	r0, r0, r2, lsl #2
	...
 160:	0000001c 	andeq	r0, r0, ip, lsl r0
 164:	4d0d0002 	stcmi	0, cr0, [sp, #-8]
 168:	00040000 	andeq	r0, r4, r0
 16c:	00000000 	andeq	r0, r0, r0
 170:	878009e0 	strhi	r0, [r0, r0, ror #19]
 174:	000002fa 	strdeq	r0, [r0], -sl
	...

Disassembly of section .debug_ranges:

00000000 <.debug_ranges>:
   0:	878010b0 			; <UNDEFINED> instruction: 0x878010b0
   4:	87801114 	usada8hi	r0, r4, r1, r1
	...
  10:	00000082 	andeq	r0, r0, r2, lsl #1
  14:	0000008a 	andeq	r0, r0, sl, lsl #1
  18:	00000090 	muleq	r0, r0, r0
  1c:	000000b6 	strheq	r0, [r0], -r6
	...
  2c:	00000002 	andeq	r0, r0, r2
  30:	0000000a 	andeq	r0, r0, sl
  34:	0000000e 	andeq	r0, r0, lr
  38:	00000018 	andeq	r0, r0, r8, lsl r0
  3c:	0000001a 	andeq	r0, r0, sl, lsl r0
  40:	0000001e 	andeq	r0, r0, lr, lsl r0
  44:	00000020 	andeq	r0, r0, r0, lsr #32
	...
  50:	00000002 	andeq	r0, r0, r2
  54:	00000006 	andeq	r0, r0, r6
  58:	00000010 	andeq	r0, r0, r0, lsl r0
  5c:	00000014 	andeq	r0, r0, r4, lsl r0
  60:	0000001a 	andeq	r0, r0, sl, lsl r0
  64:	0000001e 	andeq	r0, r0, lr, lsl r0
  68:	00000020 	andeq	r0, r0, r0, lsr #32
  6c:	00000022 	andeq	r0, r0, r2, lsr #32
	...
  7c:	00000002 	andeq	r0, r0, r2
  80:	00000010 	andeq	r0, r0, r0, lsl r0
  84:	00000014 	andeq	r0, r0, r4, lsl r0
  88:	0000001a 	andeq	r0, r0, sl, lsl r0
  8c:	0000001e 	andeq	r0, r0, lr, lsl r0
	...
  98:	00000002 	andeq	r0, r0, r2
  9c:	00000004 	andeq	r0, r0, r4
  a0:	00000008 	andeq	r0, r0, r8
  a4:	0000000c 	andeq	r0, r0, ip
  a8:	00000016 	andeq	r0, r0, r6, lsl r0
  ac:	0000001a 	andeq	r0, r0, sl, lsl r0
  b0:	0000001e 	andeq	r0, r0, lr, lsl r0
  b4:	00000020 	andeq	r0, r0, r0, lsr #32
	...
  c4:	00000002 	andeq	r0, r0, r2
  c8:	00000008 	andeq	r0, r0, r8
  cc:	0000000c 	andeq	r0, r0, ip
  d0:	00000016 	andeq	r0, r0, r6, lsl r0
  d4:	00000018 	andeq	r0, r0, r8, lsl r0
  d8:	0000001c 	andeq	r0, r0, ip, lsl r0
  dc:	0000001e 	andeq	r0, r0, lr, lsl r0
	...
  e8:	00000002 	andeq	r0, r0, r2
  ec:	00000006 	andeq	r0, r0, r6
  f0:	0000000e 	andeq	r0, r0, lr
  f4:	00000012 	andeq	r0, r0, r2, lsl r0
  f8:	00000018 	andeq	r0, r0, r8, lsl r0
  fc:	0000001c 	andeq	r0, r0, ip, lsl r0
 100:	00000022 	andeq	r0, r0, r2, lsr #32
 104:	00000024 	andeq	r0, r0, r4, lsr #32
	...
 110:	00000076 	andeq	r0, r0, r6, ror r0
 114:	00000080 	andeq	r0, r0, r0, lsl #1
 118:	00000082 	andeq	r0, r0, r2, lsl #1
 11c:	00000086 	andeq	r0, r0, r6, lsl #1
	...
 128:	000000b0 	strheq	r0, [r0], -r0	; <UNPREDICTABLE>
 12c:	000000b6 	strheq	r0, [r0], -r6
 130:	000000b8 	strheq	r0, [r0], -r8
 134:	000000ba 	strheq	r0, [r0], -sl
 138:	000000be 	strheq	r0, [r0], -lr
 13c:	000000c0 	andeq	r0, r0, r0, asr #1
 140:	000000da 	ldrdeq	r0, [r0], -sl
 144:	000000dc 	ldrdeq	r0, [r0], -ip
 148:	000000de 	ldrdeq	r0, [r0], -lr
 14c:	000000e2 	andeq	r0, r0, r2, ror #1
 150:	000000e6 	andeq	r0, r0, r6, ror #1
 154:	000000e8 	andeq	r0, r0, r8, ror #1
	...
 160:	000000da 	ldrdeq	r0, [r0], -sl
 164:	000000dc 	ldrdeq	r0, [r0], -ip
 168:	000000de 	ldrdeq	r0, [r0], -lr
 16c:	000000e2 	andeq	r0, r0, r2, ror #1
 170:	000000e6 	andeq	r0, r0, r6, ror #1
 174:	000000e8 	andeq	r0, r0, r8, ror #1
	...
 180:	000000ec 	andeq	r0, r0, ip, ror #1
 184:	000000ee 	andeq	r0, r0, lr, ror #1
 188:	000000fa 	strdeq	r0, [r0], -sl
 18c:	00000106 	andeq	r0, r0, r6, lsl #2
	...
 198:	00000046 	andeq	r0, r0, r6, asr #32
 19c:	0000009a 	muleq	r0, sl, r0
 1a0:	0000009c 	muleq	r0, ip, r0
 1a4:	000000a2 	andeq	r0, r0, r2, lsr #1
	...
 1b0:	0000009a 	muleq	r0, sl, r0
 1b4:	0000009c 	muleq	r0, ip, r0
 1b8:	000000a2 	andeq	r0, r0, r2, lsr #1
 1bc:	000000ae 	andeq	r0, r0, lr, lsr #1
	...
 1c8:	00000032 	andeq	r0, r0, r2, lsr r0
 1cc:	00000034 	andeq	r0, r0, r4, lsr r0
 1d0:	0000003e 	andeq	r0, r0, lr, lsr r0
 1d4:	00000042 	andeq	r0, r0, r2, asr #32
 1d8:	0000004a 	andeq	r0, r0, sl, asr #32
 1dc:	0000004c 	andeq	r0, r0, ip, asr #32
 1e0:	00000050 	andeq	r0, r0, r0, asr r0
 1e4:	00000052 	andeq	r0, r0, r2, asr r0
	...
 1f0:	00000034 	andeq	r0, r0, r4, lsr r0
 1f4:	00000038 	andeq	r0, r0, r8, lsr r0
 1f8:	00000042 	andeq	r0, r0, r2, asr #32
 1fc:	00000046 	andeq	r0, r0, r6, asr #32
 200:	0000004c 	andeq	r0, r0, ip, asr #32
 204:	00000050 	andeq	r0, r0, r0, asr r0
 208:	00000054 	andeq	r0, r0, r4, asr r0
 20c:	00000056 	andeq	r0, r0, r6, asr r0
	...
 218:	00000068 	andeq	r0, r0, r8, rrx
 21c:	00000072 	andeq	r0, r0, r2, ror r0
 220:	00000078 	andeq	r0, r0, r8, ror r0
 224:	0000007c 	andeq	r0, r0, ip, ror r0
 228:	00000082 	andeq	r0, r0, r2, lsl #1
 22c:	00000084 	andeq	r0, r0, r4, lsl #1
	...
 238:	0000004e 	andeq	r0, r0, lr, asr #32
 23c:	00000058 	andeq	r0, r0, r8, asr r0
 240:	0000005c 	andeq	r0, r0, ip, asr r0
 244:	00000062 	andeq	r0, r0, r2, rrx
 248:	00000068 	andeq	r0, r0, r8, rrx
 24c:	0000006a 	andeq	r0, r0, sl, rrx
	...
 258:	0000002c 	andeq	r0, r0, ip, lsr #32
 25c:	0000002e 	andeq	r0, r0, lr, lsr #32
 260:	00000032 	andeq	r0, r0, r2, lsr r0
 264:	00000036 	andeq	r0, r0, r6, lsr r0
 268:	0000003a 	andeq	r0, r0, sl, lsr r0
 26c:	0000003c 	andeq	r0, r0, ip, lsr r0
 270:	00000040 	andeq	r0, r0, r0, asr #32
 274:	00000052 	andeq	r0, r0, r2, asr r0
 278:	00000056 	andeq	r0, r0, r6, asr r0
 27c:	0000005c 	andeq	r0, r0, ip, asr r0
	...
 288:	00000062 	andeq	r0, r0, r2, rrx
 28c:	00000064 	andeq	r0, r0, r4, rrx
 290:	0000006e 	andeq	r0, r0, lr, rrx
 294:	00000072 	andeq	r0, r0, r2, ror r0
 298:	0000007a 	andeq	r0, r0, sl, ror r0
 29c:	0000007c 	andeq	r0, r0, ip, ror r0
 2a0:	00000080 	andeq	r0, r0, r0, lsl #1
 2a4:	00000082 	andeq	r0, r0, r2, lsl #1
	...
 2b0:	00000064 	andeq	r0, r0, r4, rrx
 2b4:	00000068 	andeq	r0, r0, r8, rrx
 2b8:	00000072 	andeq	r0, r0, r2, ror r0
 2bc:	00000076 	andeq	r0, r0, r6, ror r0
 2c0:	0000007c 	andeq	r0, r0, ip, ror r0
 2c4:	00000080 	andeq	r0, r0, r0, lsl #1
 2c8:	00000084 	andeq	r0, r0, r4, lsl #1
 2cc:	00000086 	andeq	r0, r0, r6, lsl #1
	...
 2d8:	00000098 	muleq	r0, r8, r0
 2dc:	000000a2 	andeq	r0, r0, r2, lsr #1
 2e0:	000000a8 	andeq	r0, r0, r8, lsr #1
 2e4:	000000ac 	andeq	r0, r0, ip, lsr #1
 2e8:	000000b2 	strheq	r0, [r0], -r2
 2ec:	000000b4 	strheq	r0, [r0], -r4
	...
 2f8:	000000dc 	ldrdeq	r0, [r0], -ip
 2fc:	000000e6 	andeq	r0, r0, r6, ror #1
 300:	000000ec 	andeq	r0, r0, ip, ror #1
 304:	000000f2 	strdeq	r0, [r0], -r2
 308:	000000f8 	strdeq	r0, [r0], -r8
 30c:	000000fa 	strdeq	r0, [r0], -sl
	...
 318:	0000007e 	andeq	r0, r0, lr, ror r0
 31c:	0000008a 	andeq	r0, r0, sl, lsl #1
 320:	00000140 	andeq	r0, r0, r0, asr #2
 324:	0000018e 	andeq	r0, r0, lr, lsl #3
 328:	00000198 	muleq	r0, r8, r1
 32c:	0000019a 	muleq	r0, sl, r1
 330:	0000019e 	muleq	r0, lr, r1
 334:	000001a0 	andeq	r0, r0, r0, lsr #3
 338:	000001ac 	andeq	r0, r0, ip, lsr #3
 33c:	000001bc 			; <UNDEFINED> instruction: 0x000001bc
 340:	000001ca 	andeq	r0, r0, sl, asr #3
 344:	000001ee 	andeq	r0, r0, lr, ror #3
	...
 350:	000001fa 	strdeq	r0, [r0], -sl
 354:	0000020a 	andeq	r0, r0, sl, lsl #4
 358:	0000020c 	andeq	r0, r0, ip, lsl #4
 35c:	00000210 	andeq	r0, r0, r0, lsl r2
 360:	00000214 	andeq	r0, r0, r4, lsl r2
 364:	00000234 	andeq	r0, r0, r4, lsr r2
 368:	00000236 	andeq	r0, r0, r6, lsr r2
 36c:	00000238 	andeq	r0, r0, r8, lsr r2
	...
 378:	000001fa 	strdeq	r0, [r0], -sl
 37c:	000001fc 	strdeq	r0, [r0], -ip
 380:	0000020c 	andeq	r0, r0, ip, lsl #4
 384:	00000210 	andeq	r0, r0, r0, lsl r2
 388:	00000224 	andeq	r0, r0, r4, lsr #4
 38c:	00000228 	andeq	r0, r0, r8, lsr #4
	...
 398:	000001fc 	strdeq	r0, [r0], -ip
 39c:	00000200 	andeq	r0, r0, r0, lsl #4
 3a0:	00000214 	andeq	r0, r0, r4, lsl r2
 3a4:	00000218 	andeq	r0, r0, r8, lsl r2
 3a8:	00000228 	andeq	r0, r0, r8, lsr #4
 3ac:	0000022e 	andeq	r0, r0, lr, lsr #4
	...
 3b8:	00000200 	andeq	r0, r0, r0, lsl #4
 3bc:	00000206 	andeq	r0, r0, r6, lsl #4
 3c0:	00000218 	andeq	r0, r0, r8, lsl r2
 3c4:	0000021c 	andeq	r0, r0, ip, lsl r2
 3c8:	00000220 	andeq	r0, r0, r0, lsr #4
 3cc:	00000224 	andeq	r0, r0, r4, lsr #4
 3d0:	0000022e 	andeq	r0, r0, lr, lsr #4
 3d4:	00000234 	andeq	r0, r0, r4, lsr r2
	...
 3e0:	00000206 	andeq	r0, r0, r6, lsl #4
 3e4:	0000020a 	andeq	r0, r0, sl, lsl #4
 3e8:	0000021c 	andeq	r0, r0, ip, lsl r2
 3ec:	00000220 	andeq	r0, r0, r0, lsr #4
 3f0:	00000236 	andeq	r0, r0, r6, lsr r2
 3f4:	00000238 	andeq	r0, r0, r8, lsr r2
	...
 400:	0000020a 	andeq	r0, r0, sl, lsl #4
 404:	0000020c 	andeq	r0, r0, ip, lsl #4
 408:	00000210 	andeq	r0, r0, r0, lsl r2
 40c:	00000214 	andeq	r0, r0, r4, lsl r2
 410:	00000238 	andeq	r0, r0, r8, lsr r2
 414:	00000244 	andeq	r0, r0, r4, asr #4
	...
 420:	00000234 	andeq	r0, r0, r4, lsr r2
 424:	00000236 	andeq	r0, r0, r6, lsr r2
 428:	00000244 	andeq	r0, r0, r4, asr #4
 42c:	0000025e 	andeq	r0, r0, lr, asr r2
	...
 438:	000002d4 	ldrdeq	r0, [r0], -r4
 43c:	000002da 	ldrdeq	r0, [r0], -sl
 440:	000002dc 	ldrdeq	r0, [r0], -ip
 444:	000002e8 	andeq	r0, r0, r8, ror #5
	...

Disassembly of section .debug_line:

00000000 <.debug_line>:
   0:	000000f0 	strdeq	r0, [r0], -r0	; <UNPREDICTABLE>
   4:	00ab0003 	adceq	r0, fp, r3
   8:	01020000 	mrseq	r0, (UNDEF: 2)
   c:	000d0efb 	strdeq	r0, [sp], -fp
  10:	01010101 	tsteq	r1, r1, lsl #2
  14:	01000000 	mrseq	r0, (UNDEF: 0)
  18:	70010000 	andvc	r0, r1, r0
  1c:	656a6f72 	strbvs	r6, [sl, #-3954]!	; 0xfffff08e
  20:	62007463 	andvs	r7, r0, #1660944384	; 0x63000000
  24:	692f7073 	stmdbvs	pc!, {r0, r1, r4, r5, r6, ip, sp, lr}	; <UNPREDICTABLE>
  28:	6200746e 	andvs	r7, r0, #1845493760	; 0x6e000000
  2c:	632f7073 			; <UNDEFINED> instruction: 0x632f7073
  30:	62006b6c 	andvs	r6, r0, #108, 22	; 0x1b000
  34:	622f7073 	eorvs	r7, pc, #115	; 0x73
  38:	00706565 	rsbseq	r6, r0, r5, ror #10
  3c:	2f707362 	svccs	0x00707362
  40:	0064656c 	rsbeq	r6, r4, ip, ror #10
  44:	2f707362 	svccs	0x00707362
  48:	616c6564 	cmnvs	ip, r4, ror #10
  4c:	73620079 	cmnvc	r2, #121	; 0x79
  50:	61752f70 	cmnvs	r5, r0, ror pc
  54:	00007472 	andeq	r7, r0, r2, ror r4
  58:	6e69616d 	powvsez	f6, f1, #5.0
  5c:	0100632e 	tsteq	r0, lr, lsr #6
  60:	73620000 	cmnvc	r2, #0
  64:	6e695f70 	mcrvs	15, 3, r5, cr9, cr0, {3}
  68:	00682e74 	rsbeq	r2, r8, r4, ror lr
  6c:	62000002 	andvs	r0, r0, #2
  70:	635f7073 	cmpvs	pc, #115	; 0x73
  74:	682e6b6c 	stmdavs	lr!, {r2, r3, r5, r6, r8, r9, fp, sp, lr}
  78:	00000300 	andeq	r0, r0, r0, lsl #6
  7c:	5f707362 	svcpl	0x00707362
  80:	70656562 	rsbvc	r6, r5, r2, ror #10
  84:	0400682e 	streq	r6, [r0], #-2094	; 0xfffff7d2
  88:	73620000 	cmnvc	r2, #0
  8c:	656c5f70 	strbvs	r5, [ip, #-3952]!	; 0xfffff090
  90:	00682e64 	rsbeq	r2, r8, r4, ror #28
  94:	62000005 	andvs	r0, r0, #5
  98:	645f7073 	ldrbvs	r7, [pc], #-115	; a0 <shift+0xa0>
  9c:	79616c65 	stmdbvc	r1!, {r0, r2, r5, r6, sl, fp, sp, lr}^
  a0:	0600682e 	streq	r6, [r0], -lr, lsr #16
  a4:	73620000 	cmnvc	r2, #0
  a8:	61755f70 	cmnvs	r5, r0, ror pc
  ac:	682e7472 	stmdavs	lr!, {r1, r4, r5, r6, sl, ip, sp, lr}
  b0:	00000700 	andeq	r0, r0, r0, lsl #14
  b4:	02050000 	andeq	r0, r5, #0
  b8:	878010b0 			; <UNDEFINED> instruction: 0x878010b0
  bc:	21010d03 	tstcs	r1, r3, lsl #26
  c0:	2f312f2f 	svccs	0x00312f2f
  c4:	00302f31 	eorseq	r2, r0, r1, lsr pc
  c8:	33010402 	movwcc	r0, #5122	; 0x1402
  cc:	01040200 	mrseq	r0, R12_usr
  d0:	04020067 	streq	r0, [r2], #-103	; 0xffffff99
  d4:	02003d01 	andeq	r3, r0, #1, 26	; 0x40
  d8:	002f0104 	eoreq	r0, pc, r4, lsl #2
  dc:	67010402 	strvs	r0, [r1, -r2, lsl #8]
  e0:	01040200 	mrseq	r0, R12_usr
  e4:	04020067 	streq	r0, [r2], #-103	; 0xffffff99
  e8:	02003d01 	andeq	r3, r0, #1, 26	; 0x40
  ec:	02670104 	rsbeq	r0, r7, #4, 2
  f0:	01010001 	tsteq	r1, r1
  f4:	00000095 	muleq	r0, r5, r0
  f8:	00440003 	subeq	r0, r4, r3
  fc:	01020000 	mrseq	r0, (UNDEF: 2)
 100:	000d0efb 	strdeq	r0, [sp], -fp
 104:	01010101 	tsteq	r1, r1, lsl #2
 108:	01000000 	mrseq	r0, (UNDEF: 0)
 10c:	62010000 	andvs	r0, r1, #0
 110:	632f7073 			; <UNDEFINED> instruction: 0x632f7073
 114:	69006b6c 	stmdbvs	r0, {r2, r3, r5, r6, r8, r9, fp, sp, lr}
 118:	7536786d 	ldrvc	r7, [r6, #-2157]!	; 0xfffff793
 11c:	73620000 	cmnvc	r2, #0
 120:	6c635f70 	stclvs	15, cr5, [r3], #-448	; 0xfffffe40
 124:	00632e6b 	rsbeq	r2, r3, fp, ror #28
 128:	63000001 	movwvs	r0, #1
 12c:	00682e63 	rsbeq	r2, r8, r3, ror #28
 130:	4d000002 	stcmi	0, cr0, [r0, #-8]
 134:	584d4943 	stmdapl	sp, {r0, r1, r6, r8, fp, lr}^
 138:	2e325936 			; <UNDEFINED> instruction: 0x2e325936
 13c:	00020068 	andeq	r0, r2, r8, rrx
 140:	05000000 	streq	r0, [r0, #-0]
 144:	8002c002 	andhi	ip, r2, r2
 148:	75131787 	ldrvc	r1, [r3, #-1927]	; 0xfffff879
 14c:	21212121 			; <UNDEFINED> instruction: 0x21212121
 150:	55154f21 	ldrpl	r4, [r5, #-3873]	; 0xfffff0df
 154:	4d4b2f23 	stclmi	15, cr2, [fp, #-140]	; 0xffffff74
 158:	1f4b492f 	svcne	0x004b492f
 15c:	03200c03 			; <UNDEFINED> instruction: 0x03200c03
 160:	0b032e75 	bleq	cbb3c <shift+0xcbb3c>
 164:	2e760320 	cdpcs	3, 7, cr0, cr6, cr0, {1}
 168:	51201303 			; <UNDEFINED> instruction: 0x51201303
 16c:	41206603 			; <UNDEFINED> instruction: 0x41206603
 170:	3121322f 			; <UNDEFINED> instruction: 0x3121322f
 174:	3121322f 			; <UNDEFINED> instruction: 0x3121322f
 178:	02004b4b 	andeq	r4, r0, #76800	; 0x12c00
 17c:	7b4b0104 	blvc	12c0594 <shift+0x12c0594>
 180:	207a0326 	rsbscs	r0, sl, r6, lsr #6
 184:	4b4b4d3d 	blmi	12d3680 <shift+0x12d3680>
 188:	01000102 	tsteq	r0, r2, lsl #2
 18c:	0000c901 	andeq	ip, r0, r1, lsl #18
 190:	79000300 	stmdbvc	r0, {r8, r9}
 194:	02000000 	andeq	r0, r0, #0
 198:	0d0efb01 	vstreq	d15, [lr, #-4]
 19c:	01010100 	mrseq	r0, (UNDEF: 17)
 1a0:	00000001 	andeq	r0, r0, r1
 1a4:	01000001 	tsteq	r0, r1
 1a8:	2f707362 	svccs	0x00707362
 1ac:	616c6564 	cmnvs	ip, r4, ror #10
 1b0:	6d690079 	stclvs	0, cr0, [r9, #-484]!	; 0xfffffe1c
 1b4:	00753678 	rsbseq	r3, r5, r8, ror r6
 1b8:	7273752f 	rsbsvc	r7, r3, #197132288	; 0xbc00000
 1bc:	6d72612f 	ldfvse	f6, [r2, #-188]!	; 0xffffff44
 1c0:	6e696c2d 	cdpvs	12, 6, cr6, cr9, cr13, {1}
 1c4:	672d7875 			; <UNDEFINED> instruction: 0x672d7875
 1c8:	6165756e 	cmnvs	r5, lr, ror #10
 1cc:	66686962 	strbtvs	r6, [r8], -r2, ror #18
 1d0:	636e692f 	cmnvs	lr, #770048	; 0xbc000
 1d4:	6564756c 	strbvs	r7, [r4, #-1388]!	; 0xfffffa94
 1d8:	7469622f 	strbtvc	r6, [r9], #-559	; 0xfffffdd1
 1dc:	62000073 	andvs	r0, r0, #115	; 0x73
 1e0:	645f7073 	ldrbvs	r7, [pc], #-115	; 1e8 <shift+0x1e8>
 1e4:	79616c65 	stmdbvc	r1!, {r0, r2, r5, r6, sl, fp, sp, lr}^
 1e8:	0100632e 	tsteq	r0, lr, lsr #6
 1ec:	434d0000 	movtmi	r0, #53248	; 0xd000
 1f0:	36584d49 	ldrbcc	r4, [r8], -r9, asr #26
 1f4:	682e3259 	stmdavs	lr!, {r0, r3, r4, r6, r9, ip, sp}
 1f8:	00000200 	andeq	r0, r0, r0, lsl #4
 1fc:	682e6363 	stmdavs	lr!, {r0, r1, r5, r6, r8, r9, sp, lr}
 200:	00000200 	andeq	r0, r0, r0, lsl #4
 204:	65707974 	ldrbvs	r7, [r0, #-2420]!	; 0xfffff68c
 208:	00682e73 	rsbeq	r2, r8, r3, ror lr
 20c:	00000003 	andeq	r0, r0, r3
 210:	9c020500 	cfstr32ls	mvfx0, [r2], {-0}
 214:	16878003 	strne	r8, [r7], r3
 218:	001f6813 	andseq	r6, pc, r3, lsl r8	; <UNPREDICTABLE>
 21c:	4b010402 	blmi	4122c <shift+0x4122c>
 220:	221f2175 	andscs	r2, pc, #1073741853	; 0x4000001d
 224:	5d21212d 	stfpls	f2, [r1, #-180]!	; 0xffffff4c
 228:	01040200 	mrseq	r0, R12_usr
 22c:	213f592f 	teqcs	pc, pc, lsr #18
 230:	22251e4c 	eorcs	r1, r5, #76, 28	; 0x4c0
 234:	235b2d3d 	cmpcs	fp, #3904	; 0xf40
 238:	28207803 	stmdacs	r0!, {r0, r1, fp, ip, sp, lr}
 23c:	68033326 	stmdavs	r3, {r1, r2, r5, r8, r9, ip, sp}
 240:	4a190320 	bmi	640ec8 <shift+0x640ec8>
 244:	223c6703 	eorscs	r6, ip, #786432	; 0xc0000
 248:	2d3d2223 	lfmcs	f2, 4, [sp, #-140]!	; 0xffffff74
 24c:	03232f3e 			; <UNDEFINED> instruction: 0x03232f3e
 250:	17033c78 	smlsdxne	r3, r8, ip, r3
 254:	0002022e 	andeq	r0, r2, lr, lsr #4
 258:	00ae0101 	adceq	r0, lr, r1, lsl #2
 25c:	00030000 	andeq	r0, r3, r0
 260:	00000054 	andeq	r0, r0, r4, asr r0
 264:	0efb0102 	cdpeq	1, 15, cr0, cr11, cr2, {0}
 268:	0101000d 	tsteq	r1, sp
 26c:	00000101 	andeq	r0, r0, r1, lsl #2
 270:	00000100 	andeq	r0, r0, r0, lsl #2
 274:	70736201 	rsbsvc	r6, r3, r1, lsl #4
 278:	64656c2f 	strbtvs	r6, [r5], #-3119	; 0xfffff3d1
 27c:	786d6900 	stmdavc	sp!, {r8, fp, sp, lr}^
 280:	00007536 	andeq	r7, r0, r6, lsr r5
 284:	5f707362 	svcpl	0x00707362
 288:	2e64656c 	cdpcs	5, 6, cr6, cr4, cr12, {3}
 28c:	00010063 	andeq	r0, r1, r3, rrx
 290:	6c736600 	ldclvs	6, cr6, [r3], #-0
 294:	6d6f695f 			; <UNDEFINED> instruction: 0x6d6f695f
 298:	2e637875 	mcrcs	8, 3, r7, cr3, cr5, {3}
 29c:	00020068 	andeq	r0, r2, r8, rrx
 2a0:	49434d00 	stmdbmi	r3, {r8, sl, fp, lr}^
 2a4:	5936584d 	ldmdbpl	r6!, {r0, r2, r3, r6, fp, ip, lr}
 2a8:	00682e32 	rsbeq	r2, r8, r2, lsr lr
 2ac:	63000002 	movwvs	r0, #2
 2b0:	00682e63 	rsbeq	r2, r8, r3, ror #28
 2b4:	00000002 	andeq	r0, r0, r2
 2b8:	58020500 	stmdapl	r2, {r8, sl}
 2bc:	18878004 	stmne	r7, {r2, pc}
 2c0:	a3030204 	movwge	r0, #12804	; 0x3204
 2c4:	1f030108 	svcne	0x00030108
 2c8:	03010420 	movweq	r0, #5152	; 0x1420
 2cc:	042e77c2 	strteq	r7, [lr], #-1986	; 0xfffff83e
 2d0:	089f0302 	ldmeq	pc, {r1, r8, r9}	; <UNPREDICTABLE>
 2d4:	0301042e 	movweq	r0, #5166	; 0x142e
 2d8:	042e77dd 	strteq	r7, [lr], #-2013	; 0xfffff823
 2dc:	08c20302 	stmiaeq	r2, {r1, r8, r9}^
 2e0:	03010420 	movweq	r0, #5152	; 0x1420
 2e4:	042e77c2 	strteq	r7, [lr], #-1986	; 0xfffff83e
 2e8:	089f0302 	ldmeq	pc, {r1, r8, r9}	; <UNPREDICTABLE>
 2ec:	201f032e 	andscs	r0, pc, lr, lsr #6
 2f0:	032e6103 			; <UNDEFINED> instruction: 0x032e6103
 2f4:	0104201f 	tsteq	r4, pc, lsl r0
 2f8:	2077c203 	rsbscs	ip, r7, r3, lsl #4
 2fc:	2d221f21 	stccs	15, cr1, [r2, #-132]!	; 0xffffff7c
 300:	a2132321 	andsge	r2, r3, #-2080374784	; 0x84000000
 304:	0213a213 	andseq	sl, r3, #805306369	; 0x30000001
 308:	01010009 	tsteq	r1, r9
 30c:	000000ac 	andeq	r0, r0, ip, lsr #1
 310:	00560003 	subseq	r0, r6, r3
 314:	01020000 	mrseq	r0, (UNDEF: 2)
 318:	000d0efb 	strdeq	r0, [sp], -fp
 31c:	01010101 	tsteq	r1, r1, lsl #2
 320:	01000000 	mrseq	r0, (UNDEF: 0)
 324:	62010000 	andvs	r0, r1, #0
 328:	622f7073 	eorvs	r7, pc, #115	; 0x73
 32c:	00706565 	rsbseq	r6, r0, r5, ror #10
 330:	36786d69 	ldrbtcc	r6, [r8], -r9, ror #26
 334:	62000075 	andvs	r0, r0, #117	; 0x75
 338:	625f7073 	subsvs	r7, pc, #115	; 0x73
 33c:	2e706565 	cdpcs	5, 7, cr6, cr0, cr5, {3}
 340:	00010063 	andeq	r0, r1, r3, rrx
 344:	6c736600 	ldclvs	6, cr6, [r3], #-0
 348:	6d6f695f 			; <UNDEFINED> instruction: 0x6d6f695f
 34c:	2e637875 	mcrcs	8, 3, r7, cr3, cr5, {3}
 350:	00020068 	andeq	r0, r2, r8, rrx
 354:	49434d00 	stmdbmi	r3, {r8, sl, fp, lr}^
 358:	5936584d 	ldmdbpl	r6!, {r0, r2, r3, r6, fp, ip, lr}
 35c:	00682e32 	rsbeq	r2, r8, r2, lsr lr
 360:	63000002 	movwvs	r0, #2
 364:	00682e63 	rsbeq	r2, r8, r3, ror #28
 368:	00000002 	andeq	r0, r0, r2
 36c:	c4020500 	strgt	r0, [r2], #-1280	; 0xfffffb00
 370:	17878004 	strne	r8, [r7, r4]
 374:	a4030204 	strge	r0, [r3], #-516	; 0xfffffdfc
 378:	1f030108 	svcne	0x00030108
 37c:	03010420 	movweq	r0, #5152	; 0x1420
 380:	042077c1 	strteq	r7, [r0], #-1985	; 0xfffff83f
 384:	08bf0302 	ldmeq	pc!, {r1, r8, r9}	; <UNPREDICTABLE>
 388:	0301042e 	movweq	r0, #5166	; 0x142e
 38c:	042e77c1 	strteq	r7, [lr], #-1985	; 0xfffff83f
 390:	08a00302 	stmiaeq	r0!, {r1, r8, r9}
 394:	0301042e 	movweq	r0, #5166	; 0x142e
 398:	042e77dc 	strteq	r7, [lr], #-2012	; 0xfffff824
 39c:	08c30302 	stmiaeq	r3, {r1, r8, r9}^
 3a0:	2e610320 	cdpcs	3, 6, cr0, cr1, cr0, {1}
 3a4:	042e1f03 	strteq	r1, [lr], #-3843	; 0xfffff0fd
 3a8:	77c10301 	strbvc	r0, [r1, r1, lsl #6]
 3ac:	3d2c2220 	sfmcc	f2, 4, [ip, #-128]!	; 0xffffff80
 3b0:	a213314b 	andsge	r3, r3, #-1073741806	; 0xc0000012
 3b4:	0213a213 	andseq	sl, r3, #805306369	; 0x30000001
 3b8:	01010009 	tsteq	r1, r9
 3bc:	0000013f 	andeq	r0, r0, pc, lsr r1
 3c0:	00c20003 	sbceq	r0, r2, r3
 3c4:	01020000 	mrseq	r0, (UNDEF: 2)
 3c8:	000d0efb 	strdeq	r0, [sp], -fp
 3cc:	01010101 	tsteq	r1, r1, lsl #2
 3d0:	01000000 	mrseq	r0, (UNDEF: 0)
 3d4:	62010000 	andvs	r0, r1, #0
 3d8:	6b2f7073 	blvs	bdc5ac <shift+0xbdc5ac>
 3dc:	69007965 	stmdbvs	r0, {r0, r2, r5, r6, r8, fp, ip, sp, lr}
 3e0:	7536786d 	ldrvc	r7, [r6, #-2157]!	; 0xfffff793
 3e4:	73752f00 	cmnvc	r5, #0, 30
 3e8:	72612f72 	rsbvc	r2, r1, #456	; 0x1c8
 3ec:	696c2d6d 	stmdbvs	ip!, {r0, r2, r3, r5, r6, r8, sl, fp, sp}^
 3f0:	2d78756e 	cfldr64cs	mvdx7, [r8, #-440]!	; 0xfffffe48
 3f4:	65756e67 	ldrbvs	r6, [r5, #-3687]!	; 0xfffff199
 3f8:	68696261 	stmdavs	r9!, {r0, r5, r6, r9, sp, lr}^
 3fc:	6e692f66 	cdpvs	15, 6, cr2, cr9, cr6, {3}
 400:	64756c63 	ldrbtvs	r6, [r5], #-3171	; 0xfffff39d
 404:	69622f65 	stmdbvs	r2!, {r0, r2, r5, r6, r8, r9, sl, fp, sp}^
 408:	62007374 	andvs	r7, r0, #116, 6	; 0xd0000001
 40c:	672f7073 			; <UNDEFINED> instruction: 0x672f7073
 410:	006f6970 	rsbeq	r6, pc, r0, ror r9	; <UNPREDICTABLE>
 414:	2f707362 	svccs	0x00707362
 418:	616c6564 	cmnvs	ip, r4, ror #10
 41c:	62000079 	andvs	r0, r0, #121	; 0x79
 420:	6b5f7073 	blvs	17dc5f4 <shift+0x17dc5f4>
 424:	632e7965 			; <UNDEFINED> instruction: 0x632e7965
 428:	00000100 	andeq	r0, r0, r0, lsl #2
 42c:	5f6c7366 	svcpl	0x006c7366
 430:	756d6f69 	strbvc	r6, [sp, #-3945]!	; 0xfffff097
 434:	682e6378 	stmdavs	lr!, {r3, r4, r5, r6, r8, r9, sp, lr}
 438:	00000200 	andeq	r0, r0, r0, lsl #4
 43c:	5f707362 	svcpl	0x00707362
 440:	2e79656b 	cdpcs	5, 7, cr6, cr9, cr11, {3}
 444:	00010068 	andeq	r0, r1, r8, rrx
 448:	2e636300 	cdpcs	3, 6, cr6, cr3, cr0, {0}
 44c:	00020068 	andeq	r0, r2, r8, rrx
 450:	49434d00 	stmdbmi	r3, {r8, sl, fp, lr}^
 454:	5936584d 	ldmdbpl	r6!, {r0, r2, r3, r6, fp, ip, lr}
 458:	00682e32 	rsbeq	r2, r8, r2, lsr lr
 45c:	74000002 	strvc	r0, [r0], #-2
 460:	73657079 	cmnvc	r5, #121	; 0x79
 464:	0300682e 	movweq	r6, #2094	; 0x82e
 468:	73620000 	cmnvc	r2, #0
 46c:	70675f70 	rsbvc	r5, r7, r0, ror pc
 470:	682e6f69 	stmdavs	lr!, {r0, r3, r5, r6, r8, r9, sl, fp, sp, lr}
 474:	00000400 	andeq	r0, r0, r0, lsl #8
 478:	5f707362 	svcpl	0x00707362
 47c:	616c6564 	cmnvs	ip, r4, ror #10
 480:	00682e79 	rsbeq	r2, r8, r9, ror lr
 484:	00000005 	andeq	r0, r0, r5
 488:	38020500 	stmdacc	r2, {r8, sl}
 48c:	18878005 	stmne	r7, {r0, r2, pc}
 490:	a3030204 	movwge	r0, #12804	; 0x3204
 494:	1f030108 	svcne	0x00030108
 498:	03010420 	movweq	r0, #5152	; 0x1420
 49c:	042e77be 	strteq	r7, [lr], #-1982	; 0xfffff842
 4a0:	08a30302 	stmiaeq	r3!, {r1, r8, r9}
 4a4:	03010420 	movweq	r0, #5152	; 0x1420
 4a8:	042e77dd 	strteq	r7, [lr], #-2013	; 0xfffff823
 4ac:	08c20302 	stmiaeq	r2, {r1, r8, r9}^
 4b0:	03010420 	movweq	r0, #5152	; 0x1420
 4b4:	042e77c3 	strteq	r7, [lr], #-1987	; 0xfffff83d
 4b8:	089e0302 	ldmeq	lr, {r1, r8, r9}
 4bc:	201f032e 	andscs	r0, pc, lr, lsr #6
 4c0:	042e6103 	strteq	r6, [lr], #-259	; 0xfffffefd
 4c4:	77e20301 	strbvc	r0, [r2, r1, lsl #6]!
 4c8:	03020420 	movweq	r0, #9248	; 0x2420
 4cc:	042e08bd 	strteq	r0, [lr], #-2237	; 0xfffff743
 4d0:	77c30301 	strbvc	r0, [r3, r1, lsl #6]
 4d4:	2f4b2d20 	svccs	0x004b2d20
 4d8:	78032436 	stmdavc	r3, {r1, r2, r4, r5, sl, sp}
 4dc:	78037c66 	stmdavc	r3, {r1, r2, r5, r6, sl, fp, ip, sp, lr}
 4e0:	740f032e 	strvc	r0, [pc], #-814	; 4e8 <shift+0x4e8>
 4e4:	2e740322 	cdpcs	3, 7, cr0, cr4, cr2, {1}
 4e8:	03201003 			; <UNDEFINED> instruction: 0x03201003
 4ec:	77032074 	smlsdxvc	r3, r4, r0, r2
 4f0:	580a033c 	stmdapl	sl, {r2, r3, r4, r5, r8, r9}
 4f4:	03207603 			; <UNDEFINED> instruction: 0x03207603
 4f8:	04022e0c 	streq	r2, [r2], #-3596	; 0xfffff1f4
 4fc:	0f010100 	svceq	0x00010100
 500:	03000001 	movweq	r0, #1
 504:	00008500 	andeq	r8, r0, r0, lsl #10
 508:	fb010200 	blx	40d12 <shift+0x40d12>
 50c:	01000d0e 	tsteq	r0, lr, lsl #26
 510:	00010101 	andeq	r0, r1, r1, lsl #2
 514:	00010000 	andeq	r0, r1, r0
 518:	73620100 	cmnvc	r2, #0, 2
 51c:	70672f70 	rsbvc	r2, r7, r0, ror pc
 520:	69006f69 	stmdbvs	r0, {r0, r3, r5, r6, r8, r9, sl, fp, sp, lr}
 524:	7536786d 	ldrvc	r7, [r6, #-2157]!	; 0xfffff793
 528:	73752f00 	cmnvc	r5, #0, 30
 52c:	72612f72 	rsbvc	r2, r1, #456	; 0x1c8
 530:	696c2d6d 	stmdbvs	ip!, {r0, r2, r3, r5, r6, r8, sl, fp, sp}^
 534:	2d78756e 	cfldr64cs	mvdx7, [r8, #-440]!	; 0xfffffe48
 538:	65756e67 	ldrbvs	r6, [r5, #-3687]!	; 0xfffff199
 53c:	68696261 	stmdavs	r9!, {r0, r5, r6, r9, sp, lr}^
 540:	6e692f66 	cdpvs	15, 6, cr2, cr9, cr6, {3}
 544:	64756c63 	ldrbtvs	r6, [r5], #-3171	; 0xfffff39d
 548:	69622f65 	stmdbvs	r2!, {r0, r2, r5, r6, r8, r9, sl, fp, sp}^
 54c:	00007374 	andeq	r7, r0, r4, ror r3
 550:	5f707362 	svcpl	0x00707362
 554:	6f697067 	svcvs	0x00697067
 558:	0100632e 	tsteq	r0, lr, lsr #6
 55c:	63630000 	cmnvs	r3, #0
 560:	0200682e 	andeq	r6, r0, #3014656	; 0x2e0000
 564:	434d0000 	movtmi	r0, #53248	; 0xd000
 568:	36584d49 	ldrbcc	r4, [r8], -r9, asr #26
 56c:	682e3259 	stmdavs	lr!, {r0, r3, r4, r6, r9, ip, sp}
 570:	00000200 	andeq	r0, r0, r0, lsl #4
 574:	5f707362 	svcpl	0x00707362
 578:	6f697067 	svcvs	0x00697067
 57c:	0100682e 	tsteq	r0, lr, lsr #16
 580:	79740000 	ldmdbvc	r4!, {}^	; <UNPREDICTABLE>
 584:	2e736570 	mrccs	5, 3, r6, cr3, cr0, {3}
 588:	00030068 	andeq	r0, r3, r8, rrx
 58c:	05000000 	streq	r0, [r0, #-0]
 590:	8005c802 	andhi	ip, r5, r2, lsl #16
 594:	01100387 	tsteq	r0, r7, lsl #7
 598:	86136a13 			; <UNDEFINED> instruction: 0x86136a13
 59c:	1e196a13 			; <UNDEFINED> instruction: 0x1e196a13
 5a0:	2b422529 	blcs	1089a4c <shift+0x1089a4c>
 5a4:	09032930 	stmdbeq	r3, {r4, r5, r8, fp, sp}
 5a8:	2e77032e 	cdpcs	3, 7, cr0, cr7, cr14, {1}
 5ac:	03200903 			; <UNDEFINED> instruction: 0x03200903
 5b0:	2a342e7a 	bcs	d0bfa0 <shift+0xd0bfa0>
 5b4:	033e1e34 	teqeq	lr, #52, 28	; 0x340
 5b8:	0341660d 	movteq	r6, #5645	; 0x160d
 5bc:	03442e78 	movteq	r2, #20088	; 0x4e78
 5c0:	0b032e75 	bleq	cbf9c <shift+0xcbf9c>
 5c4:	2e720358 	mrccs	3, 3, r0, cr2, cr8, {2}
 5c8:	03580e03 	cmpeq	r8, #3, 28	; 0x30
 5cc:	1f132e43 	svcne	0x00132e43
 5d0:	3d032321 	stccc	3, cr2, [r3, #-132]	; 0xffffff7c
 5d4:	44033158 	strmi	r3, [r3], #-344	; 0xfffffea8
 5d8:	203c0320 	eorscs	r0, ip, r0, lsr #6
 5dc:	03204503 			; <UNDEFINED> instruction: 0x03204503
 5e0:	44032e3b 	strmi	r2, [r3], #-3643	; 0xfffff1c5
 5e4:	2e7a0320 	cdpcs	3, 7, cr0, cr10, cr0, {1}
 5e8:	207a0342 	rsbscs	r0, sl, r2, asr #6
 5ec:	2e790335 	mrccs	3, 3, r0, cr9, cr5, {1}
 5f0:	2e3a0326 	cdpcs	3, 3, cr0, cr10, cr6, {1}
 5f4:	03204603 			; <UNDEFINED> instruction: 0x03204603
 5f8:	4703203a 	smladxmi	r3, sl, r0, r2
 5fc:	2e39032e 	cdpcs	3, 3, cr0, cr9, cr14, {1}
 600:	03204603 			; <UNDEFINED> instruction: 0x03204603
 604:	1f142e38 	svcne	0x00142e38
 608:	137b5623 	cmnne	fp, #36700160	; 0x2300000
 60c:	0003022f 	andeq	r0, r3, pc, lsr #4
 610:	01160101 	tsteq	r6, r1, lsl #2
 614:	00030000 	andeq	r0, r3, r0
 618:	00000098 	muleq	r0, r8, r0
 61c:	0efb0102 	cdpeq	1, 15, cr0, cr11, cr2, {0}
 620:	0101000d 	tsteq	r1, sp
 624:	00000101 	andeq	r0, r0, r1, lsl #2
 628:	00000100 	andeq	r0, r0, r0, lsl #2
 62c:	70736201 	rsbsvc	r6, r3, r1, lsl #4
 630:	746e692f 	strbtvc	r6, [lr], #-2351	; 0xfffff6d1
 634:	786d6900 	stmdavc	sp!, {r8, fp, sp, lr}^
 638:	2f007536 	svccs	0x00007536
 63c:	2f727375 	svccs	0x00727375
 640:	2d6d7261 	sfmcs	f7, 2, [sp, #-388]!	; 0xfffffe7c
 644:	756e696c 	strbvc	r6, [lr, #-2412]!	; 0xfffff694
 648:	6e672d78 	mcrvs	13, 3, r2, cr7, cr8, {3}
 64c:	62616575 	rsbvs	r6, r1, #490733568	; 0x1d400000
 650:	2f666869 	svccs	0x00666869
 654:	6c636e69 	stclvs	14, cr6, [r3], #-420	; 0xfffffe5c
 658:	2f656475 	svccs	0x00656475
 65c:	73746962 	cmnvc	r4, #1605632	; 0x188000
 660:	73620000 	cmnvc	r2, #0
 664:	6e695f70 	mcrvs	15, 3, r5, cr9, cr0, {3}
 668:	00632e74 	rsbeq	r2, r3, r4, ror lr
 66c:	63000001 	movwvs	r0, #1
 670:	5f65726f 	svcpl	0x0065726f
 674:	2e376163 	rsfcssz	f6, f7, f3
 678:	00020068 	andeq	r0, r2, r8, rrx
 67c:	49434d00 	stmdbmi	r3, {r8, sl, fp, lr}^
 680:	5936584d 	ldmdbpl	r6!, {r0, r2, r3, r6, fp, ip, lr}
 684:	00682e32 	rsbeq	r2, r8, r2, lsr lr
 688:	74000002 	strvc	r0, [r0], #-2
 68c:	73657079 	cmnvc	r5, #121	; 0x79
 690:	0300682e 	movweq	r6, #2094	; 0x82e
 694:	73660000 	cmnvc	r6, #0
 698:	6f635f6c 	svcvs	0x00635f6c
 69c:	6e6f6d6d 	cdpvs	13, 6, cr6, cr15, cr13, {3}
 6a0:	0200682e 	andeq	r6, r0, #3014656	; 0x2e0000
 6a4:	73620000 	cmnvc	r2, #0
 6a8:	6e695f70 	mcrvs	15, 3, r5, cr9, cr0, {3}
 6ac:	00682e74 	rsbeq	r2, r8, r4, ror lr
 6b0:	00000001 	andeq	r0, r0, r1
 6b4:	dc020500 	cfstr32le	mvfx0, [r2], {-0}
 6b8:	03878006 	orreq	r8, r7, #6
 6bc:	0200011c 	andeq	r0, r0, #28, 2
 6c0:	03130104 	tsteq	r3, #4, 2
 6c4:	00a12e69 	adceq	r2, r1, r9, ror #28
 6c8:	1f030402 	svcne	0x00030402
 6cc:	03040200 	movweq	r0, #16896	; 0x4200
 6d0:	0402002f 	streq	r0, [r2], #-47	; 0xffffffd1
 6d4:	23322c03 	teqcs	r2, #768	; 0x300
 6d8:	2f212d13 	svccs	0x00212d13
 6dc:	4e212f2d 	cdpmi	15, 2, cr2, cr1, cr13, {1}
 6e0:	ef030204 	svc	0x00030204
 6e4:	d9032003 	stmdble	r3, {r0, r1, sp}
 6e8:	33222e00 			; <UNDEFINED> instruction: 0x33222e00
 6ec:	2e780321 	cdpcs	3, 7, cr0, cr8, cr1, {1}
 6f0:	2f2d5022 	svccs	0x002d5022
 6f4:	3150242d 	cmpcc	r0, sp, lsr #8
 6f8:	692e7703 	stmdbvs	lr!, {r0, r1, r8, r9, sl, ip, sp, lr}
 6fc:	9e030104 	adflss	f0, f3, f4
 700:	0204827b 	andeq	r8, r4, #-1342177273	; 0xb0000007
 704:	2004e503 	andcs	lr, r4, r3, lsl #10
 708:	03010431 	movweq	r0, #5169	; 0x1431
 70c:	2f207b97 	svccs	0x00207b97
 710:	0302042c 	movweq	r0, #9260	; 0x242c
 714:	042e03e4 	strteq	r0, [lr], #-996	; 0xfffffc1c
 718:	7cae0301 	stcvc	3, cr0, [lr], #4
 71c:	57133658 			; <UNDEFINED> instruction: 0x57133658
 720:	2f2d4b22 	svccs	0x002d4b22
 724:	02213d3b 	eoreq	r3, r1, #3776	; 0xec0
 728:	01010006 	tsteq	r1, r6
 72c:	0000017c 	andeq	r0, r0, ip, ror r1
 730:	00f10003 	rscseq	r0, r1, r3
 734:	01020000 	mrseq	r0, (UNDEF: 2)
 738:	000d0efb 	strdeq	r0, [sp], -fp
 73c:	01010101 	tsteq	r1, r1, lsl #2
 740:	01000000 	mrseq	r0, (UNDEF: 0)
 744:	62010000 	andvs	r0, r1, #0
 748:	652f7073 	strvs	r7, [pc, #-115]!	; 6dd <shift+0x6dd>
 74c:	00697478 	rsbeq	r7, r9, r8, ror r4
 750:	36786d69 	ldrbtcc	r6, [r8], -r9, ror #26
 754:	752f0075 	strvc	r0, [pc, #-117]!	; 6e7 <shift+0x6e7>
 758:	612f7273 			; <UNDEFINED> instruction: 0x612f7273
 75c:	6c2d6d72 	stcvs	13, cr6, [sp], #-456	; 0xfffffe38
 760:	78756e69 	ldmdavc	r5!, {r0, r3, r5, r6, r9, sl, fp, sp, lr}^
 764:	756e672d 	strbvc	r6, [lr, #-1837]!	; 0xfffff8d3
 768:	69626165 	stmdbvs	r2!, {r0, r2, r5, r6, r8, sp, lr}^
 76c:	692f6668 	stmdbvs	pc!, {r3, r5, r6, r9, sl, sp, lr}	; <UNPREDICTABLE>
 770:	756c636e 	strbvc	r6, [ip, #-878]!	; 0xfffffc92
 774:	622f6564 	eorvs	r6, pc, #100, 10	; 0x19000000
 778:	00737469 	rsbseq	r7, r3, r9, ror #8
 77c:	2f707362 	svccs	0x00707362
 780:	6f697067 	svcvs	0x00697067
 784:	70736200 	rsbsvc	r6, r3, r0, lsl #4
 788:	746e692f 	strbtvc	r6, [lr], #-2351	; 0xfffff6d1
 78c:	70736200 	rsbsvc	r6, r3, r0, lsl #4
 790:	6c65642f 	cfstrdvs	mvd6, [r5], #-188	; 0xffffff44
 794:	62007961 	andvs	r7, r0, #1589248	; 0x184000
 798:	622f7073 	eorvs	r7, pc, #115	; 0x73
 79c:	00706565 	rsbseq	r6, r0, r5, ror #10
 7a0:	70736200 	rsbsvc	r6, r3, r0, lsl #4
 7a4:	7478655f 	ldrbtvc	r6, [r8], #-1375	; 0xfffffaa1
 7a8:	00632e69 	rsbeq	r2, r3, r9, ror #28
 7ac:	66000001 	strvs	r0, [r0], -r1
 7b0:	695f6c73 	ldmdbvs	pc, {r0, r1, r4, r5, r6, sl, fp, sp, lr}^	; <UNPREDICTABLE>
 7b4:	78756d6f 	ldmdavc	r5!, {r0, r1, r2, r3, r5, r6, r8, sl, fp, sp, lr}^
 7b8:	00682e63 	rsbeq	r2, r8, r3, ror #28
 7bc:	63000002 	movwvs	r0, #2
 7c0:	5f65726f 	svcpl	0x0065726f
 7c4:	2e376163 	rsfcssz	f6, f7, f3
 7c8:	00020068 	andeq	r0, r2, r8, rrx
 7cc:	2e636300 	cdpcs	3, 6, cr6, cr3, cr0, {0}
 7d0:	00020068 	andeq	r0, r2, r8, rrx
 7d4:	49434d00 	stmdbmi	r3, {r8, sl, fp, lr}^
 7d8:	5936584d 	ldmdbpl	r6!, {r0, r2, r3, r6, fp, ip, lr}
 7dc:	00682e32 	rsbeq	r2, r8, r2, lsr lr
 7e0:	74000002 	strvc	r0, [r0], #-2
 7e4:	73657079 	cmnvc	r5, #121	; 0x79
 7e8:	0300682e 	movweq	r6, #2094	; 0x82e
 7ec:	73620000 	cmnvc	r2, #0
 7f0:	70675f70 	rsbvc	r5, r7, r0, ror pc
 7f4:	682e6f69 	stmdavs	lr!, {r0, r3, r5, r6, r8, r9, sl, fp, sp, lr}
 7f8:	00000400 	andeq	r0, r0, r0, lsl #8
 7fc:	5f707362 	svcpl	0x00707362
 800:	2e746e69 	cdpcs	14, 7, cr6, cr4, cr9, {3}
 804:	00050068 	andeq	r0, r5, r8, rrx
 808:	70736200 	rsbsvc	r6, r3, r0, lsl #4
 80c:	6c65645f 	cfstrdvs	mvd6, [r5], #-380	; 0xfffffe84
 810:	682e7961 	stmdavs	lr!, {r0, r5, r6, r8, fp, ip, sp, lr}
 814:	00000600 	andeq	r0, r0, r0, lsl #12
 818:	5f707362 	svcpl	0x00707362
 81c:	70656562 	rsbvc	r6, r5, r2, ror #10
 820:	0700682e 	streq	r6, [r0, -lr, lsr #16]
 824:	00000000 	andeq	r0, r0, r0
 828:	07d00205 	ldrbeq	r0, [r0, r5, lsl #4]
 82c:	1b038780 	blne	e2634 <shift+0xe2634>
 830:	833e2101 	teqhi	lr, #1073741824	; 0x40000000
 834:	032d5931 			; <UNDEFINED> instruction: 0x032d5931
 838:	02043c69 	andeq	r3, r4, #26880	; 0x6900
 83c:	20089e03 	andcs	r9, r8, r3, lsl #28
 840:	04201f03 	strteq	r1, [r0], #-3843	; 0xfffff0fd
 844:	77cb0301 	strbvc	r0, [fp, r1, lsl #6]
 848:	2e78032e 	cdpcs	3, 7, cr0, cr8, cr14, {1}
 84c:	9e030204 	cdpls	2, 0, cr0, cr3, cr4, {0}
 850:	1f032008 	svcne	0x00032008
 854:	0301042e 	movweq	r0, #5166	; 0x142e
 858:	042e77cb 	strteq	r7, [lr], #-1995	; 0xfffff835
 85c:	08960302 	ldmeq	r6, {r1, r8, r9}
 860:	201f032e 	andscs	r0, pc, lr, lsr #6
 864:	042e6103 	strteq	r6, [lr], #-259	; 0xfffffefd
 868:	77ea0301 	strbvc	r0, [sl, r1, lsl #6]!
 86c:	03020420 	movweq	r0, #9248	; 0x2420
 870:	042008b5 	strteq	r0, [r0], #-2229	; 0xfffff74b
 874:	77cb0301 	strbvc	r0, [fp, r1, lsl #6]
 878:	045c2a20 	ldrbeq	r2, [ip], #-2592	; 0xfffff5e0
 87c:	03f10303 	mvnseq	r0, #201326592	; 0xc000000
 880:	00f5032e 	rscseq	r0, r5, lr, lsr #6
 884:	0104212e 	tsteq	r4, lr, lsr #2
 888:	2e7b9c03 	cdpcs	12, 7, cr9, cr11, cr3, {0}
 88c:	e3030304 	movw	r0, #13060	; 0x3304
 890:	04213c04 	strteq	r3, [r1], #-3076	; 0xfffff3fc
 894:	7b9c0301 	blvc	fe7014a0 <__bss_end+0x76effe30>
 898:	03030420 	movweq	r0, #13344	; 0x3420
 89c:	043c04e4 	ldrteq	r0, [ip], #-1252	; 0xfffffb1c
 8a0:	7b9c0301 	blvc	fe7014ac <__bss_end+0x76effe3c>
 8a4:	024b2f20 	subeq	r2, fp, #32, 30	; 0x80
 8a8:	01010002 	tsteq	r1, r2
 8ac:	000000fe 	strdeq	r0, [r0], -lr
 8b0:	00af0003 	adceq	r0, pc, r3
 8b4:	01020000 	mrseq	r0, (UNDEF: 2)
 8b8:	000d0efb 	strdeq	r0, [sp], -fp
 8bc:	01010101 	tsteq	r1, r1, lsl #2
 8c0:	01000000 	mrseq	r0, (UNDEF: 0)
 8c4:	62010000 	andvs	r0, r1, #0
 8c8:	652f7073 	strvs	r7, [pc, #-115]!	; 85d <shift+0x85d>
 8cc:	00746970 	rsbseq	r6, r4, r0, ror r9
 8d0:	36786d69 	ldrbtcc	r6, [r8], -r9, ror #26
 8d4:	752f0075 	strvc	r0, [pc, #-117]!	; 867 <shift+0x867>
 8d8:	612f7273 			; <UNDEFINED> instruction: 0x612f7273
 8dc:	6c2d6d72 	stcvs	13, cr6, [sp], #-456	; 0xfffffe38
 8e0:	78756e69 	ldmdavc	r5!, {r0, r3, r5, r6, r9, sl, fp, sp, lr}^
 8e4:	756e672d 	strbvc	r6, [lr, #-1837]!	; 0xfffff8d3
 8e8:	69626165 	stmdbvs	r2!, {r0, r2, r5, r6, r8, sp, lr}^
 8ec:	692f6668 	stmdbvs	pc!, {r3, r5, r6, r9, sl, sp, lr}	; <UNPREDICTABLE>
 8f0:	756c636e 	strbvc	r6, [ip, #-878]!	; 0xfffffc92
 8f4:	622f6564 	eorvs	r6, pc, #100, 10	; 0x19000000
 8f8:	00737469 	rsbseq	r7, r3, r9, ror #8
 8fc:	2f707362 	svccs	0x00707362
 900:	00746e69 	rsbseq	r6, r4, r9, ror #28
 904:	2f707362 	svccs	0x00707362
 908:	0064656c 	rsbeq	r6, r4, ip, ror #10
 90c:	70736200 	rsbsvc	r6, r3, r0, lsl #4
 910:	6970655f 	ldmdbvs	r0!, {r0, r1, r2, r3, r4, r6, r8, sl, sp, lr}^
 914:	00632e74 	rsbeq	r2, r3, r4, ror lr
 918:	63000001 	movwvs	r0, #1
 91c:	5f65726f 	svcpl	0x0065726f
 920:	2e376163 	rsfcssz	f6, f7, f3
 924:	00020068 	andeq	r0, r2, r8, rrx
 928:	2e636300 	cdpcs	3, 6, cr6, cr3, cr0, {0}
 92c:	00020068 	andeq	r0, r2, r8, rrx
 930:	49434d00 	stmdbmi	r3, {r8, sl, fp, lr}^
 934:	5936584d 	ldmdbpl	r6!, {r0, r2, r3, r6, fp, ip, lr}
 938:	00682e32 	rsbeq	r2, r8, r2, lsr lr
 93c:	74000002 	strvc	r0, [r0], #-2
 940:	73657079 	cmnvc	r5, #121	; 0x79
 944:	0300682e 	movweq	r6, #2094	; 0x82e
 948:	73620000 	cmnvc	r2, #0
 94c:	6e695f70 	mcrvs	15, 3, r5, cr9, cr0, {3}
 950:	00682e74 	rsbeq	r2, r8, r4, ror lr
 954:	62000004 	andvs	r0, r0, #4
 958:	6c5f7073 	mrrcvs	0, 7, r7, pc, cr3	; <UNPREDICTABLE>
 95c:	682e6465 	stmdavs	lr!, {r0, r2, r5, r6, sl, sp, lr}
 960:	00000500 	andeq	r0, r0, r0, lsl #10
 964:	02050000 	andeq	r0, r5, #0
 968:	87800864 	strhi	r0, [r0, r4, ror #16]
 96c:	21011703 	tstcs	r1, r3, lsl #14
 970:	6b033167 	blvs	ccf14 <shift+0xccf14>
 974:	4f2a3290 	svcmi	0x002a3290
 978:	211f3d1f 	tstcs	pc, pc, lsl sp	; <UNPREDICTABLE>
 97c:	02042159 	andeq	r2, r4, #1073741846	; 0x40000016
 980:	2003f603 	andcs	pc, r3, r3, lsl #12
 984:	2e00f503 	cfsh32cs	mvfx15, mvfx0, #3
 988:	03010421 	movweq	r0, #5153	; 0x1421
 98c:	042e7b97 	strteq	r7, [lr], #-2967	; 0xfffff469
 990:	04e90302 	strbteq	r0, [r9], #770	; 0x302
 994:	01042d2e 	tsteq	r4, lr, lsr #26
 998:	207b9803 	rsbscs	r9, fp, r3, lsl #16
 99c:	e9030204 	stmdb	r3, {r2, r9}
 9a0:	01043c04 	tsteq	r4, r4, lsl #24
 9a4:	207b9703 	rsbscs	r9, fp, r3, lsl #14
 9a8:	00050230 	andeq	r0, r5, r0, lsr r2
 9ac:	01cd0101 	biceq	r0, sp, r1, lsl #2
 9b0:	00030000 	andeq	r0, r3, r0
 9b4:	000000e4 	andeq	r0, r0, r4, ror #1
 9b8:	0efb0102 	cdpeq	1, 15, cr0, cr11, cr2, {0}
 9bc:	0101000d 	tsteq	r1, sp
 9c0:	00000101 	andeq	r0, r0, r1, lsl #2
 9c4:	00000100 	andeq	r0, r0, r0, lsl #2
 9c8:	70736201 	rsbsvc	r6, r3, r1, lsl #4
 9cc:	79656b2f 	stmdbvc	r5!, {r0, r1, r2, r3, r5, r8, r9, fp, sp, lr}^
 9d0:	6c69665f 	stclvs	6, cr6, [r9], #-380	; 0xfffffe84
 9d4:	00726574 	rsbseq	r6, r2, r4, ror r5
 9d8:	36786d69 	ldrbtcc	r6, [r8], -r9, ror #26
 9dc:	752f0075 	strvc	r0, [pc, #-117]!	; 96f <shift+0x96f>
 9e0:	612f7273 			; <UNDEFINED> instruction: 0x612f7273
 9e4:	6c2d6d72 	stcvs	13, cr6, [sp], #-456	; 0xfffffe38
 9e8:	78756e69 	ldmdavc	r5!, {r0, r3, r5, r6, r9, sl, fp, sp, lr}^
 9ec:	756e672d 	strbvc	r6, [lr, #-1837]!	; 0xfffff8d3
 9f0:	69626165 	stmdbvs	r2!, {r0, r2, r5, r6, r8, sp, lr}^
 9f4:	692f6668 	stmdbvs	pc!, {r3, r5, r6, r9, sl, sp, lr}	; <UNPREDICTABLE>
 9f8:	756c636e 	strbvc	r6, [ip, #-878]!	; 0xfffffc92
 9fc:	622f6564 	eorvs	r6, pc, #100, 10	; 0x19000000
 a00:	00737469 	rsbseq	r7, r3, r9, ror #8
 a04:	2f707362 	svccs	0x00707362
 a08:	6f697067 	svcvs	0x00697067
 a0c:	70736200 	rsbsvc	r6, r3, r0, lsl #4
 a10:	746e692f 	strbtvc	r6, [lr], #-2351	; 0xfffff6d1
 a14:	70736200 	rsbsvc	r6, r3, r0, lsl #4
 a18:	6565622f 	strbvs	r6, [r5, #-559]!	; 0xfffffdd1
 a1c:	62000070 	andvs	r0, r0, #112	; 0x70
 a20:	6b5f7073 	blvs	17dcbf4 <shift+0x17dcbf4>
 a24:	665f7965 	ldrbvs	r7, [pc], -r5, ror #18
 a28:	65746c69 	ldrbvs	r6, [r4, #-3177]!	; 0xfffff397
 a2c:	00632e72 	rsbeq	r2, r3, r2, ror lr
 a30:	66000001 	strvs	r0, [r0], -r1
 a34:	695f6c73 	ldmdbvs	pc, {r0, r1, r4, r5, r6, sl, fp, sp, lr}^	; <UNPREDICTABLE>
 a38:	78756d6f 	ldmdavc	r5!, {r0, r1, r2, r3, r5, r6, r8, sl, fp, sp, lr}^
 a3c:	00682e63 	rsbeq	r2, r8, r3, ror #28
 a40:	63000002 	movwvs	r0, #2
 a44:	5f65726f 	svcpl	0x0065726f
 a48:	2e376163 	rsfcssz	f6, f7, f3
 a4c:	00020068 	andeq	r0, r2, r8, rrx
 a50:	2e636300 	cdpcs	3, 6, cr6, cr3, cr0, {0}
 a54:	00020068 	andeq	r0, r2, r8, rrx
 a58:	49434d00 	stmdbmi	r3, {r8, sl, fp, lr}^
 a5c:	5936584d 	ldmdbpl	r6!, {r0, r2, r3, r6, fp, ip, lr}
 a60:	00682e32 	rsbeq	r2, r8, r2, lsr lr
 a64:	74000002 	strvc	r0, [r0], #-2
 a68:	73657079 	cmnvc	r5, #121	; 0x79
 a6c:	0300682e 	movweq	r6, #2094	; 0x82e
 a70:	73620000 	cmnvc	r2, #0
 a74:	70675f70 	rsbvc	r5, r7, r0, ror pc
 a78:	682e6f69 	stmdavs	lr!, {r0, r3, r5, r6, r8, r9, sl, fp, sp, lr}
 a7c:	00000400 	andeq	r0, r0, r0, lsl #8
 a80:	5f707362 	svcpl	0x00707362
 a84:	2e746e69 	cdpcs	14, 7, cr6, cr4, cr9, {3}
 a88:	00050068 	andeq	r0, r5, r8, rrx
 a8c:	70736200 	rsbsvc	r6, r3, r0, lsl #4
 a90:	6565625f 	strbvs	r6, [r5, #-607]!	; 0xfffffda1
 a94:	00682e70 	rsbeq	r2, r8, r0, ror lr
 a98:	00000006 	andeq	r0, r0, r6
 a9c:	dc020500 	cfstr32le	mvfx0, [r2], {-0}
 aa0:	03878008 	orreq	r8, r7, #8
 aa4:	0321013e 			; <UNDEFINED> instruction: 0x0321013e
 aa8:	0e036674 	mcreq	6, 0, r6, cr3, cr4, {3}
 aac:	5a03314a 	bpl	ccfdc <shift+0xccfdc>
 ab0:	011a0390 			; <UNDEFINED> instruction: 0x011a0390
 ab4:	03206b03 			; <UNDEFINED> instruction: 0x03206b03
 ab8:	6b032e15 	blvs	cc314 <shift+0xcc314>
 abc:	2e15032e 	cdpcs	3, 1, cr0, cr5, cr14, {1}
 ac0:	1b206b03 	blne	81b6d4 <shift+0x81b6d4>
 ac4:	49201b03 	stmdbmi	r0!, {r0, r1, r8, r9, fp, ip}
 ac8:	6a03213d 	bvs	c8fc4 <shift+0xc8fc4>
 acc:	2e160320 	cdpcs	3, 1, cr0, cr6, cr0, {1}
 ad0:	033c6903 	teqeq	ip, #49152	; 0xc000
 ad4:	02042e69 	andeq	r2, r4, #1680	; 0x690
 ad8:	20089d03 	andcs	r9, r8, r3, lsl #26
 adc:	04201f03 	strteq	r1, [r0], #-3843	; 0xfffff0fd
 ae0:	77cc0301 	strbvc	r0, [ip, r1, lsl #6]
 ae4:	2e78032e 	cdpcs	3, 7, cr0, cr8, cr14, {1}
 ae8:	9d030204 	sfmls	f0, 4, [r3, #-16]
 aec:	1f032008 	svcne	0x00032008
 af0:	0301042e 	movweq	r0, #5166	; 0x142e
 af4:	042e77cc 	strteq	r7, [lr], #-1996	; 0xfffff834
 af8:	08950302 	ldmeq	r5, {r1, r8, r9}
 afc:	201f032e 	andscs	r0, pc, lr, lsr #6
 b00:	042e6103 	strteq	r6, [lr], #-259	; 0xfffffefd
 b04:	77eb0301 	strbvc	r0, [fp, r1, lsl #6]!
 b08:	03020420 	movweq	r0, #9248	; 0x2420
 b0c:	042008b4 	strteq	r0, [r0], #-2228	; 0xfffff74c
 b10:	77cc0301 	strbvc	r0, [ip, r1, lsl #6]
 b14:	045c2a20 	ldrbeq	r2, [ip], #-2592	; 0xfffff5e0
 b18:	03f00303 	mvnseq	r0, #201326592	; 0xc000000
 b1c:	00f5032e 	rscseq	r0, r5, lr, lsr #6
 b20:	0104212e 	tsteq	r4, lr, lsr #2
 b24:	2e7b9d03 	cdpcs	13, 7, cr9, cr11, cr3, {0}
 b28:	e2030304 	and	r0, r3, #4, 6	; 0x10000000
 b2c:	04213c04 	strteq	r3, [r1], #-3076	; 0xfffff3fc
 b30:	7b9d0301 	blvc	fe74173c <__bss_end+0x76f400cc>
 b34:	03030420 	movweq	r0, #13344	; 0x3420
 b38:	043c04e3 	ldrteq	r0, [ip], #-1251	; 0xfffffb1d
 b3c:	7b9d0301 	blvc	fe741748 <__bss_end+0x76f400d8>
 b40:	10032f20 	andne	r2, r3, r0, lsr #30
 b44:	2c213d4a 	stccs	13, cr3, [r1], #-296	; 0xfffffed8
 b48:	212d2f21 			; <UNDEFINED> instruction: 0x212d2f21
 b4c:	03030421 	movweq	r0, #13345	; 0x3421
 b50:	032003d9 			; <UNDEFINED> instruction: 0x032003d9
 b54:	212e00f5 	strdcs	r0, [lr, -r5]!
 b58:	b4030104 	strlt	r0, [r3], #-260	; 0xfffffefc
 b5c:	03042e7b 	movweq	r2, #20091	; 0x4e7b
 b60:	3c04cb03 			; <UNDEFINED> instruction: 0x3c04cb03
 b64:	03010421 	movweq	r0, #5153	; 0x1421
 b68:	042e7bb4 	strteq	r7, [lr], #-2996	; 0xfffff44c
 b6c:	04cc0303 	strbeq	r0, [ip], #771	; 0x303
 b70:	0301043c 	movweq	r0, #5180	; 0x143c
 b74:	03207bb4 			; <UNDEFINED> instruction: 0x03207bb4
 b78:	02022e6d 	andeq	r2, r2, #1744	; 0x6d0
 b7c:	a6010100 	strge	r0, [r1], -r0, lsl #2
 b80:	03000001 	movweq	r0, #1
 b84:	00008700 	andeq	r8, r0, r0, lsl #14
 b88:	fb010200 	blx	41392 <shift+0x41392>
 b8c:	01000d0e 	tsteq	r0, lr, lsl #26
 b90:	00010101 	andeq	r0, r1, r1, lsl #2
 b94:	00010000 	andeq	r0, r1, r0
 b98:	73620100 	cmnvc	r2, #0, 2
 b9c:	61752f70 	cmnvs	r5, r0, ror pc
 ba0:	69007472 	stmdbvs	r0, {r1, r4, r5, r6, sl, ip, sp, lr}
 ba4:	7536786d 	ldrvc	r7, [r6, #-2157]!	; 0xfffff793
 ba8:	73752f00 	cmnvc	r5, #0, 30
 bac:	72612f72 	rsbvc	r2, r1, #456	; 0x1c8
 bb0:	696c2d6d 	stmdbvs	ip!, {r0, r2, r3, r5, r6, r8, sl, fp, sp}^
 bb4:	2d78756e 	cfldr64cs	mvdx7, [r8, #-440]!	; 0xfffffe48
 bb8:	65756e67 	ldrbvs	r6, [r5, #-3687]!	; 0xfffff199
 bbc:	68696261 	stmdavs	r9!, {r0, r5, r6, r9, sp, lr}^
 bc0:	6e692f66 	cdpvs	15, 6, cr2, cr9, cr6, {3}
 bc4:	64756c63 	ldrbtvs	r6, [r5], #-3171	; 0xfffff39d
 bc8:	69622f65 	stmdbvs	r2!, {r0, r2, r5, r6, r8, r9, sl, fp, sp}^
 bcc:	00007374 	andeq	r7, r0, r4, ror r3
 bd0:	5f707362 	svcpl	0x00707362
 bd4:	74726175 	ldrbtvc	r6, [r2], #-373	; 0xfffffe8b
 bd8:	0100632e 	tsteq	r0, lr, lsr #6
 bdc:	73660000 	cmnvc	r6, #0
 be0:	6f695f6c 	svcvs	0x00695f6c
 be4:	6378756d 	cmnvs	r8, #457179136	; 0x1b400000
 be8:	0200682e 	andeq	r6, r0, #3014656	; 0x2e0000
 bec:	63630000 	cmnvs	r3, #0
 bf0:	0200682e 	andeq	r6, r0, #3014656	; 0x2e0000
 bf4:	434d0000 	movtmi	r0, #53248	; 0xd000
 bf8:	36584d49 	ldrbcc	r4, [r8], -r9, asr #26
 bfc:	682e3259 	stmdavs	lr!, {r0, r3, r4, r6, r9, ip, sp}
 c00:	00000200 	andeq	r0, r0, r0, lsl #4
 c04:	65707974 	ldrbvs	r7, [r0, #-2420]!	; 0xfffff68c
 c08:	00682e73 	rsbeq	r2, r8, r3, ror lr
 c0c:	00000003 	andeq	r0, r0, r3
 c10:	e0020500 	and	r0, r2, r0, lsl #10
 c14:	03878009 	orreq	r8, r7, #9
 c18:	0f030122 	svceq	0x00030122
 c1c:	2071032e 	rsbscs	r0, r1, lr, lsr #6
 c20:	3c0f0320 	stccc	3, cr0, [pc], {32}
 c24:	4b344868 	blmi	d12dcc <shift+0xd12dcc>
 c28:	7e40211f 	mcrvc	1, 2, r2, cr0, cr15, {0}
 c2c:	082d0324 	stmdaeq	sp!, {r2, r5, r8, r9}
 c30:	665d033c 			; <UNDEFINED> instruction: 0x665d033c
 c34:	46662703 	strbtmi	r2, [r6], -r3, lsl #14
 c38:	332b4b42 			; <UNDEFINED> instruction: 0x332b4b42
 c3c:	2c211f4c 	stccs	15, cr1, [r1], #-304	; 0xfffffed0
 c40:	2f2d2121 	svccs	0x002d2121
 c44:	04020067 	streq	r0, [r2], #-103	; 0xffffff99
 c48:	00580601 	subseq	r0, r8, r1, lsl #12
 c4c:	06040402 	streq	r0, [r4], -r2, lsl #8
 c50:	1e21d83e 	mcrne	8, 1, sp, cr1, cr14, {1}
 c54:	3b1f1f31 	blcc	7c8920 <shift+0x7c8920>
 c58:	3d1e304b 	ldccc	0, cr3, [lr, #-300]	; 0xfffffed4
 c5c:	0200682f 	andeq	r6, r0, #3080192	; 0x2f0000
 c60:	78030204 	stmdavc	r3, {r2, r9}
 c64:	4a48033c 	bmi	120195c <shift+0x120195c>
 c68:	302f2d3d 	eorcc	r2, pc, sp, lsr sp	; <UNPREDICTABLE>
 c6c:	4b492f1d 	blmi	124c8e8 <shift+0x124c8e8>
 c70:	3d2f212d 	stfccs	f2, [pc, #-180]!	; bc4 <shift+0xbc4>
 c74:	4b211f3d 	blmi	848970 <shift+0x848970>
 c78:	20240323 	eorcs	r0, r4, r3, lsr #6
 c7c:	26585a03 	ldrbcs	r5, [r8], -r3, lsl #20
 c80:	2023032b 	eorcs	r0, r3, fp, lsr #6
 c84:	03665c03 	cmneq	r6, #768	; 0x300
 c88:	09038277 	stmdbeq	r3, {r0, r1, r2, r4, r5, r6, r9, pc}
 c8c:	643b5974 	ldrtvs	r5, [fp], #-2420	; 0xfffff68c
 c90:	3c260322 	stccc	3, cr0, [r6], #-136	; 0xffffff78
 c94:	032e4403 			; <UNDEFINED> instruction: 0x032e4403
 c98:	02043c5a 	andeq	r3, r4, #23040	; 0x5a00
 c9c:	2008a003 	andcs	sl, r8, r3
 ca0:	03201f03 			; <UNDEFINED> instruction: 0x03201f03
 ca4:	03232e61 			; <UNDEFINED> instruction: 0x03232e61
 ca8:	01042e1c 	tsteq	r4, ip, lsl lr
 cac:	2e78d903 	vaddcs.f16	s27, s16, s6	; <UNPREDICTABLE>
 cb0:	88030204 	stmdahi	r3, {r2, r9}
 cb4:	01042007 	tsteq	r4, r7
 cb8:	2e78f803 	cdpcs	8, 7, cr15, cr8, cr3, {0}
 cbc:	a7030204 	strge	r0, [r3, -r4, lsl #4]
 cc0:	64032e07 	strvs	r2, [r3], #-3591	; 0xfffff1f9
 cc4:	2e1c032e 	cdpcs	3, 1, cr0, cr12, cr14, {1}
 cc8:	032e6103 			; <UNDEFINED> instruction: 0x032e6103
 ccc:	64034a1f 	strvs	r4, [r3], #-2591	; 0xfffff5e1
 cd0:	04231d3c 	strteq	r1, [r3], #-3388	; 0xfffff2c4
 cd4:	78fb0301 	ldmvc	fp!, {r0, r8, r9}^
 cd8:	03020420 	movweq	r0, #9248	; 0x2420
 cdc:	042007a1 	strteq	r0, [r0], #-1953	; 0xfffff85f
 ce0:	78d90301 	ldmvc	r9, {r0, r8, r9}^
 ce4:	03676b20 	cmneq	r7, #32, 22	; 0x8000
 ce8:	22747ee9 	rsbscs	r7, r4, #3728	; 0xe90
 cec:	312b322c 			; <UNDEFINED> instruction: 0x312b322c
 cf0:	2f1f302c 	svccs	0x001f302c
 cf4:	88034b2d 	stmdahi	r3, {r0, r2, r3, r5, r8, r9, fp, lr}
 cf8:	64032e01 	strvs	r2, [r3], #-3585	; 0xfffff1ff
 cfc:	02001374 	andeq	r1, r0, #116, 6	; 0xd0000001
 d00:	3c060104 	stfccs	f0, [r6], {4}
 d04:	13327506 	teqne	r2, #25165824	; 0x1800000
 d08:	01040200 	mrseq	r0, R12_usr
 d0c:	75063c06 	strvc	r3, [r6, #-3078]	; 0xfffff3fa
 d10:	03133f21 	tsteq	r3, #33, 30	; 0x84
 d14:	0b032e74 	bleq	cc6ec <shift+0xcc6ec>
 d18:	2075033c 	rsbscs	r0, r5, ip, lsr r3
 d1c:	200b0359 	andcs	r0, fp, r9, asr r3
 d20:	4a1c034d 	bmi	701a5c <shift+0x701a5c>
 d24:	01000102 	tsteq	r0, r2, lsl #2
 d28:	Address 0x0000000000000d28 is out of bounds.


Disassembly of section .debug_str:

00000000 <.debug_str>:
       0:	676e6f6c 	strbvs	r6, [lr, -ip, ror #30]!
       4:	6e6f6c20 	cdpvs	12, 6, cr6, cr15, cr0, {1}
       8:	6e692067 	cdpvs	0, 6, cr2, cr9, cr7, {3}
       c:	656c0074 	strbvs	r0, [ip, #-116]!	; 0xffffff8c
      10:	6e695f64 	cdpvs	15, 6, cr5, cr9, cr4, {3}
      14:	70007469 	andvc	r7, r0, r9, ror #8
      18:	656a6f72 	strbvs	r6, [sl, #-3954]!	; 0xfffff08e
      1c:	6d2f7463 	cfstrsvs	mvf7, [pc, #-396]!	; fffffe98 <__bss_end+0x787fe828>
      20:	2e6e6961 	vnmulcs.f16	s13, s28, s3	; <UNPREDICTABLE>
      24:	61750063 	cmnvs	r5, r3, rrx
      28:	5f317472 	svcpl	0x00317472
      2c:	73747570 	cmnvc	r4, #112, 10	; 0x1c000000
      30:	72617500 	rsbvc	r7, r1, #0, 10
      34:	695f3174 	ldmdbvs	pc, {r2, r4, r5, r6, r8, ip, sp}^	; <UNPREDICTABLE>
      38:	0074696e 	rsbseq	r6, r4, lr, ror #18
      3c:	20554e47 	subscs	r4, r5, r7, asr #28
      40:	2e342043 	cdpcs	0, 3, cr2, cr4, cr3, {2}
      44:	20332e39 	eorscs	r2, r3, r9, lsr lr
      48:	72616d2d 	rsbvc	r6, r1, #2880	; 0xb40
      4c:	613d6863 	teqvs	sp, r3, ror #16
      50:	37766d72 			; <UNDEFINED> instruction: 0x37766d72
      54:	2d20612d 	stfcss	f6, [r0, #-180]!	; 0xffffff4c
      58:	6f6c666d 	svcvs	0x006c666d
      5c:	612d7461 			; <UNDEFINED> instruction: 0x612d7461
      60:	683d6962 	ldmdavs	sp!, {r1, r5, r6, r8, fp, sp, lr}
      64:	20647261 	rsbcs	r7, r4, r1, ror #4
      68:	70666d2d 	rsbvc	r6, r6, sp, lsr #26
      6c:	66763d75 			; <UNDEFINED> instruction: 0x66763d75
      70:	2d337670 	ldccs	6, cr7, [r3, #-448]!	; 0xfffffe40
      74:	20363164 	eorscs	r3, r6, r4, ror #2
      78:	68746d2d 	ldmdavs	r4!, {r0, r2, r3, r5, r8, sl, fp, sp, lr}^
      7c:	20626d75 	rsbcs	r6, r2, r5, ror sp
      80:	6c746d2d 	ldclvs	13, cr6, [r4], #-180	; 0xffffff4c
      84:	69642d73 	stmdbvs	r4!, {r0, r1, r4, r5, r6, r8, sl, fp, sp}^
      88:	63656c61 	cmnvs	r5, #24832	; 0x6100
      8c:	6e673d74 	mcrvs	13, 3, r3, cr7, cr4, {3}
      90:	672d2075 			; <UNDEFINED> instruction: 0x672d2075
      94:	324f2d20 	subcc	r2, pc, #32, 26	; 0x800
      98:	74732d20 	ldrbtvc	r2, [r3], #-3360	; 0xfffff2e0
      9c:	39633d64 	stmdbcc	r3!, {r2, r5, r6, r8, sl, fp, ip, sp}^
      a0:	6c630039 	stclvs	0, cr0, [r3], #-228	; 0xffffff1c
      a4:	6e695f6b 	cdpvs	15, 6, cr5, cr9, cr11, {3}
      a8:	695f7469 	ldmdbvs	pc, {r0, r3, r5, r6, sl, ip, sp, lr}^	; <UNPREDICTABLE>
      ac:	7536786d 	ldrvc	r7, [r6, #-2157]!	; 0xfffff793
      b0:	62006c6c 	andvs	r6, r0, #108, 24	; 0x6c00
      b4:	5f706565 	svcpl	0x00706565
      b8:	74696e69 	strbtvc	r6, [r9], #-3689	; 0xfffff197
      bc:	6c656400 	cfstrdvs	mvd6, [r5], #-0
      c0:	695f7961 	ldmdbvs	pc, {r0, r5, r6, r8, fp, ip, sp, lr}^	; <UNPREDICTABLE>
      c4:	0074696e 	rsbseq	r6, r4, lr, ror #18
      c8:	5f746e69 	svcpl	0x00746e69
      cc:	74696e69 	strbtvc	r6, [r9], #-3689	; 0xfffff197
      d0:	6e6f6c00 	cdpvs	12, 6, cr6, cr15, cr0, {0}
      d4:	6f6c2067 	svcvs	0x006c2067
      d8:	7520676e 	strvc	r6, [r0, #-1902]!	; 0xfffff892
      dc:	6769736e 	strbvs	r7, [r9, -lr, ror #6]!
      e0:	2064656e 	rsbcs	r6, r4, lr, ror #10
      e4:	00746e69 	rsbseq	r6, r4, r9, ror #28
      e8:	69736e75 	ldmdbvs	r3!, {r0, r2, r4, r5, r6, r9, sl, fp, sp, lr}^
      ec:	64656e67 	strbtvs	r6, [r5], #-3687	; 0xfffff199
      f0:	61686320 	cmnvs	r8, r0, lsr #6
      f4:	61750072 	cmnvs	r5, r2, ror r0
      f8:	5f317472 	svcpl	0x00317472
      fc:	63746567 	cmnvs	r4, #432013312	; 0x19c00000
     100:	6f687300 	svcvs	0x00687300
     104:	69207472 	stmdbvs	r0!, {r1, r4, r5, r6, sl, ip, sp, lr}
     108:	6c00746e 	cfstrsvs	mvf7, [r0], {110}	; 0x6e
     10c:	6f5f6465 	svcvs	0x005f6465
     110:	6873006e 	ldmdavs	r3!, {r1, r2, r3, r5, r6}^
     114:	2074726f 	rsbscs	r7, r4, pc, ror #4
     118:	69736e75 	ldmdbvs	r3!, {r0, r2, r4, r5, r6, r9, sl, fp, sp, lr}^
     11c:	64656e67 	strbtvs	r6, [r5], #-3687	; 0xfffff199
     120:	746e6920 	strbtvc	r6, [lr], #-2336	; 0xfffff6e0
     124:	69616d00 	stmdbvs	r1!, {r8, sl, fp, sp, lr}^
     128:	682f006e 	stmdavs	pc!, {r1, r2, r3, r5, r6}	; <UNPREDICTABLE>
     12c:	2f656d6f 	svccs	0x00656d6f
     130:	6e696873 	mcrvs	8, 3, r6, cr9, cr3, {3}
     134:	34303265 	ldrtcc	r3, [r0], #-613	; 0xfffffd9b
     138:	696c2f38 	stmdbvs	ip!, {r3, r4, r5, r8, r9, sl, fp, sp}^
     13c:	2f78756e 	svccs	0x0078756e
     140:	36584d49 	ldrbcc	r4, [r8], -r9, asr #26
     144:	2f4c4c55 	svccs	0x004c4c55
     148:	72616f42 	rsbvc	r6, r1, #264	; 0x108
     14c:	72445f64 	subvc	r5, r4, #100, 30	; 0x190
     150:	72657669 	rsbvc	r7, r5, #110100480	; 0x6900000
     154:	33312f73 	teqcc	r1, #460	; 0x1cc
     158:	7261755f 	rsbvc	r7, r1, #398458880	; 0x17c00000
     15c:	61750074 	cmnvs	r5, r4, ror r0
     160:	5f317472 	svcpl	0x00317472
     164:	63747570 	cmnvs	r4, #112, 10	; 0x1c000000
     168:	7a697300 	bvc	1a5cd70 <shift+0x1a5cd70>
     16c:	70797465 	rsbsvc	r7, r9, r5, ror #8
     170:	6c630065 	stclvs	0, cr0, [r3], #-404	; 0xfffffe6c
     174:	6e655f6b 	cdpvs	15, 6, cr5, cr5, cr11, {3}
     178:	656c6261 	strbvs	r6, [ip, #-609]!	; 0xfffffd9f
     17c:	4c4c5000 	marmi	acc0, r5, ip
     180:	4d52415f 	ldfmie	f4, [r2, #-380]	; 0xfffffe84
     184:	524c435f 	subpl	r4, ip, #2080374785	; 0x7c000001
     188:	43534300 	cmpmi	r3, #0, 6
     18c:	0032524d 	eorseq	r5, r2, sp, asr #4
     190:	5f444650 	svcpl	0x00444650
     194:	00303834 	eorseq	r3, r0, r4, lsr r8
     198:	49484443 	stmdbmi	r8, {r0, r1, r6, sl, lr}^
     19c:	50005250 	andpl	r5, r0, r0, asr r2
     1a0:	415f4c4c 	cmpmi	pc, ip, asr #24
     1a4:	4f494455 	svcmi	0x00494455
     1a8:	524c435f 	subpl	r4, ip, #2080374785	; 0x7c000001
     1ac:	43534300 	cmpmi	r3, #0, 6
     1b0:	00315244 	eorseq	r5, r1, r4, asr #4
     1b4:	5f444650 	svcpl	0x00444650
     1b8:	5f303834 	svcpl	0x00303834
     1bc:	00474f54 	subeq	r4, r7, r4, asr pc
     1c0:	44435343 	strbmi	r5, [r3], #-835	; 0xfffffcbd
     1c4:	43003352 	movwmi	r3, #850	; 0x352
     1c8:	00525349 	subseq	r5, r2, r9, asr #6
     1cc:	5f4c4c50 	svcpl	0x004c4c50
     1d0:	31425355 	cmpcc	r2, r5, asr r3
     1d4:	524c435f 	subpl	r4, ip, #2080374785	; 0x7c000001
     1d8:	53455200 	movtpl	r5, #20992	; 0x5200
     1dc:	45565245 	ldrbmi	r5, [r6, #-581]	; 0xfffffdbb
     1e0:	00375f44 	eorseq	r5, r7, r4, asr #30
     1e4:	5f4c4c50 	svcpl	0x004c4c50
     1e8:	54454e45 	strbpl	r4, [r5], #-3653	; 0xfffff1bb
     1ec:	524c435f 	subpl	r4, ip, #2080374785	; 0x7c000001
     1f0:	4c4c5000 	marmi	acc0, r5, ip
     1f4:	5359535f 	cmppl	r9, #2080374785	; 0x7c000001
     1f8:	474f545f 	smlsldmi	r5, pc, pc, r4	; <UNPREDICTABLE>
     1fc:	4c4c5000 	marmi	acc0, r5, ip
     200:	4449565f 	strbmi	r5, [r9], #-1631	; 0xfffff9a1
     204:	4d004f45 	stcmi	15, cr4, [r0, #-276]	; 0xfffffeec
     208:	30435349 	subcc	r5, r3, r9, asr #6
     20c:	5445535f 	strbpl	r5, [r5], #-863	; 0xfffffca1
     210:	32534300 	subscc	r4, r3, #0, 6
     214:	00524443 	subseq	r4, r2, r3, asr #8
     218:	5f4d4343 	svcpl	0x004d4343
     21c:	4c414e41 	mcrrmi	14, 4, r4, r1, cr1
     220:	545f474f 	ldrbpl	r4, [pc], #-1871	; 228 <shift+0x228>
     224:	00657079 	rsbeq	r7, r5, r9, ror r0
     228:	4353494d 	cmpmi	r3, #1261568	; 0x134000
     22c:	494d0030 	stmdbmi	sp, {r4, r5}^
     230:	00314353 	eorseq	r4, r1, r3, asr r3
     234:	43504c43 	cmpmi	r0, #17152	; 0x4300
     238:	4c500052 	mrrcmi	0, 5, r0, r0, cr2	; <UNPREDICTABLE>
     23c:	49565f4c 	ldmdbmi	r6, {r2, r3, r6, r8, r9, sl, fp, ip, lr}^
     240:	5f4f4544 	svcpl	0x004f4544
     244:	00524c43 	subseq	r4, r2, r3, asr #24
     248:	4353494d 	cmpmi	r3, #1261568	; 0x134000
     24c:	4c435f31 	mcrrmi	15, 3, r5, r3, cr1
     250:	4c500052 	mrrcmi	0, 5, r0, r0, cr2	; <UNPREDICTABLE>
     254:	53555f4c 	cmppl	r5, #76, 30	; 0x130
     258:	545f3242 	ldrbpl	r3, [pc], #-578	; 260 <shift+0x260>
     25c:	5000474f 	andpl	r4, r0, pc, asr #14
     260:	535f4c4c 	cmppl	pc, #76, 24	; 0x4c00
     264:	435f5359 	cmpmi	pc, #1677721601	; 0x64000001
     268:	4300524c 	movwmi	r5, #588	; 0x24c
     26c:	52534f43 	subspl	r4, r3, #268	; 0x10c
     270:	44465000 	strbmi	r5, [r6], #-0
     274:	3038345f 	eorscc	r3, r8, pc, asr r4
     278:	524c435f 	subpl	r4, ip, #2080374785	; 0x7c000001
     27c:	4c4c5000 	marmi	acc0, r5, ip
     280:	5359535f 	cmppl	r9, #2080374785	; 0x7c000001
     284:	0053535f 	subseq	r5, r3, pc, asr r3
     288:	5f4c4c50 	svcpl	0x004c4c50
     28c:	45444956 	strbmi	r4, [r4, #-2390]	; 0xfffff6aa
     290:	554e5f4f 	strbpl	r5, [lr, #-3919]	; 0xfffff0b1
     294:	4c50004d 	mrrcmi	0, 4, r0, r0, cr13	; <UNPREDICTABLE>
     298:	55415f4c 	strbpl	r5, [r1, #-3916]	; 0xfffff0b4
     29c:	5f4f4944 	svcpl	0x004f4944
     2a0:	00544553 	subseq	r4, r4, r3, asr r5
     2a4:	5f444650 	svcpl	0x00444650
     2a8:	00383235 	eorseq	r3, r8, r5, lsr r2
     2ac:	5f4c4c50 	svcpl	0x004c4c50
     2b0:	004d5241 	subeq	r5, sp, r1, asr #4
     2b4:	4353494d 	cmpmi	r3, #1261568	; 0x134000
     2b8:	4f545f32 	svcmi	0x00545f32
     2bc:	4c500047 	mrrcmi	0, 4, r0, r0, cr7	; <UNPREDICTABLE>
     2c0:	59535f4c 	ldmdbpl	r3, {r2, r3, r6, r8, r9, sl, fp, ip, lr}^
     2c4:	42430053 	submi	r0, r3, #83	; 0x53
     2c8:	00524443 	subseq	r4, r2, r3, asr #8
     2cc:	5f4c4c50 	svcpl	0x004c4c50
     2d0:	31425355 	cmpcc	r2, r5, asr r3
     2d4:	5445535f 	strbpl	r5, [r5], #-863	; 0xfffffca1
     2d8:	4d434300 	stclmi	3, cr4, [r3, #-0]
     2dc:	7079545f 	rsbsvc	r5, r9, pc, asr r4
     2e0:	4c500065 	mrrcmi	0, 6, r0, r0, cr5	; <UNPREDICTABLE>
     2e4:	53555f4c 	cmppl	r5, #76, 30	; 0x130
     2e8:	435f3242 	cmpmi	pc, #536870916	; 0x20000004
     2ec:	5000524c 	andpl	r5, r0, ip, asr #4
     2f0:	555f4c4c 	ldrbpl	r4, [pc, #-3148]	; fffff6ac <__bss_end+0x787fe03c>
     2f4:	00314253 	eorseq	r4, r1, r3, asr r2
     2f8:	5f4c4c50 	svcpl	0x004c4c50
     2fc:	32425355 	subcc	r5, r2, #1409286145	; 0x54000001
     300:	53494d00 	movtpl	r4, #40192	; 0x9d00
     304:	50003243 	andpl	r3, r0, r3, asr #4
     308:	355f4446 	ldrbcc	r4, [pc, #-1094]	; fffffeca <__bss_end+0x787fe85a>
     30c:	545f3832 	ldrbpl	r3, [pc], #-2098	; 314 <shift+0x314>
     310:	5000474f 	andpl	r4, r0, pc, asr #14
     314:	565f4c4c 	ldrbpl	r4, [pc], -ip, asr #24
     318:	4f454449 	svcmi	0x00454449
     31c:	5445535f 	strbpl	r5, [r5], #-863	; 0xfffffca1
     320:	53494d00 	movtpl	r4, #40192	; 0x9d00
     324:	535f3143 	cmppl	pc, #-1073741808	; 0xc0000010
     328:	43005445 	movwmi	r5, #1093	; 0x445
     32c:	00525047 	subseq	r5, r2, r7, asr #32
     330:	44435343 	strbmi	r5, [r3], #-835	; 0xfffffcbd
     334:	43003252 	movwmi	r3, #594	; 0x252
     338:	00524d49 	subseq	r4, r2, r9, asr #26
     33c:	5f4c4c50 	svcpl	0x004c4c50
     340:	45444956 	strbmi	r4, [r4, #-2390]	; 0xfffff6aa
     344:	45445f4f 	strbmi	r5, [r4, #-3919]	; 0xfffff0b1
     348:	004d4f4e 	subeq	r4, sp, lr, asr #30
     34c:	4353494d 	cmpmi	r3, #1261568	; 0x134000
     350:	4c435f32 	mcrrmi	15, 3, r5, r3, cr2
     354:	46500052 			; <UNDEFINED> instruction: 0x46500052
     358:	38345f44 	ldmdacc	r4!, {r2, r6, r8, r9, sl, fp, ip, lr}
     35c:	45535f30 	ldrbmi	r5, [r3, #-3888]	; 0xfffff0d0
     360:	48430054 	stmdami	r3, {r2, r4, r6}^
     364:	44434353 	strbmi	r4, [r3], #-851	; 0xfffffcad
     368:	73620052 	cmnvc	r2, #82	; 0x52
     36c:	6c632f70 	stclvs	15, cr2, [r3], #-448	; 0xfffffe40
     370:	73622f6b 	cmnvc	r2, #428	; 0x1ac
     374:	6c635f70 	stclvs	15, cr5, [r3], #-448	; 0xfffffe40
     378:	00632e6b 	rsbeq	r2, r3, fp, ror #28
     37c:	5f4c4c50 	svcpl	0x004c4c50
     380:	5f535953 	svcpl	0x00535953
     384:	00544553 	subseq	r4, r4, r3, asr r5
     388:	5f4c4c50 	svcpl	0x004c4c50
     38c:	5f535953 	svcpl	0x00535953
     390:	4f4e4544 	svcmi	0x004e4544
     394:	494d004d 	stmdbmi	sp, {r0, r2, r3, r6}^
     398:	5f304353 	svcpl	0x00304353
     39c:	00474f54 	subeq	r4, r7, r4, asr pc
     3a0:	5f444650 	svcpl	0x00444650
     3a4:	5f383235 	svcpl	0x00383235
     3a8:	00524c43 	subseq	r4, r2, r3, asr #24
     3ac:	5f4c4c50 	svcpl	0x004c4c50
     3b0:	49445541 	stmdbmi	r4, {r0, r6, r8, sl, ip, lr}^
     3b4:	45445f4f 	strbmi	r5, [r4, #-3919]	; 0xfffff0b1
     3b8:	004d4f4e 	subeq	r4, sp, lr, asr #30
     3bc:	5f4c4c50 	svcpl	0x004c4c50
     3c0:	54454e45 	strbpl	r4, [r5], #-3653	; 0xfffff1bb
     3c4:	5445535f 	strbpl	r5, [r5], #-863	; 0xfffffca1
     3c8:	4c4c5000 	marmi	acc0, r5, ip
     3cc:	4253555f 	subsmi	r5, r3, #398458880	; 0x17c00000
     3d0:	45535f32 	ldrbmi	r5, [r3, #-3890]	; 0xfffff0ce
     3d4:	42430054 	submi	r0, r3, #84	; 0x54
     3d8:	00524d43 	subseq	r4, r2, r3, asr #26
     3dc:	52534343 	subspl	r4, r3, #201326593	; 0xc000001
     3e0:	47434300 	strbmi	r4, [r3, -r0, lsl #6]
     3e4:	52003052 	andpl	r3, r0, #82	; 0x52
     3e8:	52455345 	subpl	r5, r5, #335544321	; 0x14000001
     3ec:	5f444556 	svcpl	0x00444556
     3f0:	45520030 	ldrbmi	r0, [r2, #-48]	; 0xffffffd0
     3f4:	56524553 			; <UNDEFINED> instruction: 0x56524553
     3f8:	315f4445 	cmpcc	pc, r5, asr #8
     3fc:	53455200 	movtpl	r5, #20992	; 0x5200
     400:	45565245 	ldrbmi	r5, [r6, #-581]	; 0xfffffdbb
     404:	00325f44 	eorseq	r5, r2, r4, asr #30
     408:	45534552 	ldrbmi	r4, [r3, #-1362]	; 0xfffffaae
     40c:	44455652 	strbmi	r5, [r5], #-1618	; 0xfffff9ae
     410:	5200335f 	andpl	r3, r0, #2080374785	; 0x7c000001
     414:	52455345 	subpl	r5, r5, #335544321	; 0x14000001
     418:	5f444556 	svcpl	0x00444556
     41c:	45520034 	ldrbmi	r0, [r2, #-52]	; 0xffffffcc
     420:	56524553 			; <UNDEFINED> instruction: 0x56524553
     424:	355f4445 	ldrbcc	r4, [pc, #-1093]	; ffffffe7 <__bss_end+0x787fe977>
     428:	53455200 	movtpl	r5, #20992	; 0x5200
     42c:	45565245 	ldrbmi	r5, [r6, #-581]	; 0xfffffdbb
     430:	00365f44 	eorseq	r5, r6, r4, asr #30
     434:	5f4c4c50 	svcpl	0x004c4c50
     438:	5f4d5241 	svcpl	0x004d5241
     43c:	00474f54 	subeq	r4, r7, r4, asr pc
     440:	5f4c4c50 	svcpl	0x004c4c50
     444:	54454e45 	strbpl	r4, [r5], #-3653	; 0xfffff1bb
     448:	4c4c5000 	marmi	acc0, r5, ip
     44c:	4455415f 	ldrbmi	r4, [r5], #-351	; 0xfffffea1
     450:	545f4f49 	ldrbpl	r4, [pc], #-3913	; 458 <shift+0x458>
     454:	4d00474f 	stcmi	7, cr4, [r0, #-316]	; 0xfffffec4
     458:	32435349 	subcc	r5, r3, #603979777	; 0x24000001
     45c:	5445535f 	strbpl	r5, [r5], #-863	; 0xfffffca1
     460:	43414300 	movtmi	r4, #4864	; 0x1300
     464:	4d005252 	sfmmi	f5, 4, [r0, #-328]	; 0xfffffeb8
     468:	30435349 	subcc	r5, r3, r9, asr #6
     46c:	524c435f 	subpl	r4, ip, #2080374785	; 0x7c000001
     470:	4c4c5000 	marmi	acc0, r5, ip
     474:	4455415f 	ldrbmi	r4, [r5], #-351	; 0xfffffea1
     478:	4e5f4f49 	cdpmi	15, 5, cr4, cr15, cr9, {2}
     47c:	50004d55 	andpl	r4, r0, r5, asr sp
     480:	555f4c4c 	ldrbpl	r4, [pc, #-3148]	; fffff83c <__bss_end+0x787fe1cc>
     484:	5f314253 	svcpl	0x00314253
     488:	00474f54 	subeq	r4, r7, r4, asr pc
     48c:	5f4c4c50 	svcpl	0x004c4c50
     490:	5f535953 	svcpl	0x00535953
     494:	004d554e 	subeq	r5, sp, lr, asr #10
     498:	44434443 	strbmi	r4, [r3], #-1091	; 0xfffffbbd
     49c:	53430052 	movtpl	r0, #12370	; 0x3052
     4a0:	52444331 	subpl	r4, r4, #-1006632960	; 0xc4000000
     4a4:	44465000 	strbmi	r5, [r6], #-0
     4a8:	3832355f 	ldmdacc	r2!, {r0, r1, r2, r3, r4, r6, r8, sl, ip, sp}
     4ac:	5445535f 	strbpl	r5, [r5], #-863	; 0xfffffca1
     4b0:	4c4c5000 	marmi	acc0, r5, ip
     4b4:	454e455f 	strbmi	r4, [lr, #-1375]	; 0xfffffaa1
     4b8:	4f545f54 	svcmi	0x00545f54
     4bc:	4d430047 	stclmi	0, cr0, [r3, #-284]	; 0xfffffee4
     4c0:	00524f45 	subseq	r4, r2, r5, asr #30
     4c4:	4d435343 	stclmi	3, cr5, [r3, #-268]	; 0xfffffef4
     4c8:	43003152 	movwmi	r3, #338	; 0x152
     4cc:	31524743 	cmpcc	r2, r3, asr #14
     4d0:	4c4c5000 	marmi	acc0, r5, ip
     4d4:	4455415f 	ldrbmi	r4, [r5], #-351	; 0xfffffea1
     4d8:	43004f49 	movwmi	r4, #3913	; 0xf49
     4dc:	32524743 	subscc	r4, r2, #17563648	; 0x10c0000
     4e0:	47434300 	strbmi	r4, [r3, -r0, lsl #6]
     4e4:	50003352 	andpl	r3, r0, r2, asr r3
     4e8:	415f4c4c 	cmpmi	pc, ip, asr #24
     4ec:	535f4d52 	cmppl	pc, #5248	; 0x1480
     4f0:	43005445 	movwmi	r5, #1093	; 0x445
     4f4:	34524743 	ldrbcc	r4, [r2], #-1859	; 0xfffff8bd
     4f8:	47434300 	strbmi	r4, [r3, -r0, lsl #6]
     4fc:	43003552 	movwmi	r3, #1362	; 0x552
     500:	36524743 	ldrbcc	r4, [r2], -r3, asr #14
     504:	4c4c5000 	marmi	acc0, r5, ip
     508:	4449565f 	strbmi	r5, [r9], #-1631	; 0xfffff9a1
     50c:	545f4f45 	ldrbpl	r4, [pc], #-3909	; 514 <shift+0x514>
     510:	4d00474f 	stcmi	7, cr4, [r0, #-316]	; 0xfffffec4
     514:	31435349 	cmpcc	r3, r9, asr #6
     518:	474f545f 	smlsldmi	r5, pc, pc, r4	; <UNPREDICTABLE>
     51c:	6c617600 	stclvs	6, cr7, [r1], #-0
     520:	64006575 	strvs	r6, [r0], #-1397	; 0xfffffa8b
     524:	79616c65 	stmdbvc	r1!, {r0, r2, r5, r6, sl, fp, sp, lr}^
     528:	00736d5f 	rsbseq	r6, r3, pc, asr sp
     52c:	616c6564 	cmnvs	ip, r4, ror #10
     530:	68735f79 	ldmdavs	r3!, {r0, r3, r4, r5, r6, r8, r9, sl, fp, ip, lr}^
     534:	0074726f 	rsbseq	r7, r4, pc, ror #4
     538:	69755f5f 	ldmdbvs	r5!, {r0, r1, r2, r3, r4, r6, r8, r9, sl, fp, ip, lr}^
     53c:	3233746e 	eorscc	r7, r3, #1845493760	; 0x6e000000
     540:	6400745f 	strvs	r7, [r0], #-1119	; 0xfffffba1
     544:	79616c65 	stmdbvc	r1!, {r0, r2, r5, r6, sl, fp, sp, lr}^
     548:	0073755f 	rsbseq	r7, r3, pc, asr r5
     54c:	5f545047 	svcpl	0x00545047
     550:	65707954 	ldrbvs	r7, [r0, #-2388]!	; 0xfffff6ac
     554:	70736200 	rsbsvc	r6, r3, r0, lsl #4
     558:	6c65642f 	cfstrdvs	mvd6, [r5], #-188	; 0xffffff44
     55c:	622f7961 	eorvs	r7, pc, #1589248	; 0x184000
     560:	645f7073 	ldrbvs	r7, [pc], #-115	; 568 <shift+0x568>
     564:	79616c65 	stmdbvc	r1!, {r0, r2, r5, r6, sl, fp, sp, lr}^
     568:	6d00632e 	stcvs	3, cr6, [r0, #-184]	; 0xffffff48
     56c:	6f4d7875 	svcvs	0x004d7875
     570:	69006564 	stmdbvs	r0, {r2, r5, r6, r8, sl, sp, lr}
     574:	7475706e 	ldrbtvc	r7, [r5], #-110	; 0xffffff92
     578:	69676552 	stmdbvs	r7!, {r1, r4, r6, r8, sl, sp, lr}^
     57c:	72657473 	rsbvc	r7, r5, #1929379840	; 0x73000000
     580:	64656c00 	strbtvs	r6, [r5], #-3072	; 0xfffff400
     584:	676f745f 			; <UNDEFINED> instruction: 0x676f745f
     588:	00656c67 	rsbeq	r6, r5, r7, ror #24
     58c:	52494447 	subpl	r4, r9, #1191182336	; 0x47000000
     590:	78756d00 	ldmdavc	r5!, {r8, sl, fp, sp, lr}^
     594:	69676552 	stmdbvs	r7!, {r1, r4, r6, r8, sl, sp, lr}^
     598:	72657473 	rsbvc	r7, r5, #1929379840	; 0x73000000
     59c:	64656c00 	strbtvs	r6, [r5], #-3072	; 0xfffff400
     5a0:	66666f5f 	uqsaxvs	r6, r6, pc	; <UNPREDICTABLE>
     5a4:	706e6900 	rsbvc	r6, lr, r0, lsl #18
     5a8:	6e4f7475 	mcrvs	4, 2, r7, cr15, cr5, {3}
     5ac:	6c656966 			; <UNDEFINED> instruction: 0x6c656966
     5b0:	4f490064 	svcmi	0x00490064
     5b4:	4358554d 	cmpmi	r8, #322961408	; 0x13400000
     5b8:	7465535f 	strbtvc	r5, [r5], #-863	; 0xfffffca1
     5bc:	4d6e6950 			; <UNDEFINED> instruction: 0x4d6e6950
     5c0:	69007875 	stmdbvs	r0, {r0, r2, r4, r5, r6, fp, ip, sp, lr}
     5c4:	7475706e 	ldrbtvc	r7, [r5], #-110	; 0xffffff92
     5c8:	73696144 	cmnvc	r9, #68, 2
     5cc:	50470079 	subpl	r0, r7, r9, ror r0
     5d0:	545f4f49 	ldrbpl	r4, [pc], #-3913	; 5d8 <shift+0x5d8>
     5d4:	00657079 	rsbeq	r7, r5, r9, ror r0
     5d8:	554d4f49 	strbpl	r4, [sp, #-3913]	; 0xfffff0b7
     5dc:	535f4358 	cmppl	pc, #88, 6	; 0x60000001
     5e0:	69507465 	ldmdbvs	r0, {r0, r2, r5, r6, sl, ip, sp, lr}^
     5e4:	6e6f436e 	cdpvs	3, 6, cr4, cr15, cr14, {3}
     5e8:	00676966 	rsbeq	r6, r7, r6, ror #18
     5ec:	666e6f63 	strbtvs	r6, [lr], -r3, ror #30
     5f0:	65526769 	ldrbvs	r6, [r2, #-1897]	; 0xfffff897
     5f4:	74736967 	ldrbtvc	r6, [r3], #-2407	; 0xfffff699
     5f8:	63007265 	movwvs	r7, #613	; 0x265
     5fc:	69666e6f 	stmdbvs	r6!, {r0, r1, r2, r3, r5, r6, r9, sl, fp, sp, lr}^
     600:	6c615667 	stclvs	6, cr5, [r1], #-412	; 0xfffffe64
     604:	45006575 	strmi	r6, [r0, #-1397]	; 0xfffffa8b
     608:	5f454744 	svcpl	0x00454744
     60c:	004c4553 	subeq	r4, ip, r3, asr r5
     610:	31524349 	cmpcc	r2, r9, asr #6
     614:	52434900 	subpl	r4, r3, #0, 18
     618:	73620032 	cmnvc	r2, #50	; 0x32
     61c:	656c2f70 	strbvs	r2, [ip, #-3952]!	; 0xfffff090
     620:	73622f64 	cmnvc	r2, #100, 30	; 0x190
     624:	656c5f70 	strbvs	r5, [ip, #-3952]!	; 0xfffff090
     628:	00632e64 	rsbeq	r2, r3, r4, ror #28
     62c:	70656562 	rsbvc	r6, r5, r2, ror #10
     630:	676f745f 			; <UNDEFINED> instruction: 0x676f745f
     634:	00656c67 	rsbeq	r6, r5, r7, ror #24
     638:	70656562 	rsbvc	r6, r5, r2, ror #10
     63c:	66666f5f 	uqsaxvs	r6, r6, pc	; <UNPREDICTABLE>
     640:	65656200 	strbvs	r6, [r5, #-512]!	; 0xfffffe00
     644:	6e6f5f70 	mcrvs	15, 3, r5, cr15, cr0, {3}
     648:	70736200 	rsbsvc	r6, r3, r0, lsl #4
     64c:	6565622f 	strbvs	r6, [r5, #-559]!	; 0xfffffdd1
     650:	73622f70 	cmnvc	r2, #112, 30	; 0x1c0
     654:	65625f70 	strbvs	r5, [r2, #-3952]!	; 0xfffff090
     658:	632e7065 			; <UNDEFINED> instruction: 0x632e7065
     65c:	50476b00 	subpl	r6, r7, r0, lsl #22
     660:	495f4f49 	ldmdbmi	pc, {r0, r3, r6, r8, r9, sl, fp, lr}^	; <UNPREDICTABLE>
     664:	6146746e 	cmpvs	r6, lr, ror #8
     668:	6e696c6c 	cdpvs	12, 6, cr6, cr9, cr12, {3}
     66c:	67644567 	strbvs	r4, [r4, -r7, ror #10]!
     670:	476b0065 	strbmi	r0, [fp, -r5, rrx]!
     674:	5f4f4950 	svcpl	0x004f4950
     678:	48746e49 	ldmdami	r4!, {r0, r3, r6, r9, sl, fp, sp, lr}^
     67c:	4c686769 	stclmi	7, cr6, [r8], #-420	; 0xfffffe5c
     680:	6c657665 	stclvs	6, cr7, [r5], #-404	; 0xfffffe6c
     684:	72696400 	rsbvc	r6, r9, #0, 8
     688:	69746365 	ldmdbvs	r4!, {r0, r2, r5, r6, r8, r9, sp, lr}^
     68c:	6b006e6f 	blvs	1c050 <shift+0x1c050>
     690:	695f7965 	ldmdbvs	pc, {r0, r2, r5, r6, r8, fp, ip, sp, lr}^	; <UNPREDICTABLE>
     694:	0074696e 	rsbseq	r6, r4, lr, ror #18
     698:	666e6f63 	strbtvs	r6, [lr], -r3, ror #30
     69c:	62006769 	andvs	r6, r0, #27525120	; 0x1a40000
     6a0:	6b2f7073 	blvs	bdc874 <shift+0xbdc874>
     6a4:	622f7965 	eorvs	r7, pc, #1654784	; 0x194000
     6a8:	6b5f7073 	blvs	17dc87c <shift+0x17dc87c>
     6ac:	632e7965 			; <UNDEFINED> instruction: 0x632e7965
     6b0:	50476b00 	subpl	r6, r7, r0, lsl #22
     6b4:	445f4f49 	ldrbmi	r4, [pc], #-3913	; 6bc <shift+0x6bc>
     6b8:	74696769 	strbtvc	r6, [r9], #-1897	; 0xfffff897
     6bc:	6e496c61 	cdpvs	12, 4, cr6, cr9, cr1, {3}
     6c0:	00747570 	rsbseq	r7, r4, r0, ror r5
     6c4:	3059454b 	subscc	r4, r9, fp, asr #10
     6c8:	4552505f 	ldrbmi	r5, [r2, #-95]	; 0xffffffa1
     6cc:	476b0053 			; <UNDEFINED> instruction: 0x476b0053
     6d0:	5f4f4950 	svcpl	0x004f4950
     6d4:	6e496f4e 	cdpvs	15, 4, cr6, cr9, cr14, {2}
     6d8:	646f4d74 	strbtvs	r4, [pc], #-3444	; 6e0 <shift+0x6e0>
     6dc:	476b0065 	strbmi	r0, [fp, -r5, rrx]!
     6e0:	5f4f4950 	svcpl	0x004f4950
     6e4:	69676944 	stmdbvs	r7!, {r2, r6, r8, fp, sp, lr}^
     6e8:	4f6c6174 	svcmi	0x006c6174
     6ec:	75707475 	ldrbvc	r7, [r0, #-1141]!	; 0xfffffb8b
     6f0:	656b0074 	strbvs	r0, [fp, #-116]!	; 0xffffff8c
     6f4:	65725f79 	ldrbvs	r5, [r2, #-3961]!	; 0xfffff087
     6f8:	5f006461 	svcpl	0x00006461
     6fc:	6e69755f 	mcrvs	5, 3, r7, cr9, cr15, {2}
     700:	745f3874 	ldrbvc	r3, [pc], #-2164	; 708 <shift+0x708>
     704:	79656b00 	stmdbvc	r5!, {r8, r9, fp, sp, lr}^
     708:	7465675f 	strbtvc	r6, [r5], #-1887	; 0xfffff8a1
     70c:	756c6156 	strbvc	r6, [ip, #-342]!	; 0xfffffeaa
     710:	70670065 	rsbvc	r0, r7, r5, rrx
     714:	725f6f69 	subsvc	r6, pc, #420	; 0x1a4
     718:	50646165 	rsbpl	r6, r4, r5, ror #2
     71c:	67006e69 	strvs	r6, [r0, -r9, ror #28]
     720:	5f6f6970 	svcpl	0x006f6970
     724:	65746e69 	ldrbvs	r6, [r4, #-3689]!	; 0xfffff197
     728:	70757272 	rsbsvc	r7, r5, r2, ror r2
     72c:	6f6d5f74 	svcvs	0x006d5f74
     730:	745f6564 	ldrbvc	r6, [pc], #-1380	; 738 <shift+0x738>
     734:	746e6900 	strbtvc	r6, [lr], #-2304	; 0xfffff700
     738:	75727265 	ldrbvc	r7, [r2, #-613]!	; 0xfffffd9b
     73c:	6f4d7470 	svcvs	0x004d7470
     740:	6b006564 	blvs	19cd8 <shift+0x19cd8>
     744:	4f495047 	svcmi	0x00495047
     748:	746e495f 	strbtvc	r4, [lr], #-2399	; 0xfffff6a1
     74c:	69736952 	ldmdbvs	r3!, {r1, r4, r6, r8, fp, sp, lr}^
     750:	724f676e 	subvc	r6, pc, #28835840	; 0x1b80000
     754:	6c6c6146 	stfvse	f6, [ip], #-280	; 0xfffffee8
     758:	45676e69 	strbmi	r6, [r7, #-3689]!	; 0xfffff197
     75c:	00656764 	rsbeq	r6, r5, r4, ror #14
     760:	6f697067 	svcvs	0x00697067
     764:	6e69705f 	mcrvs	0, 3, r7, cr9, cr15, {2}
     768:	7269645f 	rsbvc	r6, r9, #1593835520	; 0x5f000000
     76c:	69746365 	ldmdbvs	r4!, {r0, r2, r5, r6, r8, r9, sp, lr}^
     770:	745f6e6f 	ldrbvc	r6, [pc], #-3695	; 778 <shift+0x778>
     774:	50476b00 	subpl	r6, r7, r0, lsl #22
     778:	495f4f49 	ldmdbmi	pc, {r0, r3, r6, r8, r9, sl, fp, lr}^	; <UNPREDICTABLE>
     77c:	6f4c746e 	svcvs	0x004c746e
     780:	76654c77 			; <UNDEFINED> instruction: 0x76654c77
     784:	6f006c65 	svcvs	0x00006c65
     788:	75707475 	ldrbvc	r7, [r0, #-1141]!	; 0xfffffb8b
     78c:	676f4c74 			; <UNDEFINED> instruction: 0x676f4c74
     790:	4b006369 	blmi	1953c <shift+0x1953c>
     794:	4e5f5945 	vnmlami.f16	s11, s30, s10	; <UNPREDICTABLE>
     798:	00454e4f 	subeq	r4, r5, pc, asr #28
     79c:	3159454b 	cmpcc	r9, fp, asr #10
     7a0:	4552505f 	ldrbmi	r5, [r2, #-95]	; 0xffffffa1
     7a4:	65720053 	ldrbvs	r0, [r2, #-83]!	; 0xffffffad
     7a8:	7361656c 	cmnvc	r1, #108, 10	; 0x1b000000
     7ac:	70670065 	rsbvc	r0, r7, r5, rrx
     7b0:	695f6f69 	ldmdbvs	pc, {r0, r3, r5, r6, r8, r9, sl, fp, sp, lr}^	; <UNPREDICTABLE>
     7b4:	0074696e 	rsbseq	r6, r4, lr, ror #18
     7b8:	4950476b 	ldmdbmi	r0, {r0, r1, r3, r5, r6, r8, r9, sl, lr}^
     7bc:	6e495f4f 	cdpvs	15, 4, cr5, cr9, cr15, {2}
     7c0:	73695274 	cmnvc	r9, #116, 4	; 0x40000007
     7c4:	45676e69 	strbmi	r6, [r7, #-3689]!	; 0xfffff197
     7c8:	00656764 	rsbeq	r6, r5, r4, ror #14
     7cc:	5679654b 	ldrbtpl	r6, [r9], -fp, asr #10
     7d0:	65756c61 	ldrbvs	r6, [r5, #-3169]!	; 0xfffff39f
     7d4:	69706700 	ldmdbvs	r0!, {r8, r9, sl, sp, lr}^
     7d8:	69705f6f 	ldmdbvs	r0!, {r0, r1, r2, r3, r5, r6, r8, r9, sl, fp, ip, lr}^
     7dc:	6f635f6e 	svcvs	0x00635f6e
     7e0:	6769666e 	strbvs	r6, [r9, -lr, ror #12]!
     7e4:	5700745f 	smlsdpl	r0, pc, r4, r7	; <UNPREDICTABLE>
     7e8:	5f50554b 	svcpl	0x0050554b
     7ec:	53455250 	movtpl	r5, #21072	; 0x5250
     7f0:	69706700 	ldmdbvs	r0!, {r8, r9, sl, sp, lr}^
     7f4:	6e695f6f 	cdpvs	15, 6, cr5, cr9, cr15, {3}
     7f8:	72726574 	rsbsvc	r6, r2, #116, 10	; 0x1d000000
     7fc:	5f747075 	svcpl	0x00747075
     800:	61656c63 	cmnvs	r5, r3, ror #24
     804:	6c665f72 	stclvs	15, cr5, [r6], #-456	; 0xfffffe38
     808:	67006761 	strvs	r6, [r0, -r1, ror #14]
     80c:	006f6970 	rsbeq	r6, pc, r0, ror r9	; <UNPREDICTABLE>
     810:	6f697067 	svcvs	0x00697067
     814:	746e695f 	strbtvc	r6, [lr], #-2399	; 0xfffff6a1
     818:	75727265 	ldrbvc	r7, [r2, #-613]!	; 0xfffffd9b
     81c:	655f7470 	ldrbvs	r7, [pc, #-1136]	; 3b4 <shift+0x3b4>
     820:	6c62616e 	stfvse	f6, [r2], #-440	; 0xfffffe48
     824:	70670065 	rsbvc	r0, r7, r5, rrx
     828:	775f6f69 	ldrbvc	r6, [pc, -r9, ror #30]
     82c:	65746972 	ldrbvs	r6, [r4, #-2418]!	; 0xfffff68e
     830:	006e6950 	rsbeq	r6, lr, r0, asr r9
     834:	65646f6d 	strbvs	r6, [r4, #-3949]!	; 0xfffff093
     838:	69706700 	ldmdbvs	r0!, {r8, r9, sl, sp, lr}^
     83c:	6e695f6f 	cdpvs	15, 6, cr5, cr9, cr15, {3}
     840:	72726574 	rsbsvc	r6, r2, #116, 10	; 0x1d000000
     844:	5f747075 	svcpl	0x00747075
     848:	74696e69 	strbtvc	r6, [r9], #-3689	; 0xfffff197
     84c:	69706700 	ldmdbvs	r0!, {r8, r9, sl, sp, lr}^
     850:	6e695f6f 	cdpvs	15, 6, cr5, cr9, cr15, {3}
     854:	72726574 	rsbsvc	r6, r2, #116, 10	; 0x1d000000
     858:	5f747075 	svcpl	0x00747075
     85c:	61736964 	cmnvs	r3, r4, ror #18
     860:	00656c62 	rsbeq	r6, r5, r2, ror #24
     864:	53726369 	cmnpl	r2, #-1543503871	; 0xa4000001
     868:	74666968 	strbtvc	r6, [r6], #-2408	; 0xfffff698
     86c:	70736200 	rsbsvc	r6, r3, r0, lsl #4
     870:	6970672f 	ldmdbvs	r0!, {r0, r1, r2, r3, r5, r8, r9, sl, sp, lr}^
     874:	73622f6f 	cmnvc	r2, #444	; 0x1bc
     878:	70675f70 	rsbvc	r5, r7, r0, ror pc
     87c:	632e6f69 			; <UNDEFINED> instruction: 0x632e6f69
     880:	52415500 	subpl	r5, r1, #0, 10
     884:	495f3354 	ldmdbmi	pc, {r2, r4, r6, r8, r9, ip, sp}^	; <UNPREDICTABLE>
     888:	006e5152 	rsbeq	r5, lr, r2, asr r1
     88c:	5f504344 	svcpl	0x00504344
     890:	5f515249 	svcpl	0x00515249
     894:	6e515249 	cdpvs	2, 5, cr5, cr1, cr9, {2}
     898:	74536b00 	ldrbvc	r6, [r3], #-2816	; 0xfffff500
     89c:	73757461 	cmnvc	r5, #1627389952	; 0x61000000
     8a0:	756f7247 	strbvc	r7, [pc, #-583]!	; 661 <shift+0x661>
     8a4:	4c465f70 	mcrrmi	15, 7, r5, r6, cr0
     8a8:	4f495845 	svcmi	0x00495845
     8ac:	5241555f 	subpl	r5, r1, #398458880	; 0x17c00000
     8b0:	536b0054 	cmnpl	fp, #84	; 0x54
     8b4:	75746174 	ldrbvc	r6, [r4, #-372]!	; 0xfffffe8c
     8b8:	6f724773 	svcvs	0x00724773
     8bc:	535f7075 	cmppl	pc, #117	; 0x75
     8c0:	43004941 	movwmi	r4, #2369	; 0x941
     8c4:	5050485f 	subspl	r4, r0, pc, asr r8
     8c8:	41005249 	tstmi	r0, r9, asr #4
     8cc:	5f435253 	svcpl	0x00435253
     8d0:	6e515249 	cdpvs	2, 5, cr5, cr1, cr9, {2}
     8d4:	41414300 	mrsmi	r4, (UNDEF: 113)
     8d8:	6f4a5f4d 	svcvs	0x004a5f4d
     8dc:	69525f62 	ldmdbvs	r2, {r1, r5, r6, r8, r9, sl, fp, ip, lr}^
     8e0:	5f30676e 	svcpl	0x0030676e
     8e4:	6e515249 	cdpvs	2, 5, cr5, cr1, cr9, {2}
     8e8:	74536b00 	ldrbvc	r6, [r3], #-2816	; 0xfffff500
     8ec:	73757461 	cmnvc	r5, #1627389952	; 0x61000000
     8f0:	756f7247 	strbvc	r7, [pc, #-583]!	; 6b1 <shift+0x6b1>
     8f4:	44535f70 	ldrbmi	r5, [r3], #-3952	; 0xfffff090
     8f8:	434d4152 	movtmi	r4, #53586	; 0xd152
     8fc:	49504700 	ldmdbmi	r0, {r8, r9, sl, lr}^
     900:	435f344f 	cmpmi	pc, #1325400064	; 0x4f000000
     904:	69626d6f 	stmdbvs	r2!, {r0, r1, r2, r3, r5, r6, r8, sl, fp, sp, lr}^
     908:	5f64656e 	svcpl	0x0064656e
     90c:	335f3631 	cmpcc	pc, #51380224	; 0x3100000
     910:	52495f31 	subpl	r5, r9, #49, 30	; 0xc4
     914:	43006e51 	movwmi	r6, #3665	; 0xe51
     918:	5f314e41 	svcpl	0x00314e41
     91c:	6e515249 	cdpvs	2, 5, cr5, cr1, cr9, {2}
     920:	44535500 	ldrbmi	r5, [r3], #-1280	; 0xfffffb00
     924:	5f324348 	svcpl	0x00324348
     928:	6e515249 	cdpvs	2, 5, cr5, cr1, cr9, {2}
     92c:	675f5f00 	ldrbvs	r5, [pc, -r0, lsl #30]
     930:	435f7465 	cmpmi	pc, #1694498816	; 0x65000000
     934:	00524142 	subseq	r4, r2, r2, asr #2
     938:	314d5750 	cmpcc	sp, r0, asr r7
     93c:	5152495f 	cmppl	r2, pc, asr r9
     940:	5850006e 	ldmdapl	r0, {r1, r2, r3, r5, r6}^
     944:	52495f50 	subpl	r5, r9, #80, 30	; 0x140
     948:	495f3151 	ldmdbmi	pc, {r0, r4, r6, r8, ip, sp}^	; <UNPREDICTABLE>
     94c:	006e5152 	rsbeq	r5, lr, r2, asr r1
     950:	48425041 	stmdami	r2, {r0, r6, ip, lr}^
     954:	5152495f 	cmppl	r2, pc, asr r9
     958:	5053006e 	subspl	r0, r3, lr, rrx
     95c:	5f464944 	svcpl	0x00464944
     960:	6e515249 	cdpvs	2, 5, cr5, cr1, cr9, {2}
     964:	495f4400 	ldmdbmi	pc, {sl, lr}^	; <UNPREDICTABLE>
     968:	54434153 	strbpl	r4, [r3], #-339	; 0xfffffead
     96c:	52455649 	subpl	r5, r5, #76546048	; 0x4900000
     970:	42535500 	subsmi	r5, r3, #0, 10
     974:	47544f5f 			; <UNDEFINED> instruction: 0x47544f5f
     978:	52495f31 	subpl	r5, r9, #49, 30	; 0xc4
     97c:	44006e51 	strmi	r6, [r0], #-3665	; 0xfffff1af
     980:	4449435f 	strbmi	r4, [r9], #-863	; 0xfffffca1
     984:	44003052 	strmi	r3, [r0], #-82	; 0xffffffae
     988:	4449435f 	strbmi	r4, [r9], #-863	; 0xfffffca1
     98c:	44003152 	strmi	r3, [r0], #-338	; 0xfffffeae
     990:	4449435f 	strbmi	r4, [r9], #-863	; 0xfffffca1
     994:	44003252 	strmi	r3, [r0], #-594	; 0xfffffdae
     998:	4449435f 	strbmi	r4, [r9], #-863	; 0xfffffca1
     99c:	52003352 	andpl	r3, r0, #1207959553	; 0x48000001
     9a0:	72657365 	rsbvc	r7, r5, #-1811939327	; 0x94000001
     9a4:	31646576 	smccc	18006	; 0x4656
     9a8:	495f3830 	ldmdbmi	pc, {r4, r5, fp, ip, sp}^	; <UNPREDICTABLE>
     9ac:	006e5152 	rsbeq	r5, lr, r2, asr r1
     9b0:	6174536b 	cmnvs	r4, fp, ror #6
     9b4:	47737574 			; <UNDEFINED> instruction: 0x47737574
     9b8:	70756f72 	rsbsvc	r6, r5, r2, ror pc
     9bc:	4453555f 	ldrbmi	r5, [r3], #-1375	; 0xfffffaa1
     9c0:	62004348 	andvs	r4, r0, #72, 6	; 0x20000001
     9c4:	692f7073 	stmdbvs	pc!, {r0, r1, r4, r5, r6, ip, sp, lr}	; <UNPREDICTABLE>
     9c8:	622f746e 	eorvs	r7, pc, #1845493760	; 0x6e000000
     9cc:	695f7073 	ldmdbvs	pc, {r0, r1, r4, r5, r6, ip, sp, lr}^	; <UNPREDICTABLE>
     9d0:	632e746e 			; <UNDEFINED> instruction: 0x632e746e
     9d4:	6e6f4e00 	cdpvs	14, 6, cr4, cr15, cr0, {0}
     9d8:	75636553 	strbvc	r6, [r3, #-1363]!	; 0xfffffaad
     9dc:	68506572 	ldmdavs	r0, {r1, r4, r5, r6, r8, sl, sp, lr}^
     9e0:	6d695479 	cfstrdvs	mvd5, [r9, #-484]!	; 0xfffffe1c
     9e4:	495f7265 	ldmdbmi	pc, {r0, r2, r5, r6, r9, ip, sp, lr}^	; <UNPREDICTABLE>
     9e8:	006e5152 	rsbeq	r5, lr, r2, asr r1
     9ec:	50534365 	subspl	r4, r3, r5, ror #6
     9f0:	495f3249 	ldmdbmi	pc, {r0, r3, r6, r9, ip, sp}^	; <UNPREDICTABLE>
     9f4:	006e5152 	rsbeq	r5, lr, r2, asr r1
     9f8:	4f495047 	svcmi	0x00495047
     9fc:	4e495f31 	mcrmi	15, 2, r5, cr9, cr1, {1}
     a00:	495f3454 	ldmdbmi	pc, {r2, r4, r6, sl, ip, sp}^	; <UNPREDICTABLE>
     a04:	006e5152 	rsbeq	r5, lr, r2, asr r1
     a08:	4f495047 	svcmi	0x00495047
     a0c:	4e495f31 	mcrmi	15, 2, r5, cr9, cr1, {1}
     a10:	495f3354 	ldmdbmi	pc, {r2, r4, r6, r8, r9, ip, sp}^	; <UNPREDICTABLE>
     a14:	006e5152 	rsbeq	r5, lr, r2, asr r1
     a18:	5f504344 	svcpl	0x00504344
     a1c:	5f434553 	svcpl	0x00434553
     a20:	5f515249 	svcpl	0x00515249
     a24:	6e515249 	cdpvs	2, 5, cr5, cr1, cr9, {2}
     a28:	74536b00 	ldrbvc	r6, [r3], #-2816	; 0xfffff500
     a2c:	73757461 	cmnvc	r5, #1627389952	; 0x61000000
     a30:	756f7247 	strbvc	r7, [pc, #-583]!	; 7f1 <shift+0x7f1>
     a34:	65475f70 	strbvs	r5, [r7, #-3952]	; 0xfffff090
     a38:	6972656e 	ldmdbvs	r2!, {r1, r2, r3, r5, r6, r8, sl, sp, lr}^
     a3c:	536b0063 	cmnpl	fp, #99	; 0x63
     a40:	75746174 	ldrbvc	r6, [r4, #-372]!	; 0xfffffe8c
     a44:	6f724773 	svcvs	0x00724773
     a48:	4c5f7075 	mrrcmi	0, 7, r7, pc, cr5	; <UNPREDICTABLE>
     a4c:	50004354 	andpl	r4, r0, r4, asr r3
     a50:	5f364d57 	svcpl	0x00364d57
     a54:	6e515249 	cdpvs	2, 5, cr5, cr1, cr9, {2}
     a58:	74536b00 	ldrbvc	r6, [r3], #-2816	; 0xfffff500
     a5c:	73757461 	cmnvc	r5, #1627389952	; 0x61000000
     a60:	756f7247 	strbvc	r7, [pc, #-583]!	; 821 <shift+0x821>
     a64:	4e455f70 	mcrmi	15, 2, r5, cr5, cr0, {3}
     a68:	47005445 	strmi	r5, [r0, -r5, asr #8]
     a6c:	314f4950 	cmpcc	pc, r0, asr r9	; <UNPREDICTABLE>
     a70:	6d6f435f 	stclvs	3, cr4, [pc, #-380]!	; 8fc <shift+0x8fc>
     a74:	656e6962 	strbvs	r6, [lr, #-2402]!	; 0xfffff69e
     a78:	5f305f64 	svcpl	0x00305f64
     a7c:	495f3531 	ldmdbmi	pc, {r0, r4, r5, r8, sl, ip, sp}^	; <UNPREDICTABLE>
     a80:	006e5152 	rsbeq	r5, lr, r2, asr r1
     a84:	6174536b 	cmnvs	r4, fp, ror #6
     a88:	47737574 			; <UNDEFINED> instruction: 0x47737574
     a8c:	70756f72 	rsbsvc	r6, r5, r2, ror pc
     a90:	5241555f 	subpl	r5, r1, #398458880	; 0x17c00000
     a94:	65520054 	ldrbvs	r0, [r2, #-84]	; 0xffffffac
     a98:	76726573 			; <UNDEFINED> instruction: 0x76726573
     a9c:	33316465 	teqcc	r1, #1694498816	; 0x65000000
     aa0:	52495f35 	subpl	r5, r9, #53, 30	; 0xd4
     aa4:	47006e51 	smlsdmi	r0, r1, lr, r6
     aa8:	314f4950 	cmpcc	pc, r0, asr r9	; <UNPREDICTABLE>
     aac:	6d6f435f 	stclvs	3, cr4, [pc, #-380]!	; 938 <shift+0x938>
     ab0:	656e6962 	strbvs	r6, [lr, #-2402]!	; 0xfffff69e
     ab4:	36315f64 	ldrtcc	r5, [r1], -r4, ror #30
     ab8:	5f31335f 	svcpl	0x0031335f
     abc:	6e515249 	cdpvs	2, 5, cr5, cr1, cr9, {2}
     ac0:	666f5300 	strbtvs	r5, [pc], -r0, lsl #6
     ac4:	72617774 	rsbvc	r7, r1, #116, 14	; 0x1d00000
     ac8:	495f3565 	ldmdbmi	pc, {r0, r2, r5, r6, r8, sl, ip, sp}^	; <UNPREDICTABLE>
     acc:	006e5152 	rsbeq	r5, lr, r2, asr r1
     ad0:	74666f53 	strbtvc	r6, [r6], #-3923	; 0xfffff0ad
     ad4:	65726177 	ldrbvs	r6, [r2, #-375]!	; 0xfffffe89
     ad8:	495f3331 	ldmdbmi	pc, {r0, r4, r5, r8, r9, ip, sp}^	; <UNPREDICTABLE>
     adc:	006e5152 	rsbeq	r5, lr, r2, asr r1
     ae0:	31433249 	cmpcc	r3, r9, asr #4
     ae4:	5152495f 	cmppl	r2, pc, asr r9
     ae8:	536b006e 	cmnpl	fp, #110	; 0x6e
     aec:	75746174 	ldrbvc	r6, [r4, #-372]!	; 0xfffffe8c
     af0:	6f724773 	svcvs	0x00724773
     af4:	535f7075 	cmppl	pc, #117	; 0x75
     af8:	34414d45 	strbcc	r4, [r1], #-3397	; 0xfffff2bb
     afc:	41550032 	cmpmi	r5, r2, lsr r0
     b00:	5f345452 	svcpl	0x00345452
     b04:	6e515249 	cdpvs	2, 5, cr5, cr1, cr9, {2}
     b08:	666f5300 	strbtvs	r5, [pc], -r0, lsl #6
     b0c:	72617774 	rsbvc	r7, r1, #116, 14	; 0x1d00000
     b10:	495f3065 	ldmdbmi	pc, {r0, r2, r5, r6, ip, sp}^	; <UNPREDICTABLE>
     b14:	006e5152 	rsbeq	r5, lr, r2, asr r1
     b18:	54495045 	strbpl	r5, [r9], #-69	; 0xffffffbb
     b1c:	52495f32 	subpl	r5, r9, #50, 30	; 0xc8
     b20:	49006e51 	stmdbmi	r0, {r0, r4, r6, r9, sl, fp, sp, lr}
     b24:	5f344332 	svcpl	0x00344332
     b28:	6e515249 	cdpvs	2, 5, cr5, cr1, cr9, {2}
     b2c:	73655200 	cmnvc	r5, #0, 4
     b30:	65767265 	ldrbvs	r7, [r6, #-613]!	; 0xfffffd9b
     b34:	35323164 	ldrcc	r3, [r2, #-356]!	; 0xfffffe9c
     b38:	5152495f 	cmppl	r2, pc, asr r9
     b3c:	5343006e 	movtpl	r0, #12398	; 0x306e
     b40:	52495f49 	subpl	r5, r9, #292	; 0x124
     b44:	6b006e51 	blvs	1c490 <shift+0x1c490>
     b48:	74617453 	strbtvc	r7, [r1], #-1107	; 0xfffffbad
     b4c:	72477375 	subvc	r7, r7, #-738197503	; 0xd4000001
     b50:	5f70756f 	svcpl	0x0070756f
     b54:	4e41434d 	cdpmi	3, 4, cr4, cr1, cr13, {2}
     b58:	49504700 	ldmdbmi	r0, {r8, r9, sl, lr}^
     b5c:	435f334f 	cmpmi	pc, #1006632961	; 0x3c000001
     b60:	69626d6f 	stmdbvs	r2!, {r0, r1, r2, r3, r5, r6, r8, sl, fp, sp, lr}^
     b64:	5f64656e 	svcpl	0x0064656e
     b68:	335f3631 	cmpcc	pc, #51380224	; 0x3100000
     b6c:	52495f31 	subpl	r5, r9, #49, 30	; 0xc4
     b70:	44006e51 	strmi	r6, [r0], #-3665	; 0xfffff1af
     b74:	4449495f 	strbmi	r4, [r9], #-2399	; 0xfffff6a1
     b78:	536b0052 	cmnpl	fp, #82	; 0x52
     b7c:	75746174 	ldrbvc	r6, [r4, #-372]!	; 0xfffffe8c
     b80:	6f724773 	svcvs	0x00724773
     b84:	4c5f7075 	mrrcmi	0, 7, r7, pc, cr5	; <UNPREDICTABLE>
     b88:	535f4350 	cmppl	pc, #80, 6	; 0x40000001
     b8c:	54004950 	strpl	r4, [r0], #-2384	; 0xfffff6b0
     b90:	4d504d45 	ldclmi	13, cr4, [r0, #-276]	; 0xfffffeec
     b94:	495f4e4f 	ldmdbmi	pc, {r0, r1, r2, r3, r6, r9, sl, fp, lr}^	; <UNPREDICTABLE>
     b98:	006e5152 	rsbeq	r5, lr, r2, asr r1
     b9c:	4f495047 	svcmi	0x00495047
     ba0:	6f435f33 	svcvs	0x00435f33
     ba4:	6e69626d 	cdpvs	2, 6, cr6, cr9, cr13, {3}
     ba8:	305f6465 	subscc	r6, pc, r5, ror #8
     bac:	5f35315f 	svcpl	0x0035315f
     bb0:	6e515249 	cdpvs	2, 5, cr5, cr1, cr9, {2}
     bb4:	50535100 	subspl	r5, r3, r0, lsl #2
     bb8:	52495f49 	subpl	r5, r9, #292	; 0x124
     bbc:	6b006e51 	blvs	1c508 <shift+0x1c508>
     bc0:	74617453 	strbtvc	r7, [r1], #-1107	; 0xfffffbad
     bc4:	72477375 	subvc	r7, r7, #-738197503	; 0xd4000001
     bc8:	5f70756f 	svcpl	0x0070756f
     bcc:	58454c46 	stmdapl	r5, {r1, r2, r6, sl, fp, lr}^
     bd0:	4d5f4f49 	ldclmi	15, cr4, [pc, #-292]	; ab4 <shift+0xab4>
     bd4:	434c5543 	movtmi	r5, #50499	; 0xc543
     bd8:	49470044 	stmdbmi	r7, {r2, r6}^
     bdc:	6e495f43 	cdpvs	15, 4, cr5, cr9, cr3, {2}
     be0:	55007469 	strpl	r7, [r0, #-1129]	; 0xfffffb97
     be4:	505f4253 	subspl	r4, pc, r3, asr r2	; <UNPREDICTABLE>
     be8:	5f315948 	svcpl	0x00315948
     bec:	6e515249 	cdpvs	2, 5, cr5, cr1, cr9, {2}
     bf0:	53455200 	movtpl	r5, #20992	; 0x5200
     bf4:	45565245 	ldrbmi	r5, [r6, #-581]	; 0xfffffdbb
     bf8:	44003244 	strmi	r3, [r0], #-580	; 0xfffffdbc
     bfc:	565f5043 	ldrbpl	r5, [pc], -r3, asr #32
     c00:	495f494d 	ldmdbmi	pc, {r0, r2, r3, r6, r8, fp, lr}^	; <UNPREDICTABLE>
     c04:	495f5152 	ldmdbmi	pc, {r1, r4, r6, r8, ip, lr}^	; <UNPREDICTABLE>
     c08:	006e5152 	rsbeq	r5, lr, r2, asr r1
     c0c:	45534552 	ldrbmi	r4, [r3, #-1362]	; 0xfffffaae
     c10:	44455652 	strbmi	r5, [r5], #-1618	; 0xfffff9ae
     c14:	45520036 	ldrbmi	r0, [r2, #-54]	; 0xffffffca
     c18:	56524553 			; <UNDEFINED> instruction: 0x56524553
     c1c:	00384445 	eorseq	r4, r8, r5, asr #8
     c20:	49445f43 	stmdbmi	r4, {r0, r1, r6, r8, r9, sl, fp, ip, lr}^
     c24:	536b0052 	cmnpl	fp, #82	; 0x52
     c28:	75746174 	ldrbvc	r6, [r4, #-372]!	; 0xfffffe8c
     c2c:	6f724773 	svcvs	0x00724773
     c30:	4c5f7075 	mrrcmi	0, 7, r7, pc, cr5	; <UNPREDICTABLE>
     c34:	495f4350 	ldmdbmi	pc, {r4, r6, r8, r9, lr}^	; <UNPREDICTABLE>
     c38:	4e004332 	mcrmi	3, 0, r4, cr0, cr2, {1}
     c3c:	7641746f 	strbvc	r7, [r1], -pc, ror #8
     c40:	5f6c6961 	svcpl	0x006c6961
     c44:	6e515249 	cdpvs	2, 5, cr5, cr1, cr9, {2}
     c48:	525f4300 	subspl	r4, pc, #0, 6
     c4c:	52005250 	andpl	r5, r0, #80, 4
     c50:	414e5741 	cmpmi	lr, r1, asr #14
     c54:	425f444e 	subsmi	r4, pc, #1308622848	; 0x4e000000
     c58:	495f4843 	ldmdbmi	pc, {r0, r1, r6, fp, lr}^	; <UNPREDICTABLE>
     c5c:	006e5152 	rsbeq	r5, lr, r2, asr r1
     c60:	65736552 	ldrbvs	r6, [r3, #-1362]!	; 0xfffffaae
     c64:	64657672 	strbtvs	r7, [r5], #-1650	; 0xfffff98e
     c68:	5f373531 	svcpl	0x00373531
     c6c:	6e515249 	cdpvs	2, 5, cr5, cr1, cr9, {2}
     c70:	505f4300 	subspl	r4, pc, r0, lsl #6
     c74:	6500524d 	strvs	r5, [r0, #-589]	; 0xfffffdb3
     c78:	49505343 	ldmdbmi	r0, {r0, r1, r6, r8, r9, ip, lr}^
     c7c:	52495f34 	subpl	r5, r9, #52, 30	; 0xd0
     c80:	44006e51 	strmi	r6, [r0], #-3665	; 0xfffff1af
     c84:	4143495f 	cmpmi	r3, pc, asr r9
     c88:	56495443 	strbpl	r5, [r9], -r3, asr #8
     c8c:	47005245 	strmi	r5, [r0, -r5, asr #4]
     c90:	314f4950 	cmpcc	pc, r0, asr r9	; <UNPREDICTABLE>
     c94:	544e495f 	strbpl	r4, [lr], #-2399	; 0xfffff6a1
     c98:	52495f35 	subpl	r5, r9, #53, 30	; 0xd4
     c9c:	4c006e51 	stcmi	14, cr6, [r0], {81}	; 0x51
     ca0:	46494443 	strbmi	r4, [r9], -r3, asr #8
     ca4:	5152495f 	cmppl	r2, pc, asr r9
     ca8:	5047006e 	subpl	r0, r7, lr, rrx
     cac:	5f314f49 	svcpl	0x00314f49
     cb0:	30544e49 	subscc	r4, r4, r9, asr #28
     cb4:	5152495f 	cmppl	r2, pc, asr r9
     cb8:	4457006e 	ldrbmi	r0, [r7], #-110	; 0xffffff92
     cbc:	5f31474f 	svcpl	0x0031474f
     cc0:	6e515249 	cdpvs	2, 5, cr5, cr1, cr9, {2}
     cc4:	51524900 	cmppl	r2, r0, lsl #18
     cc8:	79545f6e 	ldmdbvc	r4, {r1, r2, r3, r5, r6, r8, r9, sl, fp, ip, lr}^
     ccc:	6b006570 	blvs	1a294 <shift+0x1a294>
     cd0:	74617453 	strbtvc	r7, [r1], #-1107	; 0xfffffbad
     cd4:	72477375 	subvc	r7, r7, #-738197503	; 0xd4000001
     cd8:	5f70756f 	svcpl	0x0070756f
     cdc:	0050544f 	subseq	r5, r0, pc, asr #8
     ce0:	5f554d50 	svcpl	0x00554d50
     ce4:	31515249 	cmpcc	r1, r9, asr #4
     ce8:	5152495f 	cmppl	r2, pc, asr r9
     cec:	6f53006e 	svcvs	0x0053006e
     cf0:	61777466 	cmnvs	r7, r6, ror #8
     cf4:	5f376572 	svcpl	0x00376572
     cf8:	6e515249 	cdpvs	2, 5, cr5, cr1, cr9, {2}
     cfc:	666f5300 	strbtvs	r5, [pc], -r0, lsl #6
     d00:	72617774 	rsbvc	r7, r1, #116, 14	; 0x1d00000
     d04:	5f353165 	svcpl	0x00353165
     d08:	6e515249 	cdpvs	2, 5, cr5, cr1, cr9, {2}
     d0c:	43324900 	teqmi	r2, #0, 18
     d10:	52495f33 	subpl	r5, r9, #51, 30	; 0xcc
     d14:	50006e51 	andpl	r6, r0, r1, asr lr
     d18:	5f334d57 	svcpl	0x00334d57
     d1c:	6e515249 	cdpvs	2, 5, cr5, cr1, cr9, {2}
     d20:	52415500 	subpl	r5, r1, #0, 10
     d24:	495f3654 	ldmdbmi	pc, {r2, r4, r6, r9, sl, ip, sp}^	; <UNPREDICTABLE>
     d28:	006e5152 	rsbeq	r5, lr, r2, asr r1
     d2c:	59545f44 	ldmdbpl	r4, {r2, r6, r8, r9, sl, fp, ip, lr}^
     d30:	00524550 	subseq	r4, r2, r0, asr r5
     d34:	6174536b 	cmnvs	r4, fp, ror #6
     d38:	47737574 			; <UNDEFINED> instruction: 0x47737574
     d3c:	70756f72 	rsbsvc	r6, r5, r2, ror pc
     d40:	5053445f 	subspl	r4, r3, pc, asr r4
     d44:	6f530049 	svcvs	0x00530049
     d48:	61777466 	cmnvs	r7, r6, ror #8
     d4c:	30316572 	eorscc	r6, r1, r2, ror r5
     d50:	5152495f 	cmppl	r2, pc, asr r9
     d54:	6f53006e 	svcvs	0x0053006e
     d58:	61777466 	cmnvs	r7, r6, ror #8
     d5c:	5f326572 	svcpl	0x00326572
     d60:	6e515249 	cdpvs	2, 5, cr5, cr1, cr9, {2}
     d64:	73655200 	cmnvc	r5, #0, 4
     d68:	65767265 	ldrbvs	r7, [r6, #-613]!	; 0xfffffd9b
     d6c:	34333164 	ldrtcc	r3, [r3], #-356	; 0xfffffe9c
     d70:	5152495f 	cmppl	r2, pc, asr r9
     d74:	6552006e 	ldrbvs	r0, [r2, #-110]	; 0xffffff92
     d78:	76726573 			; <UNDEFINED> instruction: 0x76726573
     d7c:	35386465 	ldrcc	r6, [r8, #-1125]!	; 0xfffffb9b
     d80:	5152495f 	cmppl	r2, pc, asr r9
     d84:	4155006e 	cmpmi	r5, lr, rrx
     d88:	5f315452 	svcpl	0x00315452
     d8c:	6e515249 	cdpvs	2, 5, cr5, cr1, cr9, {2}
     d90:	564e5300 	strbpl	r5, [lr], -r0, lsl #6
     d94:	6f435f53 	svcvs	0x00435f53
     d98:	6c6f736e 	stclvs	3, cr7, [pc], #-440	; be8 <shift+0xbe8>
     d9c:	74616469 	strbtvc	r6, [r1], #-1129	; 0xfffffb97
     da0:	495f6465 	ldmdbmi	pc, {r0, r2, r5, r6, sl, sp, lr}^	; <UNPREDICTABLE>
     da4:	006e5152 	rsbeq	r5, lr, r2, asr r1
     da8:	6174536b 	cmnvs	r4, fp, ror #6
     dac:	47737574 			; <UNDEFINED> instruction: 0x47737574
     db0:	70756f72 	rsbsvc	r6, r5, r2, ror pc
     db4:	5053515f 	subspl	r5, r3, pc, asr r1
     db8:	536b0049 	cmnpl	fp, #73	; 0x49
     dbc:	75746174 	ldrbvc	r6, [r4, #-372]!	; 0xfffffe8c
     dc0:	6f724773 	svcvs	0x00724773
     dc4:	4d5f7075 	ldclmi	0, cr7, [pc, #-468]	; bf8 <shift+0xbf8>
     dc8:	0043444d 	subeq	r4, r3, sp, asr #8
     dcc:	65736552 	ldrbvs	r6, [r3, #-1362]!	; 0xfffffaae
     dd0:	64657672 	strbtvs	r7, [r5], #-1650	; 0xfffff98e
     dd4:	5f343531 	svcpl	0x00343531
     dd8:	6e515249 	cdpvs	2, 5, cr5, cr1, cr9, {2}
     ddc:	454e4500 	strbmi	r4, [lr, #-1280]	; 0xfffffb00
     de0:	315f3254 	cmpcc	pc, r4, asr r2	; <UNPREDICTABLE>
     de4:	5f383835 	svcpl	0x00383835
     de8:	6e515249 	cdpvs	2, 5, cr5, cr1, cr9, {2}
     dec:	564e5300 	strbpl	r5, [lr], -r0, lsl #6
     df0:	52495f53 	subpl	r5, r9, #332	; 0x14c
     df4:	43006e51 	movwmi	r6, #3665	; 0xe51
     df8:	505f5550 	subspl	r5, pc, r0, asr r5	; <UNPREDICTABLE>
     dfc:	6f667265 	svcvs	0x00667265
     e00:	6e616d72 	mcrvs	13, 3, r6, cr1, cr2, {3}
     e04:	6e556563 	cdpvs	5, 5, cr6, cr5, cr3, {3}
     e08:	495f7469 	ldmdbmi	pc, {r0, r3, r5, r6, sl, ip, sp, lr}^	; <UNPREDICTABLE>
     e0c:	006e5152 	rsbeq	r5, lr, r2, asr r1
     e10:	52544353 	subspl	r4, r4, #1275068417	; 0x4c000001
     e14:	5152495f 	cmppl	r2, pc, asr r9
     e18:	52495f31 	subpl	r5, r9, #49, 30	; 0xc4
     e1c:	6b006e51 	blvs	1c768 <shift+0x1c768>
     e20:	74617453 	strbtvc	r7, [r1], #-1107	; 0xfffffbad
     e24:	72477375 	subvc	r7, r7, #-738197503	; 0xd4000001
     e28:	5f70756f 	svcpl	0x0070756f
     e2c:	50534453 	subspl	r4, r3, r3, asr r4
     e30:	49470049 	stmdbmi	r7, {r0, r3, r6}^
     e34:	79545f43 	ldmdbvc	r4, {r0, r1, r6, r8, r9, sl, fp, ip, lr}^
     e38:	47006570 	smlsdxmi	r0, r0, r5, r6
     e3c:	495f4350 	ldmdbmi	pc, {r4, r6, r8, r9, lr}^	; <UNPREDICTABLE>
     e40:	006e5152 	rsbeq	r5, lr, r2, asr r1
     e44:	4e717269 	cdpmi	2, 7, cr7, cr1, cr9, {3}
     e48:	69747365 	ldmdbvs	r4!, {r0, r2, r5, r6, r8, r9, ip, sp, lr}^
     e4c:	5300676e 	movwpl	r6, #1902	; 0x76e
     e50:	495f434a 	ldmdbmi	pc, {r1, r3, r6, r8, r9, lr}^	; <UNPREDICTABLE>
     e54:	006e5152 	rsbeq	r5, lr, r2, asr r1
     e58:	31434441 	cmpcc	r3, r1, asr #8
     e5c:	5152495f 	cmppl	r2, pc, asr r9
     e60:	4557006e 	ldrbmi	r0, [r7, #-110]	; 0xffffff92
     e64:	495f4d49 	ldmdbmi	pc, {r0, r3, r6, r8, sl, fp, lr}^	; <UNPREDICTABLE>
     e68:	006e5152 	rsbeq	r5, lr, r2, asr r1
     e6c:	65736552 	ldrbvs	r6, [r3, #-1362]!	; 0xfffffaae
     e70:	64657672 	strbtvs	r7, [r5], #-1650	; 0xfffff98e
     e74:	5f313131 	svcpl	0x00313131
     e78:	6e515249 	cdpvs	2, 5, cr5, cr1, cr9, {2}
     e7c:	4d575000 	ldclmi	0, cr5, [r7, #-0]
     e80:	52495f38 	subpl	r5, r9, #56, 30	; 0xe0
     e84:	4c006e51 	stcmi	14, cr6, [r0], {81}	; 0x51
     e88:	63616765 	cmnvs	r1, #26476544	; 0x1940000
     e8c:	73614679 	cmnvc	r1, #126877696	; 0x7900000
     e90:	746e4974 	strbtvc	r4, [lr], #-2420	; 0xfffff68c
     e94:	5152495f 	cmppl	r2, pc, asr r9
     e98:	5f5f006e 	svcpl	0x005f006e
     e9c:	5f746573 	svcpl	0x00746573
     ea0:	52414256 	subpl	r4, r1, #1610612741	; 0x60000005
     ea4:	41534500 	cmpmi	r3, r0, lsl #10
     ea8:	52495f49 	subpl	r5, r9, #292	; 0x124
     eac:	6b006e51 	blvs	1c7f8 <shift+0x1c7f8>
     eb0:	74617453 	strbtvc	r7, [r1], #-1107	; 0xfffffbad
     eb4:	72477375 	subvc	r7, r7, #-738197503	; 0xd4000001
     eb8:	5f70756f 	svcpl	0x0070756f
     ebc:	58454c46 	stmdapl	r5, {r1, r2, r6, sl, fp, lr}^
     ec0:	004e4143 	subeq	r4, lr, r3, asr #2
     ec4:	6174536b 	cmnvs	r4, fp, ror #6
     ec8:	47737574 			; <UNDEFINED> instruction: 0x47737574
     ecc:	70756f72 	rsbsvc	r6, r5, r2, ror pc
     ed0:	544f4e5f 	strbpl	r4, [pc], #-3679	; ed8 <shift+0xed8>
     ed4:	45494649 	strbmi	r4, [r9, #-1609]	; 0xfffff9b7
     ed8:	5a540052 	bpl	1501028 <shift+0x1501028>
     edc:	5f435341 	svcpl	0x00435341
     ee0:	6e515249 	cdpvs	2, 5, cr5, cr1, cr9, {2}
     ee4:	43324900 	teqmi	r2, #0, 18
     ee8:	52495f32 	subpl	r5, r9, #50, 30	; 0xc8
     eec:	6b006e51 	blvs	1c838 <shift+0x1c838>
     ef0:	74617453 	strbtvc	r7, [r1], #-1107	; 0xfffffbad
     ef4:	72477375 	subvc	r7, r7, #-738197503	; 0xd4000001
     ef8:	5f70756f 	svcpl	0x0070756f
     efc:	4d414d44 	stclmi	13, cr4, [r1, #-272]	; 0xfffffef0
     f00:	50005247 	andpl	r5, r0, r7, asr #4
     f04:	495f5058 	ldmdbmi	pc, {r3, r4, r6, ip, lr}^	; <UNPREDICTABLE>
     f08:	5f305152 	svcpl	0x00305152
     f0c:	6e515249 	cdpvs	2, 5, cr5, cr1, cr9, {2}
     f10:	4d434300 	stclmi	3, cr4, [r3, #-0]
     f14:	5152495f 	cmppl	r2, pc, asr r9
     f18:	52495f32 	subpl	r5, r9, #50, 30	; 0xc8
     f1c:	52006e51 	andpl	r6, r0, #1296	; 0x510
     f20:	72657365 	rsbvc	r7, r5, #-1811939327	; 0x94000001
     f24:	31646576 	smccc	18006	; 0x4656
     f28:	495f3534 	ldmdbmi	pc, {r2, r4, r5, r8, sl, ip, sp}^	; <UNPREDICTABLE>
     f2c:	006e5152 	rsbeq	r5, lr, r2, asr r1
     f30:	6174536b 	cmnvs	r4, fp, ror #6
     f34:	47737574 			; <UNDEFINED> instruction: 0x47737574
     f38:	70756f72 	rsbsvc	r6, r5, r2, ror pc
     f3c:	454c465f 	strbmi	r4, [ip, #-1631]	; 0xfffff9a1
     f40:	5f4f4958 	svcpl	0x004f4958
     f44:	454d4143 	strbmi	r4, [sp, #-323]	; 0xfffffebd
     f48:	6b004152 	blvs	11498 <shift+0x11498>
     f4c:	74617453 	strbtvc	r7, [r1], #-1107	; 0xfffffbad
     f50:	72477375 	subvc	r7, r7, #-738197503	; 0xd4000001
     f54:	5f70756f 	svcpl	0x0070756f
     f58:	45574f50 	ldrbmi	r4, [r7, #-3920]	; 0xfffff0b0
     f5c:	5f440052 	svcpl	0x00440052
     f60:	4e455053 	mcrmi	0, 2, r5, cr5, cr3, {2}
     f64:	49475344 	stmdbmi	r7, {r2, r6, r8, r9, ip, lr}^
     f68:	65520052 	ldrbvs	r0, [r2, #-82]	; 0xffffffae
     f6c:	76726573 			; <UNDEFINED> instruction: 0x76726573
     f70:	34346465 	ldrtcc	r6, [r4], #-1125	; 0xfffffb9b
     f74:	5152495f 	cmppl	r2, pc, asr r9
     f78:	5f44006e 	svcpl	0x0044006e
     f7c:	45505349 	ldrbmi	r5, [r0, #-841]	; 0xfffffcb7
     f80:	0052444e 	subseq	r4, r2, lr, asr #8
     f84:	32494153 	subcc	r4, r9, #-1073741804	; 0xc0000014
     f88:	5152495f 	cmppl	r2, pc, asr r9
     f8c:	536b006e 	cmnpl	fp, #110	; 0x6e
     f90:	75746174 	ldrbvc	r6, [r4, #-372]!	; 0xfffffe8c
     f94:	6f724773 	svcvs	0x00724773
     f98:	4d5f7075 	ldclmi	0, cr7, [pc, #-468]	; dcc <shift+0xdcc>
     f9c:	4c004743 	stcmi	7, cr4, [r0], {67}	; 0x43
     fa0:	63616765 	cmnvs	r1, #26476544	; 0x1940000
     fa4:	51524979 	cmppl	r2, r9, ror r9
     fa8:	5152495f 	cmppl	r2, pc, asr r9
     fac:	4f49006e 	svcmi	0x0049006e
     fb0:	4358554d 	cmpmi	r8, #322961408	; 0x13400000
     fb4:	5152495f 	cmppl	r2, pc, asr r9
     fb8:	4365006e 	cmnmi	r5, #110	; 0x6e
     fbc:	31495053 	qdaddcc	r5, r3, r9
     fc0:	5152495f 	cmppl	r2, pc, asr r9
     fc4:	5f43006e 	svcpl	0x0043006e
     fc8:	50504841 	subspl	r4, r0, r1, asr #16
     fcc:	47005249 	strmi	r5, [r0, -r9, asr #4]
     fd0:	314f4950 	cmpcc	pc, r0, asr r9	; <UNPREDICTABLE>
     fd4:	544e495f 	strbpl	r4, [lr], #-2399	; 0xfffff6a1
     fd8:	52495f32 	subpl	r5, r9, #50, 30	; 0xc8
     fdc:	57006e51 	smlsdpl	r0, r1, lr, r6
     fe0:	33474f44 	movtcc	r4, #32580	; 0x7f44
     fe4:	5152495f 	cmppl	r2, pc, asr r9
     fe8:	7948006e 	stmdbvc	r8, {r1, r2, r3, r5, r6}^
     fec:	76726570 			; <UNDEFINED> instruction: 0x76726570
     ff0:	726f7369 	rsbvc	r7, pc, #-1543503871	; 0xa4000001
     ff4:	656d6954 	strbvs	r6, [sp, #-2388]!	; 0xfffff6ac
     ff8:	52495f72 	subpl	r5, r9, #456	; 0x1c8
     ffc:	6b006e51 	blvs	1c948 <shift+0x1c948>
    1000:	74617453 	strbtvc	r7, [r1], #-1107	; 0xfffffbad
    1004:	72477375 	subvc	r7, r7, #-738197503	; 0xd4000001
    1008:	5f70756f 	svcpl	0x0070756f
    100c:	43494d44 	movtmi	r4, #40260	; 0x9d44
    1010:	65737500 	ldrbvs	r7, [r3, #-1280]!	; 0xfffffb00
    1014:	72615072 	rsbvc	r5, r1, #114	; 0x72
    1018:	52006d61 	andpl	r6, r0, #6208	; 0x1840
    101c:	72657365 	rsbvc	r7, r5, #-1811939327	; 0x94000001
    1020:	31646576 	smccc	18006	; 0x4656
    1024:	495f3232 	ldmdbmi	pc, {r1, r4, r5, r9, ip, sp}^	; <UNPREDICTABLE>
    1028:	006e5152 	rsbeq	r5, lr, r2, asr r1
    102c:	74726956 	ldrbtvc	r6, [r2], #-2390	; 0xfffff6aa
    1030:	4d6c6175 	stfmie	f6, [ip, #-468]!	; 0xfffffe2c
    1034:	746e6961 	strbtvc	r6, [lr], #-2401	; 0xfffff69f
    1038:	6e616e65 	cdpvs	14, 6, cr6, cr1, cr5, {3}
    103c:	495f6563 	ldmdbmi	pc, {r0, r1, r5, r6, r8, sl, sp, lr}^	; <UNPREDICTABLE>
    1040:	006e5152 	rsbeq	r5, lr, r2, asr r1
    1044:	65736552 	ldrbvs	r6, [r3, #-1362]!	; 0xfffffaae
    1048:	64657672 	strbtvs	r7, [r5], #-1650	; 0xfffff98e
    104c:	495f3337 	ldmdbmi	pc, {r0, r1, r2, r4, r5, r8, r9, ip, sp}^	; <UNPREDICTABLE>
    1050:	006e5152 	rsbeq	r5, lr, r2, asr r1
    1054:	6174536b 	cmnvs	r4, fp, ror #6
    1058:	47737574 			; <UNDEFINED> instruction: 0x47737574
    105c:	70756f72 	rsbsvc	r6, r5, r2, ror pc
    1060:	4844535f 	stmdami	r4, {r0, r1, r2, r3, r4, r6, r8, r9, ip, lr}^
    1064:	5f440043 	svcpl	0x00440043
    1068:	52494753 	subpl	r4, r9, #21757952	; 0x14c0000
    106c:	454e4500 	strbmi	r4, [lr, #-1280]	; 0xfffffb00
    1070:	315f3154 	cmpcc	pc, r4, asr r1	; <UNPREDICTABLE>
    1074:	5f383835 	svcpl	0x00383835
    1078:	6e515249 	cdpvs	2, 5, cr5, cr1, cr9, {2}
    107c:	666f5300 	strbtvs	r5, [pc], -r0, lsl #6
    1080:	72617774 	rsbvc	r7, r1, #116, 14	; 0x1d00000
    1084:	495f3465 	ldmdbmi	pc, {r0, r2, r5, r6, sl, ip, sp}^	; <UNPREDICTABLE>
    1088:	006e5152 	rsbeq	r5, lr, r2, asr r1
    108c:	74666f53 	strbtvc	r6, [r6], #-3923	; 0xfffff0ad
    1090:	65726177 	ldrbvs	r6, [r2, #-375]!	; 0xfffffe89
    1094:	495f3231 	ldmdbmi	pc, {r0, r4, r5, r9, ip, sp}^	; <UNPREDICTABLE>
    1098:	006e5152 	rsbeq	r5, lr, r2, asr r1
    109c:	33494153 	movtcc	r4, #37203	; 0x9153
    10a0:	5f58525f 	svcpl	0x0058525f
    10a4:	6e515249 	cdpvs	2, 5, cr5, cr1, cr9, {2}
    10a8:	43535400 	cmpmi	r3, #0, 8
    10ac:	5152495f 	cmppl	r2, pc, asr r9
    10b0:	4e52006e 	cdpmi	0, 5, cr0, cr2, cr14, {3}
    10b4:	495f4247 	ldmdbmi	pc, {r0, r1, r2, r6, r9, lr}^	; <UNPREDICTABLE>
    10b8:	006e5152 	rsbeq	r5, lr, r2, asr r1
    10bc:	54454e45 	strbpl	r4, [r5], #-3653	; 0xfffff1bb
    10c0:	52495f32 	subpl	r5, r9, #50, 30	; 0xc8
    10c4:	55006e51 	strpl	r6, [r0, #-3665]	; 0xfffff1af
    10c8:	43484453 	movtmi	r4, #33875	; 0x8453
    10cc:	52495f31 	subpl	r5, r9, #49, 30	; 0xc4
    10d0:	47006e51 	smlsdmi	r0, r1, lr, r6
    10d4:	314f4950 	cmpcc	pc, r0, asr r9	; <UNPREDICTABLE>
    10d8:	544e495f 	strbpl	r4, [lr], #-2399	; 0xfffff6a1
    10dc:	52495f37 	subpl	r5, r9, #55, 30	; 0xdc
    10e0:	52006e51 	andpl	r6, r0, #1296	; 0x510
    10e4:	72657365 	rsbvc	r7, r5, #-1811939327	; 0x94000001
    10e8:	31646576 	smccc	18006	; 0x4656
    10ec:	495f3133 	ldmdbmi	pc, {r0, r1, r4, r5, r8, ip, sp}^	; <UNPREDICTABLE>
    10f0:	006e5152 	rsbeq	r5, lr, r2, asr r1
    10f4:	32545047 	subscc	r5, r4, #71	; 0x47
    10f8:	5152495f 	cmppl	r2, pc, asr r9
    10fc:	5045006e 	subpl	r0, r5, lr, rrx
    1100:	5f315449 	svcpl	0x00315449
    1104:	6e515249 	cdpvs	2, 5, cr5, cr1, cr9, {2}
    1108:	55534300 	ldrbpl	r4, [r3, #-768]	; 0xfffffd00
    110c:	5152495f 	cmppl	r2, pc, asr r9
    1110:	6956006e 	ldmdbvs	r6, {r1, r2, r3, r5, r6}^
    1114:	61757472 	cmnvs	r5, r2, ror r4
    1118:	6d69546c 	cfstrdvs	mvd5, [r9, #-432]!	; 0xfffffe50
    111c:	495f7265 	ldmdbmi	pc, {r0, r2, r5, r6, r9, ip, sp, lr}^	; <UNPREDICTABLE>
    1120:	006e5152 	rsbeq	r5, lr, r2, asr r1
    1124:	6174536b 	cmnvs	r4, fp, ror #6
    1128:	47737574 			; <UNDEFINED> instruction: 0x47737574
    112c:	70756f72 	rsbsvc	r6, r5, r2, ror pc
    1130:	414d445f 	cmpmi	sp, pc, asr r4
    1134:	74536b00 	ldrbvc	r6, [r3], #-2816	; 0xfffff500
    1138:	73757461 	cmnvc	r5, #1627389952	; 0x61000000
    113c:	756f7247 	strbvc	r7, [pc, #-583]!	; efd <shift+0xefd>
    1140:	53435f70 	movtpl	r5, #16240	; 0x3f70
    1144:	5f440049 	svcpl	0x00440049
    1148:	4e455349 	cdpmi	3, 4, cr5, cr5, cr9, {2}
    114c:	454c4241 	strbmi	r4, [ip, #-577]	; 0xfffffdbf
    1150:	5f440052 	svcpl	0x00440052
    1154:	52444950 	subpl	r4, r4, #80, 18	; 0x140000
    1158:	5f440030 	svcpl	0x00440030
    115c:	52444950 	subpl	r4, r4, #80, 18	; 0x140000
    1160:	5f440031 	svcpl	0x00440031
    1164:	52444950 	subpl	r4, r4, #80, 18	; 0x140000
    1168:	5f440032 	svcpl	0x00440032
    116c:	52444950 	subpl	r4, r4, #80, 18	; 0x140000
    1170:	5f440033 	svcpl	0x00440033
    1174:	52444950 	subpl	r4, r4, #80, 18	; 0x140000
    1178:	5f440034 	svcpl	0x00440034
    117c:	52444950 	subpl	r4, r4, #80, 18	; 0x140000
    1180:	5f440035 	svcpl	0x00440035
    1184:	52444950 	subpl	r4, r4, #80, 18	; 0x140000
    1188:	5f440036 	svcpl	0x00440036
    118c:	52444950 	subpl	r4, r4, #80, 18	; 0x140000
    1190:	5f430037 	svcpl	0x00430037
    1194:	52444949 	subpl	r4, r4, #1196032	; 0x124000
    1198:	72617000 	rsbvc	r7, r1, #0
    119c:	47006d61 	strmi	r6, [r0, -r1, ror #26]
    11a0:	344f4950 	strbcc	r4, [pc], #-2384	; 11a8 <shift+0x11a8>
    11a4:	6d6f435f 	stclvs	3, cr4, [pc, #-380]!	; 1030 <shift+0x1030>
    11a8:	656e6962 	strbvs	r6, [lr, #-2402]!	; 0xfffff69e
    11ac:	5f305f64 	svcpl	0x00305f64
    11b0:	495f3531 	ldmdbmi	pc, {r0, r4, r5, r8, sl, ip, sp}^	; <UNPREDICTABLE>
    11b4:	006e5152 	rsbeq	r5, lr, r2, asr r1
    11b8:	6174536b 	cmnvs	r4, fp, ror #6
    11bc:	47737574 			; <UNDEFINED> instruction: 0x47737574
    11c0:	70756f72 	rsbsvc	r6, r5, r2, ror pc
    11c4:	4944535f 	stmdbmi	r4, {r0, r1, r2, r3, r4, r6, r8, r9, ip, lr}^
    11c8:	79730046 	ldmdbvc	r3!, {r1, r2, r6}^
    11cc:	6d657473 	cfstrdvs	mvd7, [r5, #-460]!	; 0xfffffe34
    11d0:	7172695f 	cmnvc	r2, pc, asr r9
    11d4:	6c626174 	stfvse	f6, [r2], #-464	; 0xfffffe30
    11d8:	6e695f65 	cdpvs	15, 6, cr5, cr9, cr5, {3}
    11dc:	6b007469 	blvs	1e388 <shift+0x1e388>
    11e0:	74617453 	strbtvc	r7, [r1], #-1107	; 0xfffffbad
    11e4:	72477375 	subvc	r7, r7, #-738197503	; 0xd4000001
    11e8:	5f70756f 	svcpl	0x0070756f
    11ec:	53414c46 	movtpl	r4, #7238	; 0x1c46
    11f0:	52530048 	subspl	r0, r3, #72	; 0x48
    11f4:	6f435f43 	svcvs	0x00435f43
    11f8:	6e69626d 	cdpvs	2, 6, cr6, cr9, cr13, {3}
    11fc:	495f6465 	ldmdbmi	pc, {r0, r2, r5, r6, sl, sp, lr}^	; <UNPREDICTABLE>
    1200:	006e5152 	rsbeq	r5, lr, r2, asr r1
    1204:	6174536b 	cmnvs	r4, fp, ror #6
    1208:	47737574 			; <UNDEFINED> instruction: 0x47737574
    120c:	70756f72 	rsbsvc	r6, r5, r2, ror pc
    1210:	454c465f 	strbmi	r4, [ip, #-1631]	; 0xfffff9a1
    1214:	5f4f4958 	svcpl	0x004f4958
    1218:	00533249 	subseq	r3, r3, r9, asr #4
    121c:	74737973 	ldrbtvc	r7, [r3], #-2419	; 0xfffff68d
    1220:	695f6d65 	ldmdbvs	pc, {r0, r2, r5, r6, r8, sl, fp, sp, lr}^	; <UNPREDICTABLE>
    1224:	61687172 	smcvs	34578	; 0x8712
    1228:	656c646e 	strbvs	r6, [ip, #-1134]!	; 0xfffffb92
    122c:	6f530072 	svcvs	0x00530072
    1230:	61777466 	cmnvs	r7, r6, ror #8
    1234:	5f396572 	svcpl	0x00396572
    1238:	6e515249 	cdpvs	2, 5, cr5, cr1, cr9, {2}
    123c:	4d575000 	ldclmi	0, cr5, [r7, #-0]
    1240:	52495f35 	subpl	r5, r9, #53, 30	; 0xd4
    1244:	55006e51 	strpl	r6, [r0, #-3665]	; 0xfffff1af
    1248:	38545241 	ldmdacc	r4, {r0, r6, r9, ip, lr}^
    124c:	5152495f 	cmppl	r2, pc, asr r9
    1250:	5f43006e 	svcpl	0x0043006e
    1254:	30525041 	subscc	r5, r2, r1, asr #32
    1258:	42535500 	subsmi	r5, r3, #0, 10
    125c:	47544f5f 			; <UNDEFINED> instruction: 0x47544f5f
    1260:	52495f32 	subpl	r5, r9, #50, 30	; 0xc8
    1264:	6b006e51 	blvs	1cbb0 <shift+0x1cbb0>
    1268:	74617453 	strbtvc	r7, [r1], #-1107	; 0xfffffbad
    126c:	72477375 	subvc	r7, r7, #-738197503	; 0xd4000001
    1270:	5f70756f 	svcpl	0x0070756f
    1274:	52415549 	subpl	r5, r1, #306184192	; 0x12400000
    1278:	536b0054 	cmnpl	fp, #84	; 0x54
    127c:	75746174 	ldrbvc	r6, [r4, #-372]!	; 0xfffffe8c
    1280:	6f724773 	svcvs	0x00724773
    1284:	465f7075 			; <UNDEFINED> instruction: 0x465f7075
    1288:	4958454c 	ldmdbmi	r8, {r2, r3, r6, r8, sl, lr}^
    128c:	50535f4f 	subspl	r5, r3, pc, asr #30
    1290:	65520049 	ldrbvs	r0, [r2, #-73]	; 0xffffffb7
    1294:	76726573 			; <UNDEFINED> instruction: 0x76726573
    1298:	30316465 	eorscc	r6, r1, r5, ror #8
    129c:	52495f39 	subpl	r5, r9, #57, 30	; 0xe4
    12a0:	44006e51 	strmi	r6, [r0], #-3665	; 0xfffff1af
    12a4:	4950535f 	ldmdbmi	r0, {r0, r1, r2, r3, r4, r6, r8, r9, ip, lr}^
    12a8:	6b005253 	blvs	15bfc <shift+0x15bfc>
    12ac:	74617453 	strbtvc	r7, [r1], #-1107	; 0xfffffbad
    12b0:	72477375 	subvc	r7, r7, #-738197503	; 0xd4000001
    12b4:	5f70756f 	svcpl	0x0070756f
    12b8:	4d414143 	stfmie	f4, [r1, #-268]	; 0xfffffef4
    12bc:	73655200 	cmnvc	r5, #0, 4
    12c0:	65767265 	ldrbvs	r7, [r6, #-613]!	; 0xfffffd9b
    12c4:	36353164 	ldrtcc	r3, [r5], -r4, ror #2
    12c8:	5152495f 	cmppl	r2, pc, asr r9
    12cc:	5f44006e 	svcpl	0x0044006e
    12d0:	47464349 	strbmi	r4, [r6, -r9, asr #6]
    12d4:	72690052 	rsbvc	r0, r9, #82	; 0x52
    12d8:	6e614871 	mcrvs	8, 3, r4, cr1, cr1, {3}
    12dc:	72656c64 	rsbvc	r6, r5, #100, 24	; 0x6400
    12e0:	73797300 	cmnvc	r9, #0, 6
    12e4:	7172695f 	cmnvc	r2, pc, asr r9
    12e8:	6e61685f 	mcrvs	8, 3, r6, cr1, cr15, {2}
    12ec:	5f656c64 	svcpl	0x00656c64
    12f0:	41530074 	cmpmi	r3, r4, ror r0
    12f4:	545f3349 	ldrbpl	r3, [pc], #-841	; 12fc <shift+0x12fc>
    12f8:	52495f58 	subpl	r5, r9, #88, 30	; 0x160
    12fc:	65006e51 	strvs	r6, [r0, #-3665]	; 0xfffff1af
    1300:	49505343 	ldmdbmi	r0, {r0, r1, r6, r8, r9, ip, lr}^
    1304:	52495f33 	subpl	r5, r9, #51, 30	; 0xcc
    1308:	73006e51 	movwvc	r6, #3665	; 0xe51
    130c:	72497379 	subvc	r7, r9, #-469762047	; 0xe4000001
    1310:	6e614871 	mcrvs	8, 3, r4, cr1, cr1, {3}
    1314:	73656c64 	cmnvc	r5, #100, 24	; 0x6400
    1318:	74536b00 	ldrbvc	r6, [r3], #-2816	; 0xfffff500
    131c:	73757461 	cmnvc	r5, #1627389952	; 0x61000000
    1320:	756f7247 	strbvc	r7, [pc, #-583]!	; 10e1 <shift+0x10e1>
    1324:	50535f70 	subspl	r5, r3, r0, ror pc
    1328:	44410049 	strbmi	r0, [r1], #-73	; 0xffffffb7
    132c:	48355f43 	ldmdami	r5!, {r0, r1, r6, r8, r9, sl, fp, ip, lr}
    1330:	52495f43 	subpl	r5, r9, #268	; 0x10c
    1334:	6b006e51 	blvs	1cc80 <shift+0x1cc80>
    1338:	74617453 	strbtvc	r7, [r1], #-1107	; 0xfffffbad
    133c:	72477375 	subvc	r7, r7, #-738197503	; 0xd4000001
    1340:	5f70756f 	svcpl	0x0070756f
    1344:	4d475254 	sfmmi	f5, 2, [r7, #-336]	; 0xfffffeb0
    1348:	6b005855 	blvs	174a4 <shift+0x174a4>
    134c:	74617453 	strbtvc	r7, [r1], #-1107	; 0xfffffbad
    1350:	72477375 	subvc	r7, r7, #-738197503	; 0xd4000001
    1354:	5f70756f 	svcpl	0x0070756f
    1358:	6c707041 	ldclvs	0, cr7, [r0], #-260	; 0xfffffefc
    135c:	74616369 	strbtvc	r6, [r1], #-873	; 0xfffffc97
    1360:	526e6f69 	rsbpl	r6, lr, #420	; 0x1a4
    1364:	65676e61 	strbvs	r6, [r7, #-3681]!	; 0xfffff19f
    1368:	72617453 	rsbvc	r7, r1, #1392508928	; 0x53000000
    136c:	41430074 	hvcmi	12292	; 0x3004
    1370:	4a5f4d41 	bmi	17d487c <shift+0x17d487c>
    1374:	525f626f 	subspl	r6, pc, #-268435450	; 0xf0000006
    1378:	31676e69 	cmncc	r7, r9, ror #28
    137c:	5152495f 	cmppl	r2, pc, asr r9
    1380:	4552006e 	ldrbmi	r0, [r2, #-110]	; 0xffffff92
    1384:	56524553 			; <UNDEFINED> instruction: 0x56524553
    1388:	00304445 	eorseq	r4, r0, r5, asr #8
    138c:	45534552 	ldrbmi	r4, [r3, #-1362]	; 0xfffffaae
    1390:	44455652 	strbmi	r5, [r5], #-1618	; 0xfffff9ae
    1394:	735f0031 	cmpvc	pc, #49	; 0x31
    1398:	75746174 	ldrbvc	r6, [r4, #-372]!	; 0xfffffe8c
    139c:	72675f73 	rsbvc	r5, r7, #460	; 0x1cc
    13a0:	7370756f 	cmnvc	r0, #465567744	; 0x1bc00000
    13a4:	53455200 	movtpl	r5, #20992	; 0x5200
    13a8:	45565245 	ldrbmi	r5, [r6, #-581]	; 0xfffffdbb
    13ac:	52003344 	andpl	r3, r0, #68, 6	; 0x10000001
    13b0:	52455345 	subpl	r5, r5, #335544321	; 0x14000001
    13b4:	34444556 	strbcc	r4, [r4], #-1366	; 0xfffffaaa
    13b8:	53455200 	movtpl	r5, #20992	; 0x5200
    13bc:	45565245 	ldrbmi	r5, [r6, #-581]	; 0xfffffdbb
    13c0:	6b003544 	blvs	e8d8 <shift+0xe8d8>
    13c4:	74617453 	strbtvc	r7, [r1], #-1107	; 0xfffffbad
    13c8:	72477375 	subvc	r7, r7, #-738197503	; 0xd4000001
    13cc:	5f70756f 	svcpl	0x0070756f
    13d0:	4155504c 	cmpmi	r5, ip, asr #32
    13d4:	52005452 	andpl	r5, r0, #1375731712	; 0x52000000
    13d8:	52455345 	subpl	r5, r5, #335544321	; 0x14000001
    13dc:	37444556 	smlsldcc	r4, r4, r6, r5	; <UNPREDICTABLE>
    13e0:	505f4400 	subspl	r4, pc, r0, lsl #8
    13e4:	52534950 	subspl	r4, r3, #80, 18	; 0x140000
    13e8:	53455200 	movtpl	r5, #20992	; 0x5200
    13ec:	45565245 	ldrbmi	r5, [r6, #-581]	; 0xfffffdbb
    13f0:	6b003944 	blvs	f908 <shift+0xf908>
    13f4:	74617453 	strbtvc	r7, [r1], #-1107	; 0xfffffbad
    13f8:	72477375 	subvc	r7, r7, #-738197503	; 0xd4000001
    13fc:	5f70756f 	svcpl	0x0070756f
    1400:	46495053 			; <UNDEFINED> instruction: 0x46495053
    1404:	536b0049 	cmnpl	fp, #73	; 0x49
    1408:	75746174 	ldrbvc	r6, [r4, #-372]!	; 0xfffffe8c
    140c:	6f724773 	svcvs	0x00724773
    1410:	585f7075 	ldmdapl	pc, {r0, r2, r4, r5, r6, ip, sp, lr}^	; <UNPREDICTABLE>
    1414:	00434452 	subeq	r4, r3, r2, asr r4
    1418:	74666f53 	strbtvc	r6, [r6], #-3923	; 0xfffff0ad
    141c:	65726177 	ldrbvs	r6, [r2, #-375]!	; 0xfffffe89
    1420:	495f3431 	ldmdbmi	pc, {r0, r4, r5, sl, ip, sp}^	; <UNPREDICTABLE>
    1424:	006e5152 	rsbeq	r5, lr, r2, asr r1
    1428:	4f495047 	svcmi	0x00495047
    142c:	6f435f35 	svcvs	0x00435f35
    1430:	6e69626d 	cdpvs	2, 6, cr6, cr9, cr13, {3}
    1434:	315f6465 	cmpcc	pc, r5, ror #8
    1438:	31335f36 	teqcc	r3, r6, lsr pc
    143c:	5152495f 	cmppl	r2, pc, asr r9
    1440:	536b006e 	cmnpl	fp, #110	; 0x6e
    1444:	75746174 	ldrbvc	r6, [r4, #-372]!	; 0xfffffe8c
    1448:	6f724773 	svcvs	0x00724773
    144c:	465f7075 			; <UNDEFINED> instruction: 0x465f7075
    1450:	4958454c 	ldmdbmi	r8, {r2, r3, r6, r8, sl, lr}^
    1454:	32495f4f 	subcc	r5, r9, #316	; 0x13c
    1458:	536b0043 	cmnpl	fp, #67	; 0x43
    145c:	75746174 	ldrbvc	r6, [r4, #-372]!	; 0xfffffe8c
    1460:	6f724773 	svcvs	0x00724773
    1464:	455f7075 	ldrbmi	r7, [pc, #-117]	; 13f7 <shift+0x13f7>
    1468:	49505343 	ldmdbmi	r0, {r0, r1, r6, r8, r9, ip, lr}^
    146c:	52415500 	subpl	r5, r1, #0, 10
    1470:	495f3554 	ldmdbmi	pc, {r2, r4, r6, r8, sl, ip, sp}^	; <UNPREDICTABLE>
    1474:	006e5152 	rsbeq	r5, lr, r2, asr r1
    1478:	53564e53 	cmppl	r6, #1328	; 0x530
    147c:	6365535f 	cmnvs	r5, #2080374785	; 0x7c000001
    1480:	74697275 	strbtvc	r7, [r9], #-629	; 0xfffffd8b
    1484:	52495f79 	subpl	r5, r9, #484	; 0x1e4
    1488:	50006e51 	andpl	r6, r0, r1, asr lr
    148c:	5f324d57 	svcpl	0x00324d57
    1490:	6e515249 	cdpvs	2, 5, cr5, cr1, cr9, {2}
    1494:	666f5300 	strbtvs	r5, [pc], -r0, lsl #6
    1498:	72617774 	rsbvc	r7, r1, #116, 14	; 0x1d00000
    149c:	495f3165 	ldmdbmi	pc, {r0, r2, r5, r6, r8, ip, sp}^	; <UNPREDICTABLE>
    14a0:	006e5152 	rsbeq	r5, lr, r2, asr r1
    14a4:	6174536b 	cmnvs	r4, fp, ror #6
    14a8:	47737574 			; <UNDEFINED> instruction: 0x47737574
    14ac:	70756f72 	rsbsvc	r6, r5, r2, ror pc
    14b0:	4332495f 	teqmi	r2, #1556480	; 0x17c000
    14b4:	495f4300 	ldmdbmi	pc, {r8, r9, lr}^	; <UNPREDICTABLE>
    14b8:	43005241 	movwmi	r5, #577	; 0x241
    14bc:	4f45415f 	svcmi	0x0045415f
    14c0:	6b005249 	blvs	15dec <shift+0x15dec>
    14c4:	74617453 	strbtvc	r7, [r1], #-1107	; 0xfffffbad
    14c8:	72477375 	subvc	r7, r7, #-738197503	; 0xd4000001
    14cc:	5f70756f 	svcpl	0x0070756f
    14d0:	00533249 	subseq	r3, r3, r9, asr #4
    14d4:	534e5f43 	movtpl	r5, #61251	; 0xef43
    14d8:	30525041 	subscc	r5, r2, r1, asr #32
    14dc:	74536b00 	ldrbvc	r6, [r3], #-2816	; 0xfffff500
    14e0:	73757461 	cmnvc	r5, #1627389952	; 0x61000000
    14e4:	756f7247 	strbvc	r7, [pc, #-583]!	; 12a5 <shift+0x12a5>
    14e8:	4c465f70 	mcrrmi	15, 7, r5, r6, cr0
    14ec:	49485341 	stmdbmi	r8, {r0, r6, r8, r9, ip, lr}^
    14f0:	53005041 	movwpl	r5, #65	; 0x41
    14f4:	5f525443 	svcpl	0x00525443
    14f8:	30515249 	subscc	r5, r1, r9, asr #4
    14fc:	5152495f 	cmppl	r2, pc, asr r9
    1500:	536b006e 	cmnpl	fp, #110	; 0x6e
    1504:	75746174 	ldrbvc	r6, [r4, #-372]!	; 0xfffffe8c
    1508:	6f724773 	svcvs	0x00724773
    150c:	465f7075 			; <UNDEFINED> instruction: 0x465f7075
    1510:	5358454c 	cmppl	r8, #76, 10	; 0x13000000
    1514:	6b004950 	blvs	13a5c <shift+0x13a5c>
    1518:	74617453 	strbtvc	r7, [r1], #-1107	; 0xfffffbad
    151c:	72477375 	subvc	r7, r7, #-738197503	; 0xd4000001
    1520:	5f70756f 	svcpl	0x0070756f
    1524:	5053504c 	subspl	r5, r3, ip, asr #32
    1528:	5f440049 	svcpl	0x00440049
    152c:	4f524749 	svcmi	0x00524749
    1530:	00525055 	subseq	r5, r2, r5, asr r0
    1534:	6174536b 	cmnvs	r4, fp, ror #6
    1538:	47737574 			; <UNDEFINED> instruction: 0x47737574
    153c:	70756f72 	rsbsvc	r6, r5, r2, ror pc
    1540:	454c465f 	strbmi	r4, [ip, #-1631]	; 0xfffff9a1
    1544:	4d4f4358 	stclmi	3, cr4, [pc, #-352]	; 13ec <shift+0x13ec>
    1548:	32495f4d 	subcc	r5, r9, #308	; 0x134
    154c:	536b0043 	cmnpl	fp, #67	; 0x43
    1550:	75746174 	ldrbvc	r6, [r4, #-372]!	; 0xfffffe8c
    1554:	6f724773 	svcvs	0x00724773
    1558:	445f7075 	ldrbmi	r7, [pc], #-117	; 1560 <shift+0x1560>
    155c:	67756265 	ldrbvs	r6, [r5, -r5, ror #4]!
    1560:	736e6f43 	cmnvc	lr, #268	; 0x10c
    1564:	00656c6f 	rsbeq	r6, r5, pc, ror #24
    1568:	49415f43 	stmdbmi	r1, {r0, r1, r6, r8, r9, sl, fp, ip, lr}^
    156c:	6b005241 	blvs	15e78 <shift+0x15e78>
    1570:	74617453 	strbtvc	r7, [r1], #-1107	; 0xfffffbad
    1574:	72477375 	subvc	r7, r7, #-738197503	; 0xd4000001
    1578:	5f70756f 	svcpl	0x0070756f
    157c:	4643494d 	strbmi	r4, [r3], -sp, asr #18
    1580:	6b004c49 	blvs	146ac <shift+0x146ac>
    1584:	74617453 	strbtvc	r7, [r1], #-1107	; 0xfffffbad
    1588:	72477375 	subvc	r7, r7, #-738197503	; 0xd4000001
    158c:	5f70756f 	svcpl	0x0070756f
    1590:	414d4445 	cmpmi	sp, r5, asr #8
    1594:	50504b00 	subspl	r4, r0, r0, lsl #22
    1598:	5152495f 	cmppl	r2, pc, asr r9
    159c:	536b006e 	cmnpl	fp, #110	; 0x6e
    15a0:	75746174 	ldrbvc	r6, [r4, #-372]!	; 0xfffffe8c
    15a4:	6f724773 	svcvs	0x00724773
    15a8:	4c5f7075 	mrrcmi	0, 7, r7, pc, cr5	; <UNPREDICTABLE>
    15ac:	555f4350 	ldrbpl	r4, [pc, #-848]	; 1264 <shift+0x1264>
    15b0:	54524153 	ldrbpl	r4, [r2], #-339	; 0xfffffead
    15b4:	495f4400 	ldmdbmi	pc, {sl, lr}^	; <UNPREDICTABLE>
    15b8:	414e4543 	cmpmi	lr, r3, asr #10
    15bc:	52454c42 	subpl	r4, r5, #16896	; 0x4200
    15c0:	495f4400 	ldmdbmi	pc, {sl, lr}^	; <UNPREDICTABLE>
    15c4:	4e455043 	cdpmi	0, 4, cr5, cr5, cr3, {2}
    15c8:	50005244 	andpl	r5, r0, r4, asr #4
    15cc:	5f374d57 	svcpl	0x00374d57
    15d0:	6e515249 	cdpvs	2, 5, cr5, cr1, cr9, {2}
    15d4:	73655200 	cmnvc	r5, #0, 4
    15d8:	65767265 	ldrbvs	r7, [r6, #-613]!	; 0xfffffd9b
    15dc:	34323164 	ldrtcc	r3, [r2], #-356	; 0xfffffe9c
    15e0:	5152495f 	cmppl	r2, pc, asr r9
    15e4:	5047006e 	subpl	r0, r7, lr, rrx
    15e8:	5f324f49 	svcpl	0x00324f49
    15ec:	626d6f43 	rsbvs	r6, sp, #268	; 0x10c
    15f0:	64656e69 	strbtvs	r6, [r5], #-3689	; 0xfffff197
    15f4:	5f36315f 	svcpl	0x0036315f
    15f8:	495f3133 	ldmdbmi	pc, {r0, r1, r4, r5, r8, ip, sp}^	; <UNPREDICTABLE>
    15fc:	006e5152 	rsbeq	r5, lr, r2, asr r1
    1600:	5f504144 	svcpl	0x00504144
    1604:	6e515249 	cdpvs	2, 5, cr5, cr1, cr9, {2}
    1608:	57415200 	strbpl	r5, [r1, -r0, lsl #4]
    160c:	444e414e 	strbmi	r4, [lr], #-334	; 0xfffffeb2
    1610:	4d50475f 	ldclmi	7, cr4, [r0, #-380]	; 0xfffffe84
    1614:	52495f49 	subpl	r5, r9, #292	; 0x124
    1618:	53006e51 	movwpl	r6, #3665	; 0xe51
    161c:	5f414d44 	svcpl	0x00414d44
    1620:	6e515249 	cdpvs	2, 5, cr5, cr1, cr9, {2}
    1624:	666f5300 	strbtvs	r5, [pc], -r0, lsl #6
    1628:	72617774 	rsbvc	r7, r1, #116, 14	; 0x1d00000
    162c:	495f3665 	ldmdbmi	pc, {r0, r2, r5, r6, r9, sl, ip, sp}^	; <UNPREDICTABLE>
    1630:	006e5152 	rsbeq	r5, lr, r2, asr r1
    1634:	324e4143 	subcc	r4, lr, #-1073741808	; 0xc0000010
    1638:	5152495f 	cmppl	r2, pc, asr r9
    163c:	536b006e 	cmnpl	fp, #110	; 0x6e
    1640:	75746174 	ldrbvc	r6, [r4, #-372]!	; 0xfffffe8c
    1644:	6f724773 	svcvs	0x00724773
    1648:	535f7075 	cmppl	pc, #117	; 0x75
    164c:	43004743 	movwmi	r4, #1859	; 0x743
    1650:	495f4d43 	ldmdbmi	pc, {r0, r1, r6, r8, sl, fp, lr}^	; <UNPREDICTABLE>
    1654:	5f315152 	svcpl	0x00315152
    1658:	6e515249 	cdpvs	2, 5, cr5, cr1, cr9, {2}
    165c:	74536b00 	ldrbvc	r6, [r3], #-2816	; 0xfffff500
    1660:	73757461 	cmnvc	r5, #1627389952	; 0x61000000
    1664:	756f7247 	strbvc	r7, [pc, #-583]!	; 1425 <shift+0x1425>
    1668:	44535f70 	ldrbmi	r5, [r3], #-3952	; 0xfffff090
    166c:	00434d4d 	subeq	r4, r3, sp, asr #26
    1670:	6174536b 	cmnvs	r4, fp, ror #6
    1674:	47737574 			; <UNDEFINED> instruction: 0x47737574
    1678:	70756f72 	rsbsvc	r6, r5, r2, ror pc
    167c:	49504c5f 	ldmdbmi	r0, {r0, r1, r2, r3, r4, r6, sl, fp, lr}^
    1680:	52004332 	andpl	r4, r0, #-939524096	; 0xc8000000
    1684:	72657365 	rsbvc	r7, r5, #-1811939327	; 0x94000001
    1688:	31646576 	smccc	18006	; 0x4656
    168c:	495f3031 	ldmdbmi	pc, {r0, r4, r5, ip, sp}^	; <UNPREDICTABLE>
    1690:	006e5152 	rsbeq	r5, lr, r2, asr r1
    1694:	5f555043 	svcpl	0x00555043
    1698:	5f495443 	svcpl	0x00495443
    169c:	67697254 			; <UNDEFINED> instruction: 0x67697254
    16a0:	5f726567 	svcpl	0x00726567
    16a4:	6e515249 	cdpvs	2, 5, cr5, cr1, cr9, {2}
    16a8:	73655200 	cmnvc	r5, #0, 4
    16ac:	65767265 	ldrbvs	r7, [r6, #-613]!	; 0xfffffd9b
    16b0:	38353164 	ldmdacc	r5!, {r2, r5, r6, r8, ip, sp}
    16b4:	5152495f 	cmppl	r2, pc, asr r9
    16b8:	7973006e 	ldmdbvc	r3!, {r1, r2, r3, r5, r6}^
    16bc:	6d657473 	cfstrdvs	mvd7, [r5, #-460]!	; 0xfffffe34
    16c0:	7172695f 	cmnvc	r2, pc, asr r9
    16c4:	6e61685f 	mcrvs	8, 3, r6, cr1, cr15, {2}
    16c8:	72656c64 	rsbvc	r6, r5, #100, 24	; 0x6400
    16cc:	6700745f 	smlsdvs	r0, pc, r4, r7	; <UNPREDICTABLE>
    16d0:	5f636369 	svcpl	0x00636369
    16d4:	00726169 	rsbseq	r6, r2, r9, ror #2
    16d8:	31494153 	cmpcc	r9, r3, asr r1
    16dc:	5152495f 	cmppl	r2, pc, asr r9
    16e0:	536b006e 	cmnpl	fp, #110	; 0x6e
    16e4:	75746174 	ldrbvc	r6, [r4, #-372]!	; 0xfffffe8c
    16e8:	6f724773 	svcvs	0x00724773
    16ec:	535f7075 	cmppl	pc, #117	; 0x75
    16f0:	00414d44 	subeq	r4, r1, r4, asr #26
    16f4:	54454e45 	strbpl	r4, [r5], #-3653	; 0xfffff1bb
    16f8:	52495f31 	subpl	r5, r9, #49, 30	; 0xc4
    16fc:	6b006e51 	blvs	1d048 <shift+0x1d048>
    1700:	74617453 	strbtvc	r7, [r1], #-1107	; 0xfffffbad
    1704:	72477375 	subvc	r7, r7, #-738197503	; 0xd4000001
    1708:	5f70756f 	svcpl	0x0070756f
    170c:	52414d53 	subpl	r4, r1, #5312	; 0x14c0
    1710:	52414354 	subpl	r4, r1, #84, 6	; 0x50000001
    1714:	536b0044 	cmnpl	fp, #68	; 0x44
    1718:	75746174 	ldrbvc	r6, [r4, #-372]!	; 0xfffffe8c
    171c:	6f724773 	svcvs	0x00724773
    1720:	4c5f7075 	mrrcmi	0, 7, r7, pc, cr5	; <UNPREDICTABLE>
    1724:	004d454d 	subeq	r4, sp, sp, asr #10
    1728:	54495f44 	strbpl	r5, [r9], #-3908	; 0xfffff0bc
    172c:	45475241 	strbmi	r5, [r7, #-577]	; 0xfffffdbf
    1730:	00525354 	subseq	r5, r2, r4, asr r3
    1734:	50435f44 	subpl	r5, r3, r4, asr #30
    1738:	53444e45 	movtpl	r4, #20037	; 0x4e45
    173c:	00524947 	subseq	r4, r2, r7, asr #18
    1740:	4f495047 	svcmi	0x00495047
    1744:	6f435f32 	svcvs	0x00435f32
    1748:	6e69626d 	cdpvs	2, 6, cr6, cr9, cr13, {3}
    174c:	305f6465 	subscc	r6, pc, r5, ror #8
    1750:	5f35315f 	svcpl	0x0035315f
    1754:	6e515249 	cdpvs	2, 5, cr5, cr1, cr9, {2}
    1758:	53455200 	movtpl	r5, #20992	; 0x5200
    175c:	45565245 	ldrbmi	r5, [r6, #-581]	; 0xfffffdbb
    1760:	00303144 	eorseq	r3, r0, r4, asr #2
    1764:	45534552 	ldrbmi	r4, [r3, #-1362]	; 0xfffffaae
    1768:	44455652 	strbmi	r5, [r5], #-1618	; 0xfffff9ae
    176c:	52003131 	andpl	r3, r0, #1073741836	; 0x4000000c
    1770:	52455345 	subpl	r5, r5, #335544321	; 0x14000001
    1774:	31444556 	cmpcc	r4, r6, asr r5
    1778:	45520032 	ldrbmi	r0, [r2, #-50]	; 0xffffffce
    177c:	56524553 			; <UNDEFINED> instruction: 0x56524553
    1780:	33314445 	teqcc	r1, #1157627904	; 0x45000000
    1784:	53455200 	movtpl	r5, #20992	; 0x5200
    1788:	45565245 	ldrbmi	r5, [r6, #-581]	; 0xfffffdbb
    178c:	00343144 	eorseq	r3, r4, r4, asr #2
    1790:	45534552 	ldrbmi	r4, [r3, #-1362]	; 0xfffffaae
    1794:	44455652 	strbmi	r5, [r5], #-1618	; 0xfffff9ae
    1798:	52003531 	andpl	r3, r0, #205520896	; 0xc400000
    179c:	52455345 	subpl	r5, r5, #335544321	; 0x14000001
    17a0:	31444556 	cmpcc	r4, r6, asr r5
    17a4:	45520036 	ldrbmi	r0, [r2, #-54]	; 0xffffffca
    17a8:	56524553 			; <UNDEFINED> instruction: 0x56524553
    17ac:	37314445 	ldrcc	r4, [r1, -r5, asr #8]!
    17b0:	53455200 	movtpl	r5, #20992	; 0x5200
    17b4:	45565245 	ldrbmi	r5, [r6, #-581]	; 0xfffffdbb
    17b8:	00383144 	eorseq	r3, r8, r4, asr #2
    17bc:	4f495047 	svcmi	0x00495047
    17c0:	4e495f31 	mcrmi	15, 2, r5, cr9, cr1, {1}
    17c4:	495f3654 	ldmdbmi	pc, {r2, r4, r6, r9, sl, ip, sp}^	; <UNPREDICTABLE>
    17c8:	006e5152 	rsbeq	r5, lr, r2, asr r1
    17cc:	74666f53 	strbtvc	r6, [r6], #-3923	; 0xfffff0ad
    17d0:	65726177 	ldrbvs	r6, [r2, #-375]!	; 0xfffffe89
    17d4:	495f3131 	ldmdbmi	pc, {r0, r4, r5, r8, ip, sp}^	; <UNPREDICTABLE>
    17d8:	006e5152 	rsbeq	r5, lr, r2, asr r1
    17dc:	54524155 	ldrbpl	r4, [r2], #-341	; 0xfffffeab
    17e0:	52495f32 	subpl	r5, r9, #50, 30	; 0xc8
    17e4:	76006e51 			; <UNDEFINED> instruction: 0x76006e51
    17e8:	00726162 	rsbseq	r6, r2, r2, ror #2
    17ec:	6174536b 	cmnvs	r4, fp, ror #6
    17f0:	47737574 			; <UNDEFINED> instruction: 0x47737574
    17f4:	70756f72 	rsbsvc	r6, r5, r2, ror pc
    17f8:	53504c5f 	cmppl	r0, #24320	; 0x5f00
    17fc:	47004943 	strmi	r4, [r0, -r3, asr #18]
    1800:	5f315450 	svcpl	0x00315450
    1804:	6e515249 	cdpvs	2, 5, cr5, cr1, cr9, {2}
    1808:	73655200 	cmnvc	r5, #0, 4
    180c:	65767265 	ldrbvs	r7, [r6, #-613]!	; 0xfffffd9b
    1810:	34343164 	ldrtcc	r3, [r4], #-356	; 0xfffffe9c
    1814:	5152495f 	cmppl	r2, pc, asr r9
    1818:	5355006e 	cmppl	r5, #110	; 0x6e
    181c:	48505f42 	ldmdami	r0, {r1, r6, r8, r9, sl, fp, ip, lr}^
    1820:	495f3259 	ldmdbmi	pc, {r0, r3, r4, r6, r9, ip, sp}^	; <UNPREDICTABLE>
    1824:	006e5152 	rsbeq	r5, lr, r2, asr r1
    1828:	50425f43 	subpl	r5, r2, r3, asr #30
    182c:	536b0052 	cmnpl	fp, #82	; 0x52
    1830:	75746174 	ldrbvc	r6, [r4, #-372]!	; 0xfffffe8c
    1834:	6f724773 	svcvs	0x00724773
    1838:	455f7075 	ldrbmi	r7, [pc, #-117]	; 17cb <shift+0x17cb>
    183c:	00494153 	subeq	r4, r9, r3, asr r1
    1840:	4f495047 	svcmi	0x00495047
    1844:	6f435f35 	svcvs	0x00435f35
    1848:	6e69626d 	cdpvs	2, 6, cr6, cr9, cr13, {3}
    184c:	305f6465 	subscc	r6, pc, r5, ror #8
    1850:	5f35315f 	svcpl	0x0035315f
    1854:	6e515249 	cdpvs	2, 5, cr5, cr1, cr9, {2}
    1858:	71726900 	cmnvc	r2, r0, lsl #18
    185c:	73676552 	cmnvc	r7, #343932928	; 0x14800000
    1860:	49504700 	ldmdbmi	r0, {r8, r9, sl, lr}^
    1864:	495f314f 	ldmdbmi	pc, {r0, r1, r2, r3, r6, r8, ip, sp}^	; <UNPREDICTABLE>
    1868:	5f31544e 	svcpl	0x0031544e
    186c:	6e515249 	cdpvs	2, 5, cr5, cr1, cr9, {2}
    1870:	4f445700 	svcmi	0x00445700
    1874:	495f3247 	ldmdbmi	pc, {r0, r1, r2, r6, r9, ip, sp}^	; <UNPREDICTABLE>
    1878:	006e5152 	rsbeq	r5, lr, r2, asr r1
    187c:	50495f44 	subpl	r5, r9, r4, asr #30
    1880:	524f4952 	subpl	r4, pc, #1343488	; 0x148000
    1884:	52595449 	subspl	r5, r9, #1224736768	; 0x49000000
    1888:	74536b00 	ldrbvc	r6, [r3], #-2816	; 0xfffff500
    188c:	73757461 	cmnvc	r5, #1627389952	; 0x61000000
    1890:	756f7247 	strbvc	r7, [pc, #-583]!	; 1651 <shift+0x1651>
    1894:	48505f70 	ldmdami	r0, {r4, r5, r6, r8, r9, sl, fp, ip, lr}^
    1898:	65640059 	strbvs	r0, [r4, #-89]!	; 0xffffffa7
    189c:	6c756166 	ldfvse	f6, [r5], #-408	; 0xfffffe68
    18a0:	72695f74 	rsbvc	r5, r9, #116, 30	; 0x1d0
    18a4:	6e616871 	mcrvs	8, 3, r6, cr1, cr1, {3}
    18a8:	72656c64 	rsbvc	r6, r5, #100, 24	; 0x6400
    18ac:	554d5000 	strbpl	r5, [sp, #-0]
    18b0:	5152495f 	cmppl	r2, pc, asr r9
    18b4:	52495f32 	subpl	r5, r9, #50, 30	; 0xc8
    18b8:	53006e51 	movwpl	r6, #3665	; 0xe51
    18bc:	7774666f 	ldrbvc	r6, [r4, -pc, ror #12]!
    18c0:	38657261 	stmdacc	r5!, {r0, r5, r6, r9, ip, sp, lr}^
    18c4:	5152495f 	cmppl	r2, pc, asr r9
    18c8:	5f43006e 	svcpl	0x0043006e
    18cc:	52504241 	subspl	r4, r0, #268435460	; 0x10000004
    18d0:	4d575000 	ldclmi	0, cr5, [r7, #-0]
    18d4:	52495f34 	subpl	r5, r9, #52, 30	; 0xd0
    18d8:	73006e51 	movwvc	r6, #3665	; 0xe51
    18dc:	65747379 	ldrbvs	r7, [r4, #-889]!	; 0xfffffc87
    18e0:	65725f6d 	ldrbvs	r5, [r2, #-3949]!	; 0xfffff093
    18e4:	74736967 	ldrbtvc	r6, [r3], #-2407	; 0xfffff699
    18e8:	695f7265 	ldmdbvs	pc, {r0, r2, r5, r6, r9, ip, sp, lr}^	; <UNPREDICTABLE>
    18ec:	61687172 	smcvs	34578	; 0x8712
    18f0:	656c646e 	strbvs	r6, [ip, #-1134]!	; 0xfffffb92
    18f4:	5f430072 	svcpl	0x00430072
    18f8:	52494f45 	subpl	r4, r9, #276	; 0x114
    18fc:	52415500 	subpl	r5, r1, #0, 10
    1900:	495f3754 	ldmdbmi	pc, {r2, r4, r6, r8, r9, sl, ip, sp}^	; <UNPREDICTABLE>
    1904:	006e5152 	rsbeq	r5, lr, r2, asr r1
    1908:	54435f44 	strbpl	r5, [r3], #-3908	; 0xfffff0bc
    190c:	5300524c 	movwpl	r5, #588	; 0x24c
    1910:	7774666f 	ldrbvc	r6, [r4, -pc, ror #12]!
    1914:	33657261 	cmncc	r5, #268435462	; 0x10000006
    1918:	5152495f 	cmppl	r2, pc, asr r9
    191c:	5f5f006e 	svcpl	0x005f006e
    1920:	00747364 	rsbseq	r7, r4, r4, ror #6
    1924:	54435f43 	strbpl	r5, [r3], #-3907	; 0xfffff0bd
    1928:	5200524c 	andpl	r5, r0, #76, 4	; 0xc0000004
    192c:	72657365 	rsbvc	r7, r5, #-1811939327	; 0x94000001
    1930:	31646576 	smccc	18006	; 0x4656
    1934:	495f3535 	ldmdbmi	pc, {r0, r2, r4, r5, r8, sl, ip, sp}^	; <UNPREDICTABLE>
    1938:	006e5152 	rsbeq	r5, lr, r2, asr r1
    193c:	6e695f5f 	mcrvs	15, 3, r5, cr9, cr15, {2}
    1940:	5f323374 	svcpl	0x00323374
    1944:	70670074 	rsbvc	r0, r7, r4, ror r0
    1948:	5f316f69 	svcpl	0x00316f69
    194c:	36316f69 	ldrtcc	r6, [r1], -r9, ror #30
    1950:	336f695f 	cmncc	pc, #1556480	; 0x17c000
    1954:	72695f31 	rsbvc	r5, r9, #49, 30	; 0xc4
    1958:	6e616871 	mcrvs	8, 3, r6, cr1, cr1, {3}
    195c:	72656c64 	rsbvc	r6, r5, #100, 24	; 0x6400
    1960:	43494700 	movtmi	r4, #38656	; 0x9700
    1964:	616e455f 	cmnvs	lr, pc, asr r5
    1968:	49656c62 	stmdbmi	r5!, {r1, r5, r6, sl, fp, sp, lr}^
    196c:	62005152 	andvs	r5, r0, #-2147483628	; 0x80000014
    1970:	652f7073 	strvs	r7, [pc, #-115]!	; 1905 <shift+0x1905>
    1974:	2f697478 	svccs	0x00697478
    1978:	5f707362 	svcpl	0x00707362
    197c:	69747865 	ldmdbvs	r4!, {r0, r2, r5, r6, fp, ip, sp, lr}^
    1980:	6500632e 	strvs	r6, [r0, #-814]	; 0xfffffcd2
    1984:	5f697478 	svcpl	0x00697478
    1988:	74696e69 	strbtvc	r6, [r9], #-3689	; 0xfffff197
    198c:	61726600 	cmnvs	r2, r0, lsl #12
    1990:	50450063 	subpl	r0, r5, r3, rrx
    1994:	545f5449 	ldrbpl	r5, [pc], #-1097	; 199c <shift+0x199c>
    1998:	00657079 	rsbeq	r7, r5, r9, ror r0
    199c:	63636967 	cmnvs	r3, #1687552	; 0x19c000
    19a0:	00726149 	rsbseq	r6, r2, r9, asr #2
    19a4:	656d6974 	strbvs	r6, [sp, #-2420]!	; 0xfffff68c
    19a8:	72695f72 	rsbvc	r5, r9, #456	; 0x1c8
    19ac:	6e616871 	mcrvs	8, 3, r6, cr1, cr1, {3}
    19b0:	72656c64 	rsbvc	r6, r5, #100, 24	; 0x6400
    19b4:	69706500 	ldmdbvs	r0!, {r8, sl, sp, lr}^
    19b8:	6e695f74 	mcrvs	15, 3, r5, cr9, cr4, {3}
    19bc:	43007469 	movwmi	r7, #1129	; 0x469
    19c0:	0052504d 	subseq	r5, r2, sp, asr #32
    19c4:	2f707362 	svccs	0x00707362
    19c8:	74697065 	strbtvc	r7, [r9], #-101	; 0xffffff9b
    19cc:	7073622f 	rsbsvc	r6, r3, pc, lsr #4
    19d0:	6970655f 	ldmdbvs	r0!, {r0, r1, r2, r3, r4, r6, r8, sl, sp, lr}^
    19d4:	00632e74 	rsbeq	r2, r3, r4, ror lr
    19d8:	656d6974 	strbvs	r6, [sp, #-2420]!	; 0xfffff68c
    19dc:	74735f72 	ldrbtvc	r5, [r3], #-3954	; 0xfffff08e
    19e0:	6200706f 	andvs	r7, r0, #111	; 0x6f
    19e4:	6b2f7073 	blvs	bddbb8 <shift+0xbddbb8>
    19e8:	665f7965 	ldrbvs	r7, [pc], -r5, ror #18
    19ec:	65746c69 	ldrbvs	r6, [r4, #-3177]!	; 0xfffff397
    19f0:	73622f72 	cmnvc	r2, #456	; 0x1c8
    19f4:	656b5f70 	strbvs	r5, [fp, #-3952]!	; 0xfffff090
    19f8:	69665f79 	stmdbvs	r6!, {r0, r3, r4, r5, r6, r8, r9, sl, fp, ip, lr}^
    19fc:	7265746c 	rsbvc	r7, r5, #108, 8	; 0x6c000000
    1a00:	7400632e 	strvc	r6, [r0], #-814	; 0xfffffcd2
    1a04:	72656d69 	rsbvc	r6, r5, #6720	; 0x1a40
    1a08:	7365725f 	cmnvc	r5, #-268435451	; 0xf0000005
    1a0c:	74726174 	ldrbtvc	r6, [r2], #-372	; 0xfffffe8c
    1a10:	79656b00 	stmdbvc	r5!, {r8, r9, fp, sp, lr}^
    1a14:	6c69665f 	stclvs	6, cr6, [r9], #-380	; 0xfffffe84
    1a18:	5f726574 	svcpl	0x00726574
    1a1c:	74696e69 	strbtvc	r6, [r9], #-3689	; 0xfffff197
    1a20:	6d697400 	cfstrdvs	mvd7, [r9, #-0]
    1a24:	695f7265 	ldmdbvs	pc, {r0, r2, r5, r6, r9, ip, sp, lr}^	; <UNPREDICTABLE>
    1a28:	0074696e 	rsbseq	r6, r4, lr, ror #18
    1a2c:	31524355 	cmpcc	r2, r5, asr r3
    1a30:	52435500 	subpl	r5, r3, #0, 10
    1a34:	43550032 	cmpmi	r5, #50	; 0x32
    1a38:	55003352 	strpl	r3, [r0, #-850]	; 0xfffffcae
    1a3c:	00345243 	eorseq	r5, r4, r3, asr #4
    1a40:	2f707362 	svccs	0x00707362
    1a44:	74726175 	ldrbtvc	r6, [r2], #-373	; 0xfffffe8b
    1a48:	7073622f 	rsbsvc	r6, r3, pc, lsr #4
    1a4c:	7261755f 	rsbvc	r7, r1, #398458880	; 0x17c00000
    1a50:	00632e74 	rsbeq	r2, r3, r4, ror lr
    1a54:	43534555 	cmpmi	r3, #356515840	; 0x15400000
    1a58:	72617500 	rsbvc	r7, r1, #0, 10
    1a5c:	695f3174 	ldmdbvs	pc, {r2, r4, r5, r6, r8, ip, sp}^	; <UNPREDICTABLE>
    1a60:	6e695f6f 	cdpvs	15, 6, cr5, cr9, cr15, {3}
    1a64:	55007469 	strpl	r7, [r0, #-1129]	; 0xfffffb97
    1a68:	00325253 	eorseq	r5, r2, r3, asr r2
    1a6c:	43524255 	cmpmi	r2, #1342177285	; 0x50000005
    1a70:	66657200 	strbtvs	r7, [r5], -r0, lsl #4
    1a74:	71657246 	cmnvc	r5, r6, asr #4
    1a78:	00766944 	rsbseq	r6, r6, r4, asr #18
    1a7c:	524d4255 	subpl	r4, sp, #1342177285	; 0x50000005
    1a80:	72617500 	rsbvc	r7, r1, #0, 10
    1a84:	65735f74 	ldrbvs	r5, [r3, #-3956]!	; 0xfffff08c
    1a88:	75616274 	strbvc	r6, [r1, #-628]!	; 0xfffffd8c
    1a8c:	74617264 	strbtvc	r7, [r1], #-612	; 0xfffffd9c
    1a90:	61620065 	cmnvs	r2, r5, rrx
    1a94:	6e006573 	cfrshl64vs	mvdx0, mvdx3, r6
    1a98:	72656d75 	rsbvc	r6, r5, #7488	; 0x1d40
    1a9c:	726f7461 	rsbvc	r7, pc, #1627389952	; 0x61000000
    1aa0:	67697300 	strbvs	r7, [r9, -r0, lsl #6]!
    1aa4:	00726e5f 	rsbseq	r6, r2, pc, asr lr
    1aa8:	73696172 	cmnvc	r9, #-2147483620	; 0x8000001c
    1aac:	53550065 	cmppl	r5, #101	; 0x65
    1ab0:	5f003152 	svcpl	0x00003152
    1ab4:	6e69755f 	mcrvs	5, 3, r7, cr9, cr15, {2}
    1ab8:	5f343674 	svcpl	0x00343674
    1abc:	61750074 	cmnvs	r5, r4, ror r0
    1ac0:	655f7472 	ldrbvs	r7, [pc, #-1138]	; 1656 <shift+0x1656>
    1ac4:	6c62616e 	stfvse	f6, [r2], #-440	; 0xfffffe48
    1ac8:	65740065 	ldrbvs	r0, [r4, #-101]!	; 0xffffff9b
    1acc:	754e706d 	strbvc	r7, [lr, #-109]	; 0xffffff93
    1ad0:	6172656d 	cmnvs	r2, sp, ror #10
    1ad4:	00726f74 	rsbseq	r6, r2, r4, ror pc
    1ad8:	44585455 	ldrbmi	r5, [r8], #-1109	; 0xfffffbab
    1adc:	75616200 	strbvc	r6, [r1, #-512]!	; 0xfffffe00
    1ae0:	66694464 	strbtvs	r4, [r9], -r4, ror #8
    1ae4:	54550066 	ldrbpl	r0, [r5], #-102	; 0xffffff9a
    1ae8:	55004d49 	strpl	r4, [r0, #-3401]	; 0xfffff2b7
    1aec:	00524346 	subseq	r4, r2, r6, asr #6
    1af0:	54524155 	ldrbpl	r4, [r2], #-341	; 0xfffffeab
    1af4:	7079545f 	rsbsvc	r5, r9, pc, asr r4
    1af8:	4e4f0065 	cdpmi	0, 4, cr0, cr15, cr5, {3}
    1afc:	00534d45 	subseq	r4, r3, r5, asr #26
    1b00:	52494255 	subpl	r4, r9, #1342177285	; 0x50000005
    1b04:	72617500 	rsbvc	r7, r1, #0, 10
    1b08:	69645f74 	stmdbvs	r4!, {r2, r4, r5, r6, r8, r9, sl, fp, ip, lr}^
    1b0c:	6c626173 	stfvse	f6, [r2], #-460	; 0xfffffe34
    1b10:	69640065 	stmdbvs	r4!, {r0, r2, r5, r6}^
    1b14:	6f736976 	svcvs	0x00736976
    1b18:	72730072 	rsbsvc	r0, r3, #114	; 0x72
    1b1c:	6f6c6363 	svcvs	0x006c6363
    1b20:	685f6b63 	ldmdavs	pc, {r0, r1, r5, r6, r8, r9, fp, sp, lr}^	; <UNPREDICTABLE>
    1b24:	6564007a 	strbvs	r0, [r4, #-122]!	; 0xffffff86
    1b28:	696d6f6e 	stmdbvs	sp!, {r1, r2, r3, r5, r6, r8, r9, sl, fp, sp, lr}^
    1b2c:	6f74616e 	svcvs	0x0074616e
    1b30:	65740072 	ldrbvs	r0, [r4, #-114]!	; 0xffffff8e
    1b34:	6544706d 	strbvs	r7, [r4, #-109]	; 0xffffff93
    1b38:	696d6f6e 	stmdbvs	sp!, {r1, r2, r3, r5, r6, r8, r9, sl, fp, sp, lr}^
    1b3c:	6f74616e 	svcvs	0x0074616e
    1b40:	52550072 	subspl	r0, r5, #114	; 0x72
    1b44:	75004458 	strvc	r4, [r0, #-1112]	; 0xfffffba8
    1b48:	5f747261 	svcpl	0x00747261
    1b4c:	74666f73 	strbtvc	r6, [r6], #-3955	; 0xfffff08d
    1b50:	7365725f 	cmnvc	r5, #-268435451	; 0xf0000005
    1b54:	64007465 	strvs	r7, [r0], #-1125	; 0xfffffb9b
    1b58:	64697669 	strbtvs	r7, [r9], #-1641	; 0xfffff997
    1b5c:	55007265 	strpl	r7, [r0, #-613]	; 0xfffffd9b
    1b60:	0052434d 	subseq	r4, r2, sp, asr #6

Disassembly of section .comment:

00000000 <.comment>:
   0:	3a434347 	bcc	10d0d24 <shift+0x10d0d24>
   4:	62552820 	subsvs	r2, r5, #32, 16	; 0x200000
   8:	75746e75 	ldrbvc	r6, [r4, #-3701]!	; 0xfffff18b
   c:	6e694c2f 	cdpvs	12, 6, cr4, cr9, cr15, {1}
  10:	206f7261 	rsbcs	r7, pc, r1, ror #4
  14:	2e392e34 	mrccs	14, 1, r2, cr9, cr4, {1}
  18:	33312d33 	teqcc	r1, #3264	; 0xcc0
  1c:	6e756275 	mrcvs	2, 3, r6, cr5, cr5, {3}
  20:	29327574 	ldmdbcs	r2!, {r2, r4, r5, r6, r8, sl, ip, sp, lr}
  24:	392e3420 	stmdbcc	lr!, {r5, sl, ip, sp}
  28:	Address 0x0000000000000028 is out of bounds.


Disassembly of section .ARM.attributes:

00000000 <.ARM.attributes>:
   0:	00002e41 	andeq	r2, r0, r1, asr #28
   4:	61656100 	cmnvs	r5, r0, lsl #2
   8:	01006962 	tsteq	r0, r2, ror #18
   c:	00000024 	andeq	r0, r0, r4, lsr #32
  10:	412d3705 			; <UNDEFINED> instruction: 0x412d3705
  14:	070a0600 	streq	r0, [sl, -r0, lsl #12]
  18:	09010841 	stmdbeq	r1, {r0, r6, fp}
  1c:	12040a02 	andne	r0, r4, #8192	; 0x2000
  20:	15011404 	strne	r1, [r1, #-1028]	; 0xfffffbfc
  24:	18031701 	stmdane	r3, {r0, r8, r9, sl, ip}
  28:	1c021a01 			; <UNDEFINED> instruction: 0x1c021a01
  2c:	Address 0x000000000000002c is out of bounds.


Disassembly of section .debug_frame:

00000000 <.debug_frame>:
   0:	0000000c 	andeq	r0, r0, ip
   4:	ffffffff 			; <UNDEFINED> instruction: 0xffffffff
   8:	7c020001 	stcvc	0, cr0, [r2], {1}
   c:	000d0c0e 	andeq	r0, sp, lr, lsl #24
  10:	00000014 	andeq	r0, r0, r4, lsl r0
  14:	00000000 	andeq	r0, r0, r0
  18:	878010b0 			; <UNDEFINED> instruction: 0x878010b0
  1c:	00000064 	andeq	r0, r0, r4, rrx
  20:	84080e41 	strhi	r0, [r8], #-3649	; 0xfffff1bf
  24:	00018e02 	andeq	r8, r1, r2, lsl #28
  28:	0000000c 	andeq	r0, r0, ip
  2c:	ffffffff 			; <UNDEFINED> instruction: 0xffffffff
  30:	7c020001 	stcvc	0, cr0, [r2], {1}
  34:	000d0c0e 	andeq	r0, sp, lr, lsl #24
  38:	0000000c 	andeq	r0, r0, ip
  3c:	00000028 	andeq	r0, r0, r8, lsr #32
  40:	878002c0 	strhi	r0, [r0, r0, asr #5]
  44:	0000001e 	andeq	r0, r0, lr, lsl r0
  48:	0000001c 	andeq	r0, r0, ip, lsl r0
  4c:	00000028 	andeq	r0, r0, r8, lsr #32
  50:	878002e0 	strhi	r0, [r0, r0, ror #5]
  54:	000000ba 	strheq	r0, [r0], -sl
  58:	84080e46 	strhi	r0, [r8], #-3654	; 0xfffff1ba
  5c:	02018502 	andeq	r8, r1, #8388608	; 0x800000
  60:	0ec4c547 	cdpeq	5, 12, cr12, cr4, cr7, {2}
  64:	00000000 	andeq	r0, r0, r0
  68:	0000000c 	andeq	r0, r0, ip
  6c:	ffffffff 			; <UNDEFINED> instruction: 0xffffffff
  70:	7c020001 	stcvc	0, cr0, [r2], {1}
  74:	000d0c0e 	andeq	r0, sp, lr, lsl #24
  78:	0000000c 	andeq	r0, r0, ip
  7c:	00000068 	andeq	r0, r0, r8, rrx
  80:	8780039c 			; <UNDEFINED> instruction: 0x8780039c
  84:	0000003c 	andeq	r0, r0, ip, lsr r0
  88:	00000014 	andeq	r0, r0, r4, lsl r0
  8c:	00000068 	andeq	r0, r0, r8, rrx
  90:	878003d8 			; <UNDEFINED> instruction: 0x878003d8
  94:	00000012 	andeq	r0, r0, r2, lsl r0
  98:	47080e41 	strmi	r0, [r8, -r1, asr #28]
  9c:	0000000e 	andeq	r0, r0, lr
  a0:	00000018 	andeq	r0, r0, r8, lsl r0
  a4:	00000068 	andeq	r0, r0, r8, rrx
  a8:	878003ec 	strhi	r0, [r0, ip, ror #7]
  ac:	00000030 	andeq	r0, r0, r0, lsr r0
  b0:	84080e41 	strhi	r0, [r8], #-3649	; 0xfffff1bf
  b4:	56018502 	strpl	r8, [r1], -r2, lsl #10
  b8:	000ec4c5 	andeq	ip, lr, r5, asr #9
  bc:	00000018 	andeq	r0, r0, r8, lsl r0
  c0:	00000068 	andeq	r0, r0, r8, rrx
  c4:	8780041c 	usada8hi	r0, ip, r4, r0
  c8:	0000003a 	andeq	r0, r0, sl, lsr r0
  cc:	84080e41 	strhi	r0, [r8], #-3649	; 0xfffff1bf
  d0:	5b018502 	blpl	614e0 <shift+0x614e0>
  d4:	000ec4c5 	andeq	ip, lr, r5, asr #9
  d8:	0000000c 	andeq	r0, r0, ip
  dc:	ffffffff 			; <UNDEFINED> instruction: 0xffffffff
  e0:	7c020001 	stcvc	0, cr0, [r2], {1}
  e4:	000d0c0e 	andeq	r0, sp, lr, lsl #24
  e8:	00000018 	andeq	r0, r0, r8, lsl r0
  ec:	000000d8 	ldrdeq	r0, [r0], -r8
  f0:	87800458 			; <UNDEFINED> instruction: 0x87800458
  f4:	00000030 	andeq	r0, r0, r0, lsr r0
  f8:	84040e48 	strhi	r0, [r4], #-3656	; 0xfffff1b8
  fc:	0ec44e01 	cdpeq	14, 12, cr4, cr4, cr1, {0}
 100:	00000000 	andeq	r0, r0, r0
 104:	0000000c 	andeq	r0, r0, ip
 108:	000000d8 	ldrdeq	r0, [r0], -r8
 10c:	87800488 	strhi	r0, [r0, r8, lsl #9]
 110:	00000012 	andeq	r0, r0, r2, lsl r0
 114:	0000000c 	andeq	r0, r0, ip
 118:	000000d8 	ldrdeq	r0, [r0], -r8
 11c:	8780049c 			; <UNDEFINED> instruction: 0x8780049c
 120:	00000012 	andeq	r0, r0, r2, lsl r0
 124:	0000000c 	andeq	r0, r0, ip
 128:	000000d8 	ldrdeq	r0, [r0], -r8
 12c:	878004b0 			; <UNDEFINED> instruction: 0x878004b0
 130:	00000012 	andeq	r0, r0, r2, lsl r0
 134:	0000000c 	andeq	r0, r0, ip
 138:	ffffffff 			; <UNDEFINED> instruction: 0xffffffff
 13c:	7c020001 	stcvc	0, cr0, [r2], {1}
 140:	000d0c0e 	andeq	r0, sp, lr, lsl #24
 144:	00000018 	andeq	r0, r0, r8, lsl r0
 148:	00000134 	andeq	r0, r0, r4, lsr r1
 14c:	878004c4 	strhi	r0, [r0, r4, asr #9]
 150:	00000036 	andeq	r0, r0, r6, lsr r0
 154:	84040e4b 	strhi	r0, [r4], #-3659	; 0xfffff1b5
 158:	0ec44801 	cdpeq	8, 12, cr4, cr4, cr1, {0}
 15c:	00000000 	andeq	r0, r0, r0
 160:	0000000c 	andeq	r0, r0, ip
 164:	00000134 	andeq	r0, r0, r4, lsr r1
 168:	878004fc 			; <UNDEFINED> instruction: 0x878004fc
 16c:	00000012 	andeq	r0, r0, r2, lsl r0
 170:	0000000c 	andeq	r0, r0, ip
 174:	00000134 	andeq	r0, r0, r4, lsr r1
 178:	87800510 	usada8hi	r0, r0, r5, r0
 17c:	00000012 	andeq	r0, r0, r2, lsl r0
 180:	0000000c 	andeq	r0, r0, ip
 184:	00000134 	andeq	r0, r0, r4, lsr r1
 188:	87800524 	strhi	r0, [r0, r4, lsr #10]
 18c:	00000012 	andeq	r0, r0, r2, lsl r0
 190:	0000000c 	andeq	r0, r0, ip
 194:	ffffffff 			; <UNDEFINED> instruction: 0xffffffff
 198:	7c020001 	stcvc	0, cr0, [r2], {1}
 19c:	000d0c0e 	andeq	r0, sp, lr, lsl #24
 1a0:	0000001c 	andeq	r0, r0, ip, lsl r0
 1a4:	00000190 	muleq	r0, r0, r1
 1a8:	87800538 			; <UNDEFINED> instruction: 0x87800538
 1ac:	00000038 	andeq	r0, r0, r8, lsr r0
 1b0:	84080e44 	strhi	r0, [r8], #-3652	; 0xfffff1bc
 1b4:	43018e02 	movwmi	r8, #7682	; 0x1e02
 1b8:	0e54180e 	cdpeq	8, 5, cr1, cr4, cr14, {0}
 1bc:	00000008 	andeq	r0, r0, r8
 1c0:	00000018 	andeq	r0, r0, r8, lsl r0
 1c4:	00000190 	muleq	r0, r0, r1
 1c8:	87800570 			; <UNDEFINED> instruction: 0x87800570
 1cc:	00000056 	andeq	r0, r0, r6, asr r0
 1d0:	83100e41 	tsthi	r0, #1040	; 0x410
 1d4:	85038404 	strhi	r8, [r3, #-1028]	; 0xfffffbfc
 1d8:	00018e02 	andeq	r8, r1, r2, lsl #28
 1dc:	0000000c 	andeq	r0, r0, ip
 1e0:	ffffffff 			; <UNDEFINED> instruction: 0xffffffff
 1e4:	7c020001 	stcvc	0, cr0, [r2], {1}
 1e8:	000d0c0e 	andeq	r0, sp, lr, lsl #24
 1ec:	0000000c 	andeq	r0, r0, ip
 1f0:	000001dc 	ldrdeq	r0, [r0], -ip
 1f4:	878005c8 	strhi	r0, [r0, r8, asr #11]
 1f8:	0000000c 	andeq	r0, r0, ip
 1fc:	0000000c 	andeq	r0, r0, ip
 200:	000001dc 	ldrdeq	r0, [r0], -ip
 204:	878005d4 			; <UNDEFINED> instruction: 0x878005d4
 208:	0000000e 	andeq	r0, r0, lr
 20c:	0000000c 	andeq	r0, r0, ip
 210:	000001dc 	ldrdeq	r0, [r0], -ip
 214:	878005e4 	strhi	r0, [r0, r4, ror #11]
 218:	0000000c 	andeq	r0, r0, ip
 21c:	00000038 	andeq	r0, r0, r8, lsr r0
 220:	000001dc 	ldrdeq	r0, [r0], -ip
 224:	878005f0 			; <UNDEFINED> instruction: 0x878005f0
 228:	00000078 	andeq	r0, r0, r8, ror r0
 22c:	840c0e44 	strhi	r0, [ip], #-3652	; 0xfffff1bc
 230:	86028503 	strhi	r8, [r2], -r3, lsl #10
 234:	c60a6401 	strgt	r6, [sl], -r1, lsl #8
 238:	000ec4c5 	andeq	ip, lr, r5, asr #9
 23c:	0a440b41 	beq	1102f48 <shift+0x1102f48>
 240:	0ec6c5c4 	cdpeq	5, 12, cr12, cr6, cr4, {6}
 244:	460b4100 	strmi	r4, [fp], -r0, lsl #2
 248:	c6c5c40a 	strbgt	ip, [r5], sl, lsl #8
 24c:	0b41000e 	bleq	104028c <shift+0x104028c>
 250:	c6c5c446 	strbgt	ip, [r5], r6, asr #8
 254:	0000000e 	andeq	r0, r0, lr
 258:	00000024 	andeq	r0, r0, r4, lsr #32
 25c:	000001dc 	ldrdeq	r0, [r0], -ip
 260:	87800668 	strhi	r0, [r0, r8, ror #12]
 264:	0000004c 	andeq	r0, r0, ip, asr #32
 268:	84040e42 	strhi	r0, [r4], #-3650	; 0xfffff1be
 26c:	c40a4d01 	strgt	r4, [sl], #-3329	; 0xfffff2ff
 270:	0b43000e 	bleq	10c02b0 <shift+0x10c02b0>
 274:	0ec40a48 			; <UNDEFINED> instruction: 0x0ec40a48
 278:	460b4300 	strmi	r4, [fp], -r0, lsl #6
 27c:	00000ec4 	andeq	r0, r0, r4, asr #29
 280:	0000000c 	andeq	r0, r0, ip
 284:	000001dc 	ldrdeq	r0, [r0], -ip
 288:	878006b4 			; <UNDEFINED> instruction: 0x878006b4
 28c:	0000001a 	andeq	r0, r0, sl, lsl r0
 290:	0000000c 	andeq	r0, r0, ip
 294:	000001dc 	ldrdeq	r0, [r0], -ip
 298:	878006d0 			; <UNDEFINED> instruction: 0x878006d0
 29c:	0000000a 	andeq	r0, r0, sl
 2a0:	0000000c 	andeq	r0, r0, ip
 2a4:	ffffffff 			; <UNDEFINED> instruction: 0xffffffff
 2a8:	7c020001 	stcvc	0, cr0, [r2], {1}
 2ac:	000d0c0e 	andeq	r0, sp, lr, lsl #24
 2b0:	0000000c 	andeq	r0, r0, ip
 2b4:	000002a0 	andeq	r0, r0, r0, lsr #5
 2b8:	878006dc 			; <UNDEFINED> instruction: 0x878006dc
 2bc:	00000002 	andeq	r0, r0, r2
 2c0:	0000000c 	andeq	r0, r0, ip
 2c4:	000002a0 	andeq	r0, r0, r0, lsr #5
 2c8:	878006e0 	strhi	r0, [r0, r0, ror #13]
 2cc:	00000024 	andeq	r0, r0, r4, lsr #32
 2d0:	00000018 	andeq	r0, r0, r8, lsl r0
 2d4:	000002a0 	andeq	r0, r0, r0, lsr #5
 2d8:	87800704 	strhi	r0, [r0, r4, lsl #14]
 2dc:	0000001a 	andeq	r0, r0, sl, lsl r0
 2e0:	84040e43 	strhi	r0, [r4], #-3651	; 0xfffff1bd
 2e4:	0ec44901 	vdiveq.f16	s9, s8, s2	; <UNPREDICTABLE>
 2e8:	00000000 	andeq	r0, r0, r0
 2ec:	00000020 	andeq	r0, r0, r0, lsr #32
 2f0:	000002a0 	andeq	r0, r0, r0, lsr #5
 2f4:	87800720 	strhi	r0, [r0, r0, lsr #14]
 2f8:	00000078 	andeq	r0, r0, r8, ror r0
 2fc:	84100e41 	ldrhi	r0, [r0], #-3649	; 0xfffff1bf
 300:	86038504 	strhi	r8, [r3], -r4, lsl #10
 304:	7a018702 	bvc	61f14 <shift+0x61f14>
 308:	c4c5c6c7 	strbgt	ip, [r5], #1735	; 0x6c7
 30c:	0000000e 	andeq	r0, r0, lr
 310:	00000014 	andeq	r0, r0, r4, lsl r0
 314:	000002a0 	andeq	r0, r0, r0, lsr #5
 318:	87800798 			; <UNDEFINED> instruction: 0x87800798
 31c:	00000036 	andeq	r0, r0, r6, lsr r0
 320:	84080e46 	strhi	r0, [r8], #-3654	; 0xfffff1ba
 324:	00018e02 	andeq	r8, r1, r2, lsl #28
 328:	0000000c 	andeq	r0, r0, ip
 32c:	ffffffff 			; <UNDEFINED> instruction: 0xffffffff
 330:	7c020001 	stcvc	0, cr0, [r2], {1}
 334:	000d0c0e 	andeq	r0, sp, lr, lsl #24
 338:	00000018 	andeq	r0, r0, r8, lsl r0
 33c:	00000328 	andeq	r0, r0, r8, lsr #6
 340:	878007d0 			; <UNDEFINED> instruction: 0x878007d0
 344:	0000002e 	andeq	r0, r0, lr, lsr #32
 348:	83080e41 	movwhi	r0, #36417	; 0x8e41
 34c:	54018e02 	strpl	r8, [r1], #-3586	; 0xfffff1fe
 350:	000ec3ce 	andeq	ip, lr, lr, asr #7
 354:	00000020 	andeq	r0, r0, r0, lsr #32
 358:	00000328 	andeq	r0, r0, r8, lsr #6
 35c:	87800800 	strhi	r0, [r0, r0, lsl #16]
 360:	00000064 	andeq	r0, r0, r4, rrx
 364:	84100e41 	ldrhi	r0, [r0], #-3649	; 0xfffff1bf
 368:	86038504 	strhi	r8, [r3], -r4, lsl #10
 36c:	46018e02 	strmi	r8, [r1], -r2, lsl #28
 370:	0e6a200e 	cdpeq	0, 6, cr2, cr10, cr14, {0}
 374:	00000010 	andeq	r0, r0, r0, lsl r0
 378:	0000000c 	andeq	r0, r0, ip
 37c:	ffffffff 			; <UNDEFINED> instruction: 0xffffffff
 380:	7c020001 	stcvc	0, cr0, [r2], {1}
 384:	000d0c0e 	andeq	r0, sp, lr, lsl #24
 388:	00000014 	andeq	r0, r0, r4, lsl r0
 38c:	00000378 	andeq	r0, r0, r8, ror r3
 390:	87800864 	strhi	r0, [r0, r4, ror #16]
 394:	00000022 	andeq	r0, r0, r2, lsr #32
 398:	83080e41 	movwhi	r0, #36417	; 0x8e41
 39c:	00018e02 	andeq	r8, r1, r2, lsl #28
 3a0:	00000018 	andeq	r0, r0, r8, lsl r0
 3a4:	00000378 	andeq	r0, r0, r8, ror r3
 3a8:	87800888 	strhi	r0, [r0, r8, lsl #17]
 3ac:	00000054 	andeq	r0, r0, r4, asr r0
 3b0:	84100e45 	ldrhi	r0, [r0], #-3653	; 0xfffff1bb
 3b4:	86038504 	strhi	r8, [r3], -r4, lsl #10
 3b8:	00018e02 	andeq	r8, r1, r2, lsl #28
 3bc:	0000000c 	andeq	r0, r0, ip
 3c0:	ffffffff 			; <UNDEFINED> instruction: 0xffffffff
 3c4:	7c020001 	stcvc	0, cr0, [r2], {1}
 3c8:	000d0c0e 	andeq	r0, sp, lr, lsl #24
 3cc:	00000014 	andeq	r0, r0, r4, lsl r0
 3d0:	000003bc 			; <UNDEFINED> instruction: 0x000003bc
 3d4:	878008dc 			; <UNDEFINED> instruction: 0x878008dc
 3d8:	0000002a 	andeq	r0, r0, sl, lsr #32
 3dc:	83080e41 	movwhi	r0, #36417	; 0x8e41
 3e0:	00018e02 	andeq	r8, r1, r2, lsl #28
 3e4:	00000018 	andeq	r0, r0, r8, lsl r0
 3e8:	000003bc 			; <UNDEFINED> instruction: 0x000003bc
 3ec:	87800908 	strhi	r0, [r0, r8, lsl #18]
 3f0:	00000034 	andeq	r0, r0, r4, lsr r0
 3f4:	84040e4a 	strhi	r0, [r4], #-3658	; 0xfffff1b6
 3f8:	0ec44b01 	vdiveq.f64	d20, d4, d1
 3fc:	00000000 	andeq	r0, r0, r0
 400:	00000020 	andeq	r0, r0, r0, lsr #32
 404:	000003bc 			; <UNDEFINED> instruction: 0x000003bc
 408:	8780093c 			; <UNDEFINED> instruction: 0x8780093c
 40c:	000000a2 	andeq	r0, r0, r2, lsr #1
 410:	84140e41 	ldrhi	r0, [r4], #-3649	; 0xfffff1bf
 414:	86048505 	strhi	r8, [r4], -r5, lsl #10
 418:	8e028703 	cdphi	7, 0, cr8, cr2, cr3, {0}
 41c:	280e4601 	stmdacs	lr, {r0, r9, sl, lr}
 420:	140e4902 	strne	r4, [lr], #-2306	; 0xfffff6fe
 424:	0000000c 	andeq	r0, r0, ip
 428:	ffffffff 			; <UNDEFINED> instruction: 0xffffffff
 42c:	7c020001 	stcvc	0, cr0, [r2], {1}
 430:	000d0c0e 	andeq	r0, sp, lr, lsl #24
 434:	0000002c 	andeq	r0, r0, ip, lsr #32
 438:	00000424 	andeq	r0, r0, r4, lsr #8
 43c:	878009e0 	strhi	r0, [r0, r0, ror #19]
 440:	000001f6 	strdeq	r0, [r0], -r6
 444:	84240e42 	strthi	r0, [r4], #-3650	; 0xfffff1be
 448:	86088509 	strhi	r8, [r8], -r9, lsl #10
 44c:	88068707 	stmdahi	r6, {r0, r1, r2, r8, r9, sl, pc}
 450:	8a048905 	bhi	12286c <shift+0x12286c>
 454:	8e028b03 	vmlahi.f64	d8, d2, d3
 458:	380e4201 	stmdacc	lr, {r0, r9, lr}
 45c:	0e0a9602 	cfmadd32eq	mvax0, mvfx9, mvfx10, mvfx2
 460:	000b4224 	andeq	r4, fp, r4, lsr #4
 464:	00000018 	andeq	r0, r0, r8, lsl r0
 468:	00000424 	andeq	r0, r0, r4, lsr #8
 46c:	87800bd8 			; <UNDEFINED> instruction: 0x87800bd8
 470:	000000a4 	andeq	r0, r0, r4, lsr #1
 474:	84100e41 	ldrhi	r0, [r0], #-3649	; 0xfffff1bf
 478:	86038504 	strhi	r8, [r3], -r4, lsl #10
 47c:	00018e02 	andeq	r8, r1, r2, lsl #28
 480:	0000000c 	andeq	r0, r0, ip
 484:	00000424 	andeq	r0, r0, r4, lsr #8
 488:	87800c7c 			; <UNDEFINED> instruction: 0x87800c7c
 48c:	00000018 	andeq	r0, r0, r8, lsl r0
 490:	0000000c 	andeq	r0, r0, ip
 494:	00000424 	andeq	r0, r0, r4, lsr #8
 498:	87800c94 			; <UNDEFINED> instruction: 0x87800c94
 49c:	0000001a 	andeq	r0, r0, sl, lsl r0
 4a0:	00000018 	andeq	r0, r0, r8, lsl r0
 4a4:	00000424 	andeq	r0, r0, r4, lsr #8
 4a8:	87800cb0 			; <UNDEFINED> instruction: 0x87800cb0
 4ac:	00000026 	andeq	r0, r0, r6, lsr #32
 4b0:	84040e46 	strhi	r0, [r4], #-3654	; 0xfffff1ba
 4b4:	0ec44c01 	cdpeq	12, 12, cr4, cr4, cr1, {0}
 4b8:	00000000 	andeq	r0, r0, r0
 4bc:	0000000c 	andeq	r0, r0, ip
 4c0:	00000424 	andeq	r0, r0, r4, lsr #8
 4c4:	87800cd8 			; <UNDEFINED> instruction: 0x87800cd8
 4c8:	00000002 	andeq	r0, r0, r2

Disassembly of section .debug_loc:

00000000 <.debug_loc>:
   0:	00000078 	andeq	r0, r0, r8, ror r0
   4:	0000007c 	andeq	r0, r0, ip, ror r0
   8:	7c550001 	mrrcvc	0, 0, r0, r5, cr1
   c:	86000000 	strhi	r0, [r0], -r0
  10:	09000000 	stmdbeq	r0, {}	; <UNPREDICTABLE>
  14:	0c007500 	cfstr32eq	mvfx7, [r0], {-0}
  18:	2018101b 	andscs	r1, r8, fp, lsl r0
  1c:	00869f21 	addeq	r9, r6, r1, lsr #30
  20:	008a0000 	addeq	r0, sl, r0
  24:	00010000 	andeq	r0, r1, r0
  28:	00008a54 	andeq	r8, r0, r4, asr sl
  2c:	0000ba00 	andeq	fp, r0, r0, lsl #20
  30:	74000900 	strvc	r0, [r0], #-2304	; 0xfffff700
  34:	100c0c00 	andne	r0, ip, r0, lsl #24
  38:	9f211311 	svcls	0x00211311
	...
  44:	0000005e 	andeq	r0, r0, lr, asr r0
  48:	00000060 	andeq	r0, r0, r0, rrx
  4c:	00510001 	subseq	r0, r1, r1
  50:	00000000 	andeq	r0, r0, r0
  54:	60000000 	andvs	r0, r0, r0
  58:	7c000000 	stcvc	0, cr0, [r0], {-0}
  5c:	01000000 	mrseq	r0, (UNDEF: 0)
  60:	007c5300 	rsbseq	r5, ip, r0, lsl #6
  64:	00800000 	addeq	r0, r0, r0
  68:	00010000 	andeq	r0, r1, r0
  6c:	00000051 	andeq	r0, r0, r1, asr r0
  70:	00000000 	andeq	r0, r0, r0
  74:	00005e00 	andeq	r5, r0, r0, lsl #28
  78:	00006a00 	andeq	r6, r0, r0, lsl #20
  7c:	52000100 	andpl	r0, r0, #0, 2
  80:	00000076 	andeq	r0, r0, r6, ror r0
  84:	00000080 	andeq	r0, r0, r0, lsl #1
  88:	00520001 	subseq	r0, r2, r1
  8c:	00000000 	andeq	r0, r0, r0
  90:	80000000 	andhi	r0, r0, r0
  94:	8a000000 	bhi	9c <shift+0x9c>
  98:	01000000 	mrseq	r0, (UNDEF: 0)
  9c:	008a5000 	addeq	r5, sl, r0
  a0:	008e0000 	addeq	r0, lr, r0
  a4:	00010000 	andeq	r0, r1, r0
  a8:	00008e50 	andeq	r8, r0, r0, asr lr
  ac:	0000ba00 	andeq	fp, r0, r0, lsl #20
  b0:	70000300 	andvc	r0, r0, r0, lsl #6
  b4:	00009f01 	andeq	r9, r0, r1, lsl #30
  b8:	00000000 	andeq	r0, r0, r0
  bc:	00900000 	addseq	r0, r0, r0
  c0:	00b60000 	adcseq	r0, r6, r0
  c4:	00040000 	andeq	r0, r4, r0
  c8:	9f03e80a 	svcls	0x0003e80a
	...
  d4:	00000092 	muleq	r0, r2, r0
  d8:	00000096 	muleq	r0, r6, r0
  dc:	00510001 	subseq	r0, r1, r1
  e0:	00000000 	andeq	r0, r0, r0
  e4:	92000000 	andls	r0, r0, #0
  e8:	94000000 	strls	r0, [r0], #-0
  ec:	02000000 	andeq	r0, r0, #0
  f0:	969f3000 	ldrls	r3, [pc], r0
  f4:	b6000000 	strlt	r0, [r0], -r0
  f8:	01000000 	mrseq	r0, (UNDEF: 0)
  fc:	00005300 	andeq	r5, r0, r0, lsl #6
 100:	00000000 	andeq	r0, r0, r0
 104:	00920000 	addseq	r0, r2, r0
 108:	00940000 	addseq	r0, r4, r0
 10c:	00020000 	andeq	r0, r2, r0
 110:	00949f30 	addseq	r9, r4, r0, lsr pc
 114:	00a00000 	adceq	r0, r0, r0
 118:	00010000 	andeq	r0, r1, r0
 11c:	0000ac52 	andeq	sl, r0, r2, asr ip
 120:	0000b200 	andeq	fp, r0, r0, lsl #4
 124:	52000100 	andpl	r0, r0, #0, 2
	...
 130:	00000038 	andeq	r0, r0, r8, lsr r0
 134:	0000006e 	andeq	r0, r0, lr, rrx
 138:	9f300002 	svcls	0x00300002
 13c:	0000006e 	andeq	r0, r0, lr, rrx
 140:	00000070 	andeq	r0, r0, r0, ror r0
 144:	70500001 	subsvc	r0, r0, r1
 148:	8e000000 	cdphi	0, 0, cr0, cr0, cr0, {0}
 14c:	02000000 	andeq	r0, r0, #0
 150:	009f3000 	addseq	r3, pc, r0
 154:	00000000 	andeq	r0, r0, r0
 158:	28000000 	stmdacs	r0, {}	; <UNPREDICTABLE>
 15c:	3a000000 	bcc	164 <shift+0x164>
 160:	01000000 	mrseq	r0, (UNDEF: 0)
 164:	003a5100 	eorseq	r5, sl, r0, lsl #2
 168:	00a00000 	adceq	r0, r0, r0
 16c:	00040000 	andeq	r0, r4, r0
 170:	9f5101f3 	svcls	0x005101f3
	...
 17c:	00000028 	andeq	r0, r0, r8, lsr #32
 180:	0000005e 	andeq	r0, r0, lr, asr r0
 184:	5e520001 	cdppl	0, 5, cr0, cr2, cr1, {0}
 188:	72000000 	andvc	r0, r0, #0
 18c:	03000000 	movweq	r0, #0
 190:	9f027200 	svcls	0x00027200
 194:	00000072 	andeq	r0, r0, r2, ror r0
 198:	000000a0 	andeq	r0, r0, r0, lsr #1
 19c:	01f30004 	mvnseq	r0, r4
 1a0:	00009f52 	andeq	r9, r0, r2, asr pc
 1a4:	00000000 	andeq	r0, r0, r0
 1a8:	00280000 	eoreq	r0, r8, r0
 1ac:	003e0000 	eorseq	r0, lr, r0
 1b0:	00020000 	andeq	r0, r2, r0
 1b4:	003e9f30 	eorseq	r9, lr, r0, lsr pc
 1b8:	00780000 	rsbseq	r0, r8, r0
 1bc:	00010000 	andeq	r0, r1, r0
 1c0:	00007a56 	andeq	r7, r0, r6, asr sl
 1c4:	00008200 	andeq	r8, r0, r0, lsl #4
 1c8:	56000100 	strpl	r0, [r0], -r0, lsl #2
 1cc:	00000084 	andeq	r0, r0, r4, lsl #1
 1d0:	00000090 	muleq	r0, r0, r0
 1d4:	92560001 	subsls	r0, r6, #1
 1d8:	9e000000 	cdpls	0, 0, cr0, cr0, cr0, {0}
 1dc:	01000000 	mrseq	r0, (UNDEF: 0)
 1e0:	00005600 	andeq	r5, r0, r0, lsl #12
 1e4:	00000000 	andeq	r0, r0, r0
 1e8:	00360000 	eorseq	r0, r6, r0
 1ec:	003a0000 	eorseq	r0, sl, r0
 1f0:	00010000 	andeq	r0, r1, r0
 1f4:	00003a51 	andeq	r3, r0, r1, asr sl
 1f8:	00004200 	andeq	r4, r0, r0, lsl #4
 1fc:	f3000400 	vshl.u8	d0, d0, d0
 200:	429f5101 	addsmi	r5, pc, #1073741824	; 0x40000000
 204:	4a000000 	bmi	20c <shift+0x20c>
 208:	01000000 	mrseq	r0, (UNDEF: 0)
 20c:	006c5100 	rsbeq	r5, ip, r0, lsl #2
 210:	00a00000 	adceq	r0, r0, r0
 214:	001b0000 	andseq	r0, fp, r0
 218:	405101f3 	ldrshmi	r0, [r1], #-19	; 0xffffffed
 21c:	5101f31c 	tstpl	r1, ip, lsl r3	; <UNPREDICTABLE>
 220:	405101f3 	ldrshmi	r0, [r1], #-19	; 0xffffffed
 224:	0c22244b 	cfstrseq	mvf2, [r2], #-300	; 0xfffffed4
 228:	8000000f 	andhi	r0, r0, pc
 22c:	0001282b 	andeq	r2, r1, fp, lsr #16
 230:	009f1316 	addseq	r1, pc, r6, lsl r3	; <UNPREDICTABLE>
 234:	00000000 	andeq	r0, r0, r0
 238:	a0000000 	andge	r0, r0, r0
 23c:	c3000000 	movwgt	r0, #0
 240:	01000000 	mrseq	r0, (UNDEF: 0)
 244:	00c35000 	sbceq	r5, r3, r0
 248:	00c40000 	sbceq	r0, r4, r0
 24c:	00040000 	andeq	r0, r4, r0
 250:	9f5001f3 	svcls	0x005001f3
 254:	000000c4 	andeq	r0, r0, r4, asr #1
 258:	000000d9 	ldrdeq	r0, [r0], -r9
 25c:	d9500001 	ldmdble	r0, {r0}^
 260:	da000000 	ble	268 <shift+0x268>
 264:	04000000 	streq	r0, [r0], #-0
 268:	5001f300 	andpl	pc, r1, r0, lsl #6
 26c:	0000da9f 	muleq	r0, pc, sl	; <UNPREDICTABLE>
 270:	0000eb00 	andeq	lr, r0, r0, lsl #22
 274:	50000100 	andpl	r0, r0, r0, lsl #2
 278:	000000eb 	andeq	r0, r0, fp, ror #1
 27c:	000000ec 	andeq	r0, r0, ip, ror #1
 280:	01f30004 	mvnseq	r0, r4
 284:	00009f50 	andeq	r9, r0, r0, asr pc
 288:	00000000 	andeq	r0, r0, r0
 28c:	00a00000 	adceq	r0, r0, r0
 290:	00c30000 	sbceq	r0, r3, r0
 294:	00010000 	andeq	r0, r1, r0
 298:	0000c351 	andeq	ip, r0, r1, asr r3
 29c:	0000c400 	andeq	ip, r0, r0, lsl #8
 2a0:	f3000400 	vshl.u8	d0, d0, d0
 2a4:	c49f5101 	ldrgt	r5, [pc], #257	; 2ac <shift+0x2ac>
 2a8:	d9000000 	stmdble	r0, {}	; <UNPREDICTABLE>
 2ac:	01000000 	mrseq	r0, (UNDEF: 0)
 2b0:	00d95100 	sbcseq	r5, r9, r0, lsl #2
 2b4:	00da0000 	sbcseq	r0, sl, r0
 2b8:	00040000 	andeq	r0, r4, r0
 2bc:	9f5101f3 	svcls	0x005101f3
 2c0:	000000da 	ldrdeq	r0, [r0], -sl
 2c4:	000000eb 	andeq	r0, r0, fp, ror #1
 2c8:	eb510001 	bl	14402d4 <shift+0x14402d4>
 2cc:	ec000000 	stc	0, cr0, [r0], {-0}
 2d0:	04000000 	streq	r0, [r0], #-0
 2d4:	5101f300 	mrspl	pc, SP_irq	; <UNPREDICTABLE>
 2d8:	0000009f 	muleq	r0, pc, r0	; <UNPREDICTABLE>
 2dc:	00000000 	andeq	r0, r0, r0
 2e0:	0000a000 	andeq	sl, r0, r0
 2e4:	0000b800 	andeq	fp, r0, r0, lsl #16
 2e8:	52000100 	andpl	r0, r0, #0, 2
 2ec:	000000b8 	strheq	r0, [r0], -r8
 2f0:	000000c4 	andeq	r0, r0, r4, asr #1
 2f4:	01f30004 	mvnseq	r0, r4
 2f8:	00c49f52 	sbceq	r9, r4, r2, asr pc
 2fc:	00cc0000 	sbceq	r0, ip, r0
 300:	00010000 	andeq	r0, r1, r0
 304:	0000cc52 	andeq	ip, r0, r2, asr ip
 308:	0000da00 	andeq	sp, r0, r0, lsl #20
 30c:	f3000400 	vshl.u8	d0, d0, d0
 310:	da9f5201 	ble	fe7d4b1c <__bss_end+0x76fd34ac>
 314:	de000000 	cdple	0, 0, cr0, cr0, cr0, {0}
 318:	01000000 	mrseq	r0, (UNDEF: 0)
 31c:	00de5200 	sbcseq	r5, lr, r0, lsl #4
 320:	00ec0000 	rsceq	r0, ip, r0
 324:	00040000 	andeq	r0, r4, r0
 328:	9f5201f3 	svcls	0x005201f3
	...
 334:	000000b0 	strheq	r0, [r0], -r0	; <UNPREDICTABLE>
 338:	000000b2 	strheq	r0, [r0], -r2
 33c:	04720008 	ldrbteq	r0, [r2], #-8
 340:	ff080194 			; <UNDEFINED> instruction: 0xff080194
 344:	00b29f1a 	adcseq	r9, r2, sl, lsl pc
 348:	00b60000 	adcseq	r0, r6, r0
 34c:	00010000 	andeq	r0, r1, r0
 350:	0000b654 	andeq	fp, r0, r4, asr r6
 354:	0000b800 	andeq	fp, r0, r0, lsl #16
 358:	72000800 	andvc	r0, r0, #0, 16
 35c:	08019404 	stmdaeq	r1, {r2, sl, ip, pc}
 360:	b89f1aff 	ldmlt	pc, {r0, r1, r2, r3, r4, r5, r6, r7, r9, fp, ip}	; <UNPREDICTABLE>
 364:	c0000000 	andgt	r0, r0, r0
 368:	0b000000 	bleq	370 <shift+0x370>
 36c:	5201f300 	andpl	pc, r1, #0, 6
 370:	01940423 	orrseq	r0, r4, r3, lsr #8
 374:	9f1aff08 	svcls	0x001aff08
 378:	000000da 	ldrdeq	r0, [r0], -sl
 37c:	000000dc 	ldrdeq	r0, [r0], -ip
 380:	dc540001 	mrrcle	0, 0, r0, r4, cr1
 384:	de000000 	cdple	0, 0, cr0, cr0, cr0, {0}
 388:	08000000 	stmdaeq	r0, {}	; <UNPREDICTABLE>
 38c:	94047200 	strls	r7, [r4], #-512	; 0xfffffe00
 390:	1aff0801 	bne	fffc239c <__bss_end+0x787c0d2c>
 394:	0000de9f 	muleq	r0, pc, lr	; <UNPREDICTABLE>
 398:	0000e800 	andeq	lr, r0, r0, lsl #16
 39c:	f3000b00 	vqrdmulh.s<illegal width 8>	d0, d0, d0
 3a0:	04235201 	strteq	r5, [r3], #-513	; 0xfffffdff
 3a4:	ff080194 			; <UNDEFINED> instruction: 0xff080194
 3a8:	00009f1a 	andeq	r9, r0, sl, lsl pc
 3ac:	00000000 	andeq	r0, r0, r0
 3b0:	00b00000 	adcseq	r0, r0, r0
 3b4:	00c30000 	sbceq	r0, r3, r0
 3b8:	00010000 	andeq	r0, r1, r0
 3bc:	0000c351 	andeq	ip, r0, r1, asr r3
 3c0:	0000c400 	andeq	ip, r0, r0, lsl #8
 3c4:	f3000400 	vshl.u8	d0, d0, d0
 3c8:	da9f5101 	ble	fe7d47d4 <__bss_end+0x76fd3164>
 3cc:	eb000000 	bl	3d4 <shift+0x3d4>
 3d0:	01000000 	mrseq	r0, (UNDEF: 0)
 3d4:	00eb5100 	rsceq	r5, fp, r0, lsl #2
 3d8:	00ec0000 	rsceq	r0, ip, r0
 3dc:	00040000 	andeq	r0, r4, r0
 3e0:	9f5101f3 	svcls	0x005101f3
	...
 3ec:	000000b0 	strheq	r0, [r0], -r0	; <UNPREDICTABLE>
 3f0:	000000c3 	andeq	r0, r0, r3, asr #1
 3f4:	c3500001 	cmpgt	r0, #1
 3f8:	c4000000 	strgt	r0, [r0], #-0
 3fc:	04000000 	streq	r0, [r0], #-0
 400:	5001f300 	andpl	pc, r1, r0, lsl #6
 404:	0000da9f 	muleq	r0, pc, sl	; <UNPREDICTABLE>
 408:	0000eb00 	andeq	lr, r0, r0, lsl #22
 40c:	50000100 	andpl	r0, r0, r0, lsl #2
 410:	000000eb 	andeq	r0, r0, fp, ror #1
 414:	000000ec 	andeq	r0, r0, ip, ror #1
 418:	01f30004 	mvnseq	r0, r4
 41c:	00009f50 	andeq	r9, r0, r0, asr pc
 420:	00000000 	andeq	r0, r0, r0
 424:	00da0000 	sbcseq	r0, sl, r0
 428:	00dc0000 	sbcseq	r0, ip, r0
 42c:	00010000 	andeq	r0, r1, r0
 430:	0000dc54 	andeq	sp, r0, r4, asr ip
 434:	0000de00 	andeq	sp, r0, r0, lsl #28
 438:	72000800 	andvc	r0, r0, #0, 16
 43c:	08019404 	stmdaeq	r1, {r2, sl, ip, pc}
 440:	de9f1aff 			; <UNDEFINED> instruction: 0xde9f1aff
 444:	e8000000 	stmda	r0, {}	; <UNPREDICTABLE>
 448:	0b000000 	bleq	450 <shift+0x450>
 44c:	5201f300 	andpl	pc, r1, #0, 6
 450:	01940423 	orrseq	r0, r4, r3, lsr #8
 454:	9f1aff08 	svcls	0x001aff08
	...
 460:	000000da 	ldrdeq	r0, [r0], -sl
 464:	000000eb 	andeq	r0, r0, fp, ror #1
 468:	eb510001 	bl	1440474 <shift+0x1440474>
 46c:	ec000000 	stc	0, cr0, [r0], {-0}
 470:	04000000 	streq	r0, [r0], #-0
 474:	5101f300 	mrspl	pc, SP_irq	; <UNPREDICTABLE>
 478:	0000009f 	muleq	r0, pc, r0	; <UNPREDICTABLE>
 47c:	00000000 	andeq	r0, r0, r0
 480:	0000da00 	andeq	sp, r0, r0, lsl #20
 484:	0000eb00 	andeq	lr, r0, r0, lsl #22
 488:	50000100 	andpl	r0, r0, r0, lsl #2
 48c:	000000eb 	andeq	r0, r0, fp, ror #1
 490:	000000ec 	andeq	r0, r0, ip, ror #1
 494:	01f30004 	mvnseq	r0, r4
 498:	00009f50 	andeq	r9, r0, r0, asr pc
 49c:	00000000 	andeq	r0, r0, r0
 4a0:	00ec0000 	rsceq	r0, ip, r0
 4a4:	00f20000 	rscseq	r0, r2, r0
 4a8:	00010000 	andeq	r0, r1, r0
 4ac:	0000f252 	andeq	pc, r0, r2, asr r2	; <UNPREDICTABLE>
 4b0:	0000fa00 	andeq	pc, r0, r0, lsl #20
 4b4:	f3000400 	vshl.u8	d0, d0, d0
 4b8:	fa9f5201 	blx	fe7d4cc4 <__bss_end+0x76fd3654>
 4bc:	fc000000 	stc2	0, cr0, [r0], {-0}
 4c0:	01000000 	mrseq	r0, (UNDEF: 0)
 4c4:	00fc5200 	rscseq	r5, ip, r0, lsl #4
 4c8:	01060000 	mrseq	r0, (UNDEF: 6)
 4cc:	00040000 	andeq	r0, r4, r0
 4d0:	9f5201f3 	svcls	0x005201f3
	...
 4dc:	00000108 	andeq	r0, r0, r8, lsl #2
 4e0:	0000010a 	andeq	r0, r0, sl, lsl #2
 4e4:	0a500001 	beq	14004f0 <shift+0x14004f0>
 4e8:	12000001 	andne	r0, r0, #1
 4ec:	04000001 	streq	r0, [r0], #-1
 4f0:	5001f300 	andpl	pc, r1, r0, lsl #6
 4f4:	0000009f 	muleq	r0, pc, r0	; <UNPREDICTABLE>
 4f8:	00000000 	andeq	r0, r0, r0
 4fc:	00000400 	andeq	r0, r0, r0, lsl #8
 500:	00001a00 	andeq	r1, r0, r0, lsl #20
 504:	30000200 	andcc	r0, r0, r0, lsl #4
 508:	0000009f 	muleq	r0, pc, r0	; <UNPREDICTABLE>
 50c:	00000000 	andeq	r0, r0, r0
 510:	00006000 	andeq	r6, r0, r0
 514:	00007600 	andeq	r7, r0, r0, lsl #12
 518:	53000100 	movwpl	r0, #256	; 0x100
 51c:	00000076 	andeq	r0, r0, r6, ror r0
 520:	0000008a 	andeq	r0, r0, sl, lsl #1
 524:	a1720004 	cmnge	r2, r4
 528:	00009f77 	andeq	r9, r0, r7, ror pc
 52c:	00000000 	andeq	r0, r0, r0
 530:	00600000 	rsbeq	r0, r0, r0
 534:	00920000 	addseq	r0, r2, r0
 538:	00010000 	andeq	r0, r1, r0
 53c:	00000050 	andeq	r0, r0, r0, asr r0
 540:	00000000 	andeq	r0, r0, r0
 544:	00005800 	andeq	r5, r0, r0, lsl #16
 548:	00009c00 	andeq	r9, r0, r0, lsl #24
 54c:	51000100 	mrspl	r0, (UNDEF: 16)
 550:	0000009c 	muleq	r0, ip, r0
 554:	000000ba 	strheq	r0, [r0], -sl
 558:	80750004 	rsbshi	r0, r5, r4
 55c:	00009f40 	andeq	r9, r0, r0, asr #30
 560:	00000000 	andeq	r0, r0, r0
 564:	004a0000 	subeq	r0, sl, r0
 568:	004c0000 	subeq	r0, ip, r0
 56c:	00010000 	andeq	r0, r1, r0
 570:	00000051 	andeq	r0, r0, r1, asr r0
 574:	00000000 	andeq	r0, r0, r0
 578:	0000bc00 	andeq	fp, r0, r0, lsl #24
 57c:	0000e500 	andeq	lr, r0, r0, lsl #10
 580:	50000100 	andpl	r0, r0, r0, lsl #2
 584:	000000e5 	andeq	r0, r0, r5, ror #1
 588:	000000f2 	strdeq	r0, [r0], -r2
 58c:	01f30004 	mvnseq	r0, r4
 590:	00009f50 	andeq	r9, r0, r0, asr pc
	...
 59c:	00040000 	andeq	r0, r4, r0
 5a0:	00010000 	andeq	r0, r1, r0
 5a4:	00000450 	andeq	r0, r0, r0, asr r4
 5a8:	00002e00 	andeq	r2, r0, r0, lsl #28
 5ac:	f3000400 	vshl.u8	d0, d0, d0
 5b0:	009f5001 	addseq	r5, pc, r1
	...
 5bc:	07000000 	streq	r0, [r0, -r0]
 5c0:	01000000 	mrseq	r0, (UNDEF: 0)
 5c4:	00075100 	andeq	r5, r7, r0, lsl #2
 5c8:	002e0000 	eoreq	r0, lr, r0
 5cc:	00040000 	andeq	r0, r4, r0
 5d0:	9f5101f3 	svcls	0x005101f3
	...
 5dc:	0000007a 	andeq	r0, r0, sl, ror r0
 5e0:	00000087 	andeq	r0, r0, r7, lsl #1
 5e4:	00530001 	subseq	r0, r3, r1
 5e8:	00000000 	andeq	r0, r0, r0
 5ec:	6c000000 	stcvs	0, cr0, [r0], {-0}
 5f0:	6e000000 	cdpvs	0, 0, cr0, cr0, cr0, {0}
 5f4:	01000000 	mrseq	r0, (UNDEF: 0)
 5f8:	00005300 	andeq	r5, r0, r0, lsl #6
	...
 604:	00110000 	andseq	r0, r1, r0
 608:	00010000 	andeq	r0, r1, r0
 60c:	00001150 	andeq	r1, r0, r0, asr r1
 610:	00002200 	andeq	r2, r0, r0, lsl #4
 614:	f3000400 	vshl.u8	d0, d0, d0
 618:	009f5001 	addseq	r5, pc, r1
	...
 624:	11000000 	mrsne	r0, (UNDEF: 0)
 628:	01000000 	mrseq	r0, (UNDEF: 0)
 62c:	00115100 	andseq	r5, r1, r0, lsl #2
 630:	00220000 	eoreq	r0, r2, r0
 634:	00040000 	andeq	r0, r4, r0
 638:	9f5101f3 	svcls	0x005101f3
	...
 644:	00000024 	andeq	r0, r0, r4, lsr #32
 648:	00000024 	andeq	r0, r0, r4, lsr #32
 64c:	24500001 	ldrbcs	r0, [r0], #-1
 650:	34000000 	strcc	r0, [r0], #-0
 654:	17000000 	strne	r0, [r0, -r0]
 658:	12007000 	andne	r7, r0, #0
 65c:	22244b40 	eorcs	r4, r4, #64, 22	; 0x10000
 660:	1610000a 	ldrne	r0, [r0], -sl
 664:	244b4014 	strbcs	r4, [fp], #-20	; 0xffffffec
 668:	01282d22 			; <UNDEFINED> instruction: 0x01282d22
 66c:	9f131600 	svcls	0x00131600
 670:	00000034 	andeq	r0, r0, r4, lsr r0
 674:	00000078 	andeq	r0, r0, r8, ror r0
 678:	01f30018 	mvnseq	r0, r8, lsl r0
 67c:	4b401250 	blmi	1004fc4 <shift+0x1004fc4>
 680:	000a2224 	andeq	r2, sl, r4, lsr #4
 684:	40141610 	andsmi	r1, r4, r0, lsl r6
 688:	2d22244b 	cfstrscs	mvf2, [r2, #-300]!	; 0xfffffed4
 68c:	16000128 	strne	r0, [r0], -r8, lsr #2
 690:	00009f13 	andeq	r9, r0, r3, lsl pc
 694:	00000000 	andeq	r0, r0, r0
 698:	00240000 	eoreq	r0, r4, r0
 69c:	005c0000 	subseq	r0, ip, r0
 6a0:	00010000 	andeq	r0, r1, r0
 6a4:	00005c51 	andeq	r5, r0, r1, asr ip
 6a8:	00007800 	andeq	r7, r0, r0, lsl #16
 6ac:	f3000400 	vshl.u8	d0, d0, d0
 6b0:	009f5101 	addseq	r5, pc, r1, lsl #2
 6b4:	00000000 	andeq	r0, r0, r0
 6b8:	62000000 	andvs	r0, r0, #0
 6bc:	6d000000 	stcvs	0, cr0, [r0, #-0]
 6c0:	01000000 	mrseq	r0, (UNDEF: 0)
 6c4:	00005300 	andeq	r5, r0, r0, lsl #6
 6c8:	00000000 	andeq	r0, r0, r0
 6cc:	00520000 	subseq	r0, r2, r0
 6d0:	00540000 	subseq	r0, r4, r0
 6d4:	00010000 	andeq	r0, r1, r0
 6d8:	00000053 	andeq	r0, r0, r3, asr r0
	...
 6e4:	00001900 	andeq	r1, r0, r0, lsl #18
 6e8:	50000100 	andpl	r0, r0, r0, lsl #2
 6ec:	00000019 	andeq	r0, r0, r9, lsl r0
 6f0:	0000002a 	andeq	r0, r0, sl, lsr #32
 6f4:	01f30004 	mvnseq	r0, r4
 6f8:	00009f50 	andeq	r9, r0, r0, asr pc
	...
 704:	00190000 	andseq	r0, r9, r0
 708:	00010000 	andeq	r0, r1, r0
 70c:	00001951 	andeq	r1, r0, r1, asr r9
 710:	00002a00 	andeq	r2, r0, r0, lsl #20
 714:	f3000400 	vshl.u8	d0, d0, d0
 718:	009f5101 	addseq	r5, pc, r1, lsl #2
 71c:	00000000 	andeq	r0, r0, r0
 720:	2c000000 	stccs	0, cr0, [r0], {-0}
 724:	32000000 	andcc	r0, r0, #0
 728:	01000000 	mrseq	r0, (UNDEF: 0)
 72c:	00325000 	eorseq	r5, r2, r0
 730:	00600000 	rsbeq	r0, r0, r0
 734:	00040000 	andeq	r0, r4, r0
 738:	9f5001f3 	svcls	0x005001f3
	...
 744:	0000002c 	andeq	r0, r0, ip, lsr #32
 748:	0000003e 	andeq	r0, r0, lr, lsr r0
 74c:	3e510001 	cdpcc	0, 5, cr0, cr1, cr1, {0}
 750:	60000000 	andvs	r0, r0, r0
 754:	04000000 	streq	r0, [r0], #-0
 758:	5101f300 	mrspl	pc, SP_irq	; <UNPREDICTABLE>
 75c:	0000009f 	muleq	r0, pc, r0	; <UNPREDICTABLE>
 760:	00000000 	andeq	r0, r0, r0
 764:	0000aa00 	andeq	sl, r0, r0, lsl #20
 768:	0000b700 	andeq	fp, r0, r0, lsl #14
 76c:	53000100 	movwpl	r0, #256	; 0x100
	...
 778:	0000009c 	muleq	r0, ip, r0
 77c:	0000009e 	muleq	r0, lr, r0
 780:	00530001 	subseq	r0, r3, r1
 784:	00000000 	andeq	r0, r0, r0
 788:	ee000000 	cdp	0, 0, cr0, cr0, cr0, {0}
 78c:	fd000000 	stc2	0, cr0, [r0, #-0]
 790:	01000000 	mrseq	r0, (UNDEF: 0)
 794:	00005300 	andeq	r5, r0, r0, lsl #6
 798:	00000000 	andeq	r0, r0, r0
 79c:	00e00000 	rsceq	r0, r0, r0
 7a0:	00e20000 	rsceq	r0, r2, r0
 7a4:	00010000 	andeq	r0, r1, r0
 7a8:	00000053 	andeq	r0, r0, r3, asr r0
	...
 7b4:	00001600 	andeq	r1, r0, r0, lsl #12
 7b8:	50000100 	andpl	r0, r0, r0, lsl #2
 7bc:	00000016 	andeq	r0, r0, r6, lsl r0
 7c0:	000001f2 	strdeq	r0, [r0], -r2
 7c4:	f25a0001 	vhadd.s16	d16, d10, d1
 7c8:	f6000001 			; <UNDEFINED> instruction: 0xf6000001
 7cc:	01000001 	tsteq	r0, r1
 7d0:	00005000 	andeq	r5, r0, r0
	...
 7dc:	00180000 	andseq	r0, r8, r0
 7e0:	00010000 	andeq	r0, r1, r0
 7e4:	00001851 	andeq	r1, r0, r1, asr r8
 7e8:	0001f200 	andeq	pc, r1, r0, lsl #4
 7ec:	57000100 	strpl	r0, [r0, -r0, lsl #2]
 7f0:	000001f2 	strdeq	r0, [r0], -r2
 7f4:	000001f6 	strdeq	r0, [r0], -r6
 7f8:	00510001 	subseq	r0, r1, r1
	...
 804:	18000000 	stmdane	r0, {}	; <UNPREDICTABLE>
 808:	01000000 	mrseq	r0, (UNDEF: 0)
 80c:	00185200 	andseq	r5, r8, r0, lsl #4
 810:	00920000 	addseq	r0, r2, r0
 814:	00010000 	andeq	r0, r1, r0
 818:	00009259 	andeq	r9, r0, r9, asr r2
 81c:	00009600 	andeq	r9, r0, r0, lsl #12
 820:	50000100 	andpl	r0, r0, r0, lsl #2
 824:	00000096 	muleq	r0, r6, r0
 828:	000000c0 	andeq	r0, r0, r0, asr #1
 82c:	c0590001 	subsgt	r0, r9, r1
 830:	40000000 	andmi	r0, r0, r0
 834:	04000001 	streq	r0, [r0], #-1
 838:	5201f300 	andpl	pc, r1, #0, 6
 83c:	0001409f 	muleq	r1, pc, r0	; <UNPREDICTABLE>
 840:	0001ee00 	andeq	lr, r1, r0, lsl #28
 844:	59000100 	stmdbpl	r0, {r8}
 848:	000001ee 	andeq	r0, r0, lr, ror #3
 84c:	000001f2 	strdeq	r0, [r0], -r2
 850:	f2500001 	vhadd.s16	d16, d0, d1
 854:	f6000001 			; <UNDEFINED> instruction: 0xf6000001
 858:	01000001 	tsteq	r0, r1
 85c:	00005200 	andeq	r5, r0, r0, lsl #4
 860:	00000000 	andeq	r0, r0, r0
 864:	000e0000 	andeq	r0, lr, r0
 868:	00180000 	andseq	r0, r8, r0
 86c:	00010000 	andeq	r0, r1, r0
 870:	00001852 	andeq	r1, r0, r2, asr r8
 874:	00001f00 	andeq	r1, r0, r0, lsl #30
 878:	50000100 	andpl	r0, r0, r0, lsl #2
 87c:	00000020 	andeq	r0, r0, r0, lsr #32
 880:	00000026 	andeq	r0, r0, r6, lsr #32
 884:	32540001 	subscc	r0, r4, #1
 888:	34000000 	strcc	r0, [r0], #-0
 88c:	01000000 	mrseq	r0, (UNDEF: 0)
 890:	00345000 	eorseq	r5, r4, r0
 894:	00920000 	addseq	r0, r2, r0
 898:	00010000 	andeq	r0, r1, r0
 89c:	00014056 	andeq	r4, r1, r6, asr r0
 8a0:	00018200 	andeq	r8, r1, r0, lsl #4
 8a4:	56000100 	strpl	r0, [r0], -r0, lsl #2
 8a8:	00000182 	andeq	r0, r0, r2, lsl #3
 8ac:	00000184 	andeq	r0, r0, r4, lsl #3
 8b0:	84500001 	ldrbhi	r0, [r0], #-1
 8b4:	8c000001 	stchi	0, cr0, [r0], {1}
 8b8:	01000001 	tsteq	r0, r1
 8bc:	018c5600 	orreq	r5, ip, r0, lsl #12
 8c0:	01aa0000 			; <UNDEFINED> instruction: 0x01aa0000
 8c4:	00020000 	andeq	r0, r2, r0
 8c8:	01aa9f31 			; <UNDEFINED> instruction: 0x01aa9f31
 8cc:	01bc0000 			; <UNDEFINED> instruction: 0x01bc0000
 8d0:	00010000 	andeq	r0, r1, r0
 8d4:	0001c656 	andeq	ip, r1, r6, asr r6
 8d8:	0001e000 	andeq	lr, r1, r0
 8dc:	56000100 	strpl	r0, [r0], -r0, lsl #2
 8e0:	000001e0 	andeq	r0, r0, r0, ror #3
 8e4:	000001ee 	andeq	r0, r0, lr, ror #3
 8e8:	9f310002 	svcls	0x00310002
 8ec:	000001ee 	andeq	r0, r0, lr, ror #3
 8f0:	000001f2 	strdeq	r0, [r0], -r2
 8f4:	f2560001 	vhadd.s16	d16, d6, d1
 8f8:	f6000001 			; <UNDEFINED> instruction: 0xf6000001
 8fc:	01000001 	tsteq	r0, r1
 900:	00005200 	andeq	r5, r0, r0, lsl #4
	...
 90c:	000e0000 	andeq	r0, lr, r0
 910:	00020000 	andeq	r0, r2, r0
 914:	000e9f30 	andeq	r9, lr, r0, lsr pc
 918:	00180000 	andseq	r0, r8, r0
 91c:	00010000 	andeq	r0, r1, r0
 920:	00001855 	andeq	r1, r0, r5, asr r8
 924:	00001a00 	andeq	r1, r0, r0, lsl #20
 928:	51000100 	mrspl	r0, (UNDEF: 16)
 92c:	0000001a 	andeq	r0, r0, sl, lsl r0
 930:	00000020 	andeq	r0, r0, r0, lsr #32
 934:	20540001 	subscs	r0, r4, r1
 938:	26000000 	strcs	r0, [r0], -r0
 93c:	01000000 	mrseq	r0, (UNDEF: 0)
 940:	004a5100 	subeq	r5, sl, r0, lsl #2
 944:	00700000 	rsbseq	r0, r0, r0
 948:	00010000 	andeq	r0, r1, r0
 94c:	00007050 	andeq	r7, r0, r0, asr r0
 950:	00009200 	andeq	r9, r0, r0, lsl #4
 954:	55000100 	strpl	r0, [r0, #-256]	; 0xffffff00
 958:	00000140 	andeq	r0, r0, r0, asr #2
 95c:	00000154 	andeq	r0, r0, r4, asr r1
 960:	54500001 	ldrbpl	r0, [r0], #-1
 964:	8a000001 	bhi	970 <shift+0x970>
 968:	01000001 	tsteq	r0, r1
 96c:	018a5500 	orreq	r5, sl, r0, lsl #10
 970:	01a20000 			; <UNDEFINED> instruction: 0x01a20000
 974:	00010000 	andeq	r0, r1, r0
 978:	0001a250 	andeq	sl, r1, r0, asr r2
 97c:	0001aa00 	andeq	sl, r1, r0, lsl #20
 980:	51000100 	mrspl	r0, (UNDEF: 16)
 984:	000001aa 	andeq	r0, r0, sl, lsr #3
 988:	000001ee 	andeq	r0, r0, lr, ror #3
 98c:	ee500001 	cdp	0, 5, cr0, cr0, cr1, {0}
 990:	f6000001 			; <UNDEFINED> instruction: 0xf6000001
 994:	01000001 	tsteq	r0, r1
 998:	00005500 	andeq	r5, r0, r0, lsl #10
	...
 9a4:	000e0000 	andeq	r0, lr, r0
 9a8:	00020000 	andeq	r0, r2, r0
 9ac:	000e9f30 	andeq	r9, lr, r0, lsr pc
 9b0:	00180000 	andseq	r0, r8, r0
 9b4:	00020000 	andeq	r0, r2, r0
 9b8:	00189f31 	andseq	r9, r8, r1, lsr pc
 9bc:	001a0000 	andseq	r0, sl, r0
 9c0:	00010000 	andeq	r0, r1, r0
 9c4:	00001a50 	andeq	r1, r0, r0, asr sl
 9c8:	00002600 	andeq	r2, r0, r0, lsl #12
 9cc:	54000100 	strpl	r0, [r0], #-256	; 0xffffff00
 9d0:	00000078 	andeq	r0, r0, r8, ror r0
 9d4:	00000096 	muleq	r0, r6, r0
 9d8:	9f310002 	svcls	0x00310002
 9dc:	00000096 	muleq	r0, r6, r0
 9e0:	00000098 	muleq	r0, r8, r0
 9e4:	98500001 	ldmdals	r0, {r0}^
 9e8:	a8000000 	stmdage	r0, {}	; <UNPREDICTABLE>
 9ec:	01000000 	mrseq	r0, (UNDEF: 0)
 9f0:	01945400 	orrseq	r5, r4, r0, lsl #8
 9f4:	01aa0000 			; <UNDEFINED> instruction: 0x01aa0000
 9f8:	00020000 	andeq	r0, r2, r0
 9fc:	01ee9f31 	mvneq	r9, r1, lsr pc
 a00:	01f60000 	mvnseq	r0, r0
 a04:	00020000 	andeq	r0, r2, r0
 a08:	00009f31 	andeq	r9, r0, r1, lsr pc
	...
 a14:	00700000 	rsbseq	r0, r0, r0
 a18:	00020000 	andeq	r0, r2, r0
 a1c:	00709f30 	rsbseq	r9, r0, r0, lsr pc
 a20:	008a0000 	addeq	r0, sl, r0
 a24:	00020000 	andeq	r0, r2, r0
 a28:	00925091 	umullseq	r5, r2, r1, r0
 a2c:	00a80000 	adceq	r0, r8, r0
 a30:	00020000 	andeq	r0, r2, r0
 a34:	01405091 	swpbeq	r5, r1, [r0]
 a38:	018e0000 	orreq	r0, lr, r0
 a3c:	00020000 	andeq	r0, r2, r0
 a40:	018e9f30 	orreq	r9, lr, r0, lsr pc
 a44:	01aa0000 			; <UNDEFINED> instruction: 0x01aa0000
 a48:	00020000 	andeq	r0, r2, r0
 a4c:	01aa9f35 			; <UNDEFINED> instruction: 0x01aa9f35
 a50:	01ee0000 	mvneq	r0, r0
 a54:	00020000 	andeq	r0, r2, r0
 a58:	01f29f30 	mvnseq	r9, r0, lsr pc
 a5c:	01f60000 	mvnseq	r0, r0
 a60:	00020000 	andeq	r0, r2, r0
 a64:	00009f30 	andeq	r9, r0, r0, lsr pc
	...
 a70:	00700000 	rsbseq	r0, r0, r0
 a74:	00020000 	andeq	r0, r2, r0
 a78:	00709f31 	rsbseq	r9, r0, r1, lsr pc
 a7c:	00920000 	addseq	r0, r2, r0
 a80:	00020000 	andeq	r0, r2, r0
 a84:	01405491 			; <UNDEFINED> instruction: 0x01405491
 a88:	01ee0000 	mvneq	r0, r0
 a8c:	00020000 	andeq	r0, r2, r0
 a90:	01ee9f31 	mvneq	r9, r1, lsr pc
 a94:	01f20000 	mvnseq	r0, r0
 a98:	00020000 	andeq	r0, r2, r0
 a9c:	01f25491 			; <UNDEFINED> instruction: 0x01f25491
 aa0:	01f60000 	mvnseq	r0, r0
 aa4:	00020000 	andeq	r0, r2, r0
 aa8:	00009f31 	andeq	r9, r0, r1, lsr pc
	...
 ab4:	00d00000 	sbcseq	r0, r0, r0
 ab8:	000a0000 	andeq	r0, sl, r0
 abc:	0000089e 	muleq	r0, lr, r8
 ac0:	00000000 	andeq	r0, r0, r0
 ac4:	00d00000 	sbcseq	r0, r0, r0
 ac8:	00dc0000 	sbcseq	r0, ip, r0
 acc:	00060000 	andeq	r0, r6, r0
 ad0:	51049350 	tstpl	r4, r0, asr r3
 ad4:	00e00493 	smlaleq	r0, r0, r3, r4	; <UNPREDICTABLE>
 ad8:	01060000 	mrseq	r0, (UNDEF: 6)
 adc:	00060000 	andeq	r0, r6, r0
 ae0:	51049350 	tstpl	r4, r0, asr r3
 ae4:	01380493 	teqeq	r8, r3	; <illegal shifter operand>
 ae8:	013a0000 	teqeq	sl, r0
 aec:	00060000 	andeq	r0, r6, r0
 af0:	51049350 	tstpl	r4, r0, asr r3
 af4:	01400493 			; <UNDEFINED> instruction: 0x01400493
 af8:	01f60000 	mvnseq	r0, r0
 afc:	000a0000 	andeq	r0, sl, r0
 b00:	0000089e 	muleq	r0, lr, r8
	...
 b14:	00780000 	rsbseq	r0, r8, r0
 b18:	000a0000 	andeq	r0, sl, r0
 b1c:	0000089e 	muleq	r0, lr, r8
 b20:	00000000 	andeq	r0, r0, r0
 b24:	00780000 	rsbseq	r0, r8, r0
 b28:	00960000 	addseq	r0, r6, r0
 b2c:	00060000 	andeq	r0, r6, r0
 b30:	51049350 	tstpl	r4, r0, asr r3
 b34:	00980493 	umullseq	r0, r8, r3, r4
 b38:	009f0000 	addseq	r0, pc, r0
 b3c:	00060000 	andeq	r0, r6, r0
 b40:	51049350 	tstpl	r4, r0, asr r3
 b44:	00a80493 	umlaleq	r0, r8, r3, r4
 b48:	00c00000 	sbceq	r0, r0, r0
 b4c:	00100000 	andseq	r0, r0, r0
 b50:	25f70079 	ldrbcs	r0, [r7, #121]!	; 0x79
 b54:	25f70074 	ldrbcs	r0, [r7, #116]!	; 0x74
 b58:	f700f71b 			; <UNDEFINED> instruction: 0xf700f71b
 b5c:	9f2cf725 	svcls	0x002cf725
 b60:	000000c0 	andeq	r0, r0, r0, asr #1
 b64:	00000140 	andeq	r0, r0, r0, asr #2
 b68:	01f30011 	mvnseq	r0, r1, lsl r0
 b6c:	7425f752 	strtvc	pc, [r5], #-1874	; 0xfffff8ae
 b70:	1b25f700 	blne	97e778 <shift+0x97e778>
 b74:	25f700f7 	ldrbcs	r0, [r7, #247]!	; 0xf7
 b78:	409f2cf7 			; <UNDEFINED> instruction: 0x409f2cf7
 b7c:	94000001 	strls	r0, [r0], #-1
 b80:	0a000001 	beq	b8c <shift+0xb8c>
 b84:	00089e00 	andeq	r9, r8, r0, lsl #28
 b88:	00000000 	andeq	r0, r0, r0
 b8c:	94000000 	strls	r0, [r0], #-0
 b90:	a2000001 	andge	r0, r0, #1
 b94:	06000001 	streq	r0, [r0], -r1
 b98:	04935900 	ldreq	r5, [r3], #2304	; 0x900
 b9c:	a2049350 	andge	r9, r4, #80, 6	; 0x40000001
 ba0:	aa000001 	bge	bac <shift+0xbac>
 ba4:	06000001 	streq	r0, [r0], -r1
 ba8:	04935900 	ldreq	r5, [r3], #2304	; 0x900
 bac:	aa049351 	bge	1258f8 <shift+0x1258f8>
 bb0:	ee000001 	cdp	0, 0, cr0, cr0, cr1, {0}
 bb4:	0a000001 	beq	bc0 <shift+0xbc0>
 bb8:	00089e00 	andeq	r9, r8, r0, lsl #28
 bbc:	00000000 	andeq	r0, r0, r0
 bc0:	ee000000 	cdp	0, 0, cr0, cr0, cr0, {0}
 bc4:	f2000001 	vhadd.s8	d0, d0, d1
 bc8:	06000001 	streq	r0, [r0], -r1
 bcc:	04935000 	ldreq	r5, [r3], #0
 bd0:	f2049351 	vcge.s8	<illegal reg q4.5>, q2, <illegal reg q0.5>
 bd4:	f6000001 			; <UNDEFINED> instruction: 0xf6000001
 bd8:	0a000001 	beq	be4 <shift+0xbe4>
 bdc:	00089e00 	andeq	r9, r8, r0, lsl #28
	...
 bf0:	78000000 	stmdavc	r0, {}	; <UNPREDICTABLE>
 bf4:	02000000 	andeq	r0, r0, #0
 bf8:	789f3000 	ldmvc	pc, {ip, sp}	; <UNPREDICTABLE>
 bfc:	96000000 	strls	r0, [r0], -r0
 c00:	01000000 	mrseq	r0, (UNDEF: 0)
 c04:	00965b00 	addseq	r5, r6, r0, lsl #22
 c08:	00980000 	addseq	r0, r8, r0
 c0c:	00010000 	andeq	r0, r1, r0
 c10:	00009852 	andeq	r9, r0, r2, asr r8
 c14:	0000a000 	andeq	sl, r0, r0
 c18:	54000100 	strpl	r0, [r0], #-256	; 0xffffff00
 c1c:	000000a0 	andeq	r0, r0, r0, lsr #1
 c20:	000000a8 	andeq	r0, r0, r8, lsr #1
 c24:	a8520001 	ldmdage	r2, {r0}^
 c28:	40000000 	andmi	r0, r0, r0
 c2c:	0c000001 	stceq	0, cr0, [r0], {1}
 c30:	f7007b00 			; <UNDEFINED> instruction: 0xf7007b00
 c34:	f7007425 			; <UNDEFINED> instruction: 0xf7007425
 c38:	00f71b25 	rscseq	r1, r7, r5, lsr #22
 c3c:	0001409f 	muleq	r1, pc, r0	; <UNPREDICTABLE>
 c40:	00019400 	andeq	r9, r1, r0, lsl #8
 c44:	30000200 	andcc	r0, r0, r0, lsl #4
 c48:	0001949f 	muleq	r1, pc, r4	; <UNPREDICTABLE>
 c4c:	0001aa00 	andeq	sl, r1, r0, lsl #20
 c50:	40000200 	andmi	r0, r0, r0, lsl #4
 c54:	0001aa9f 	muleq	r1, pc, sl	; <UNPREDICTABLE>
 c58:	0001ee00 	andeq	lr, r1, r0, lsl #28
 c5c:	30000200 	andcc	r0, r0, r0, lsl #4
 c60:	0001ee9f 	muleq	r1, pc, lr	; <UNPREDICTABLE>
 c64:	0001f200 	andeq	pc, r1, r0, lsl #4
 c68:	5b000100 	blpl	1070 <shift+0x1070>
 c6c:	000001f2 	strdeq	r0, [r0], -r2
 c70:	000001f6 	strdeq	r0, [r0], -r6
 c74:	9f300002 	svcls	0x00300002
	...
 c80:	00000140 	andeq	r0, r0, r0, asr #2
 c84:	00000182 	andeq	r0, r0, r2, lsl #3
 c88:	7f760011 	svcvc	0x00760011
 c8c:	f90c25f7 			; <UNDEFINED> instruction: 0xf90c25f7
 c90:	f70006ff 			; <UNDEFINED> instruction: 0xf70006ff
 c94:	00f71b25 	rscseq	r1, r7, r5, lsr #22
 c98:	009f0123 	addseq	r0, pc, r3, lsr #2
 c9c:	00000000 	andeq	r0, r0, r0
 ca0:	40000000 	andmi	r0, r0, r0
 ca4:	54000001 	strpl	r0, [r0], #-1
 ca8:	0f000001 	svceq	0x00000001
 cac:	f77f7000 			; <UNDEFINED> instruction: 0xf77f7000
 cb0:	ffff0a25 			; <UNDEFINED> instruction: 0xffff0a25
 cb4:	f71b25f7 			; <UNDEFINED> instruction: 0xf71b25f7
 cb8:	9f012300 	svcls	0x00012300
 cbc:	00000154 	andeq	r0, r0, r4, asr r1
 cc0:	0000018a 	andeq	r0, r0, sl, lsl #3
 cc4:	7f75000f 	svcvc	0x0075000f
 cc8:	ff0a25f7 			; <UNDEFINED> instruction: 0xff0a25f7
 ccc:	1b25f7ff 	blne	97ecd0 <shift+0x97ecd0>
 cd0:	012300f7 	strdeq	r0, [r3, -r7]!
 cd4:	0000009f 	muleq	r0, pc, r0	; <UNPREDICTABLE>
 cd8:	00000000 	andeq	r0, r0, r0
 cdc:	00017800 	andeq	r7, r1, r0, lsl #16
 ce0:	00019200 	andeq	r9, r1, r0, lsl #4
 ce4:	58000100 	stmdapl	r0, {r8}
 ce8:	000001aa 	andeq	r0, r0, sl, lsr #3
 cec:	000001c0 	andeq	r0, r0, r0, asr #3
 cf0:	c6580001 	ldrbgt	r0, [r8], -r1
 cf4:	ce000001 	cdpgt	0, 0, cr0, cr0, cr1, {0}
 cf8:	01000001 	tsteq	r0, r1
 cfc:	01e05800 	mvneq	r5, r0, lsl #16
 d00:	01ee0000 	mvneq	r0, r0
 d04:	00010000 	andeq	r0, r1, r0
 d08:	00000058 	andeq	r0, r0, r8, asr r0
 d0c:	00000000 	andeq	r0, r0, r0
 d10:	0001f800 	andeq	pc, r1, r0, lsl #16
 d14:	00022e00 	andeq	r2, r2, r0, lsl #28
 d18:	0c000600 	stceq	6, cr0, [r0], {-0}
 d1c:	020e0310 	andeq	r0, lr, #16, 6	; 0x40000000
 d20:	00022e9f 	muleq	r2, pc, lr	; <UNPREDICTABLE>
 d24:	00029c00 	andeq	r9, r2, r0, lsl #24
 d28:	0c000600 	stceq	6, cr0, [r0], {-0}
 d2c:	020e0314 	andeq	r0, lr, #20, 6	; 0x50000000
 d30:	0000009f 	muleq	r0, pc, r0	; <UNPREDICTABLE>
 d34:	00000000 	andeq	r0, r0, r0
 d38:	00022800 	andeq	r2, r2, r0, lsl #16
 d3c:	00023400 	andeq	r3, r2, r0, lsl #8
 d40:	0c000600 	stceq	6, cr0, [r0], {-0}
 d44:	020e0084 	andeq	r0, lr, #132	; 0x84
 d48:	0002349f 	muleq	r2, pc, r4	; <UNPREDICTABLE>
 d4c:	00029c00 	andeq	r9, r2, r0, lsl #24
 d50:	0c000600 	stceq	6, cr0, [r0], {-0}
 d54:	020e0088 	andeq	r0, lr, #136	; 0x88
 d58:	0000009f 	muleq	r0, pc, r0	; <UNPREDICTABLE>
 d5c:	00000000 	andeq	r0, r0, r0
 d60:	00022800 	andeq	r2, r2, r0, lsl #16
 d64:	00023400 	andeq	r3, r2, r0, lsl #8
 d68:	30000200 	andcc	r0, r0, r0, lsl #4
 d6c:	0002349f 	muleq	r2, pc, r4	; <UNPREDICTABLE>
 d70:	00029c00 	andeq	r9, r2, r0, lsl #24
 d74:	0c000600 	stceq	6, cr0, [r0], {-0}
 d78:	020e0624 	andeq	r0, lr, #36, 12	; 0x2400000
 d7c:	0000009f 	muleq	r0, pc, r0	; <UNPREDICTABLE>
 d80:	00000000 	andeq	r0, r0, r0
 d84:	00022800 	andeq	r2, r2, r0, lsl #16
 d88:	00023400 	andeq	r3, r2, r0, lsl #8
 d8c:	30000200 	andcc	r0, r0, r0, lsl #4
 d90:	0002349f 	muleq	r2, pc, r4	; <UNPREDICTABLE>
 d94:	00029c00 	andeq	r9, r2, r0, lsl #24
 d98:	33000200 	movwcc	r0, #512	; 0x200
 d9c:	0000009f 	muleq	r0, pc, r0	; <UNPREDICTABLE>
 da0:	00000000 	andeq	r0, r0, r0
 da4:	0002d000 	andeq	sp, r2, r0
 da8:	0002de00 	andeq	sp, r2, r0, lsl #28
 dac:	50000100 	andpl	r0, r0, r0, lsl #2
	...
